ARM GAS  C:\Users\Greg\AppData\Local\Temp\ccw0QXPM.s 			page 1


   1              		.cpu cortex-m0
   2              		.fpu softvfp
   3              		.eabi_attribute 20, 1
   4              		.eabi_attribute 21, 1
   5              		.eabi_attribute 23, 3
   6              		.eabi_attribute 24, 1
   7              		.eabi_attribute 25, 1
   8              		.eabi_attribute 26, 1
   9              		.eabi_attribute 30, 6
  10              		.eabi_attribute 34, 0
  11              		.eabi_attribute 18, 4
  12              		.code	16
  13              		.file	"EEPROM.c"
  14              		.text
  15              	.Ltext0:
  16              		.cfi_sections	.debug_frame
  17              		.section	.text.EEPROM_Start,"ax",%progbits
  18              		.align	2
  19              		.global	EEPROM_Start
  20              		.code	16
  21              		.thumb_func
  22              		.type	EEPROM_Start, %function
  23              	EEPROM_Start:
  24              	.LFB0:
  25              		.file 1 ".\\Generated_Source\\PSoC4\\EEPROM.c"
   1:.\Generated_Source\PSoC4/EEPROM.c **** /*******************************************************************************
   2:.\Generated_Source\PSoC4/EEPROM.c **** * File Name: EEPROM.c
   3:.\Generated_Source\PSoC4/EEPROM.c **** * Version 1.10
   4:.\Generated_Source\PSoC4/EEPROM.c **** *
   5:.\Generated_Source\PSoC4/EEPROM.c **** * Description:
   6:.\Generated_Source\PSoC4/EEPROM.c **** *  This file provides the source code to API for the Emulated EEPROM Component.
   7:.\Generated_Source\PSoC4/EEPROM.c **** *
   8:.\Generated_Source\PSoC4/EEPROM.c **** ********************************************************************************
   9:.\Generated_Source\PSoC4/EEPROM.c **** * Copyright 2013, Cypress Semiconductor Corporation.  All rights reserved.
  10:.\Generated_Source\PSoC4/EEPROM.c **** * You may use this file only in accordance with the license, terms, conditions,
  11:.\Generated_Source\PSoC4/EEPROM.c **** * disclaimers, and limitations in the end user license agreement accompanying
  12:.\Generated_Source\PSoC4/EEPROM.c **** * the software package with which this file was provided.
  13:.\Generated_Source\PSoC4/EEPROM.c **** *******************************************************************************/
  14:.\Generated_Source\PSoC4/EEPROM.c **** 
  15:.\Generated_Source\PSoC4/EEPROM.c **** #include "EEPROM.h"
  16:.\Generated_Source\PSoC4/EEPROM.c **** 
  17:.\Generated_Source\PSoC4/EEPROM.c **** 
  18:.\Generated_Source\PSoC4/EEPROM.c **** /*******************************************************************************
  19:.\Generated_Source\PSoC4/EEPROM.c **** * Function Name: EEPROM_Start
  20:.\Generated_Source\PSoC4/EEPROM.c **** ********************************************************************************
  21:.\Generated_Source\PSoC4/EEPROM.c **** *
  22:.\Generated_Source\PSoC4/EEPROM.c **** * Summary:
  23:.\Generated_Source\PSoC4/EEPROM.c **** *  Empty function. Included for consistency with other
  24:.\Generated_Source\PSoC4/EEPROM.c **** *  components.
  25:.\Generated_Source\PSoC4/EEPROM.c **** *
  26:.\Generated_Source\PSoC4/EEPROM.c **** * Parameters:
  27:.\Generated_Source\PSoC4/EEPROM.c **** *  None
  28:.\Generated_Source\PSoC4/EEPROM.c **** *
  29:.\Generated_Source\PSoC4/EEPROM.c **** * Return:
  30:.\Generated_Source\PSoC4/EEPROM.c **** *  None
  31:.\Generated_Source\PSoC4/EEPROM.c **** *
  32:.\Generated_Source\PSoC4/EEPROM.c **** *******************************************************************************/
ARM GAS  C:\Users\Greg\AppData\Local\Temp\ccw0QXPM.s 			page 2


  33:.\Generated_Source\PSoC4/EEPROM.c **** void EEPROM_Start(void) 
  34:.\Generated_Source\PSoC4/EEPROM.c **** {
  26              		.loc 1 34 0
  27              		.cfi_startproc
  28 0000 80B5     		push	{r7, lr}
  29              	.LCFI0:
  30              		.cfi_def_cfa_offset 8
  31              		.cfi_offset 7, -8
  32              		.cfi_offset 14, -4
  33 0002 00AF     		add	r7, sp, #0
  34              	.LCFI1:
  35              		.cfi_def_cfa_register 7
  35:.\Generated_Source\PSoC4/EEPROM.c **** 
  36:.\Generated_Source\PSoC4/EEPROM.c **** }
  36              		.loc 1 36 0
  37 0004 BD46     		mov	sp, r7
  38              		@ sp needed for prologue
  39 0006 80BD     		pop	{r7, pc}
  40              		.cfi_endproc
  41              	.LFE0:
  42              		.size	EEPROM_Start, .-EEPROM_Start
  43              		.section	.text.EEPROM_Stop,"ax",%progbits
  44              		.align	2
  45              		.global	EEPROM_Stop
  46              		.code	16
  47              		.thumb_func
  48              		.type	EEPROM_Stop, %function
  49              	EEPROM_Stop:
  50              	.LFB1:
  37:.\Generated_Source\PSoC4/EEPROM.c **** 
  38:.\Generated_Source\PSoC4/EEPROM.c **** 
  39:.\Generated_Source\PSoC4/EEPROM.c **** /*******************************************************************************
  40:.\Generated_Source\PSoC4/EEPROM.c **** * Function Name: EEPROM_Stop
  41:.\Generated_Source\PSoC4/EEPROM.c **** ********************************************************************************
  42:.\Generated_Source\PSoC4/EEPROM.c **** *
  43:.\Generated_Source\PSoC4/EEPROM.c **** * Summary:
  44:.\Generated_Source\PSoC4/EEPROM.c **** *  Empty function. Included for consistency with other
  45:.\Generated_Source\PSoC4/EEPROM.c **** *  components.
  46:.\Generated_Source\PSoC4/EEPROM.c **** *
  47:.\Generated_Source\PSoC4/EEPROM.c **** * Parameters:
  48:.\Generated_Source\PSoC4/EEPROM.c **** *  None
  49:.\Generated_Source\PSoC4/EEPROM.c **** *
  50:.\Generated_Source\PSoC4/EEPROM.c **** * Return:
  51:.\Generated_Source\PSoC4/EEPROM.c **** *  None
  52:.\Generated_Source\PSoC4/EEPROM.c **** *
  53:.\Generated_Source\PSoC4/EEPROM.c **** *******************************************************************************/
  54:.\Generated_Source\PSoC4/EEPROM.c **** void EEPROM_Stop(void) 
  55:.\Generated_Source\PSoC4/EEPROM.c **** {
  51              		.loc 1 55 0
  52              		.cfi_startproc
  53 0000 80B5     		push	{r7, lr}
  54              	.LCFI2:
  55              		.cfi_def_cfa_offset 8
  56              		.cfi_offset 7, -8
  57              		.cfi_offset 14, -4
  58 0002 00AF     		add	r7, sp, #0
  59              	.LCFI3:
ARM GAS  C:\Users\Greg\AppData\Local\Temp\ccw0QXPM.s 			page 3


  60              		.cfi_def_cfa_register 7
  56:.\Generated_Source\PSoC4/EEPROM.c **** 
  57:.\Generated_Source\PSoC4/EEPROM.c **** }
  61              		.loc 1 57 0
  62 0004 BD46     		mov	sp, r7
  63              		@ sp needed for prologue
  64 0006 80BD     		pop	{r7, pc}
  65              		.cfi_endproc
  66              	.LFE1:
  67              		.size	EEPROM_Stop, .-EEPROM_Stop
  68              		.section	.text.EEPROM_Write,"ax",%progbits
  69              		.align	2
  70              		.global	EEPROM_Write
  71              		.code	16
  72              		.thumb_func
  73              		.type	EEPROM_Write, %function
  74              	EEPROM_Write:
  75              	.LFB2:
  58:.\Generated_Source\PSoC4/EEPROM.c **** 
  59:.\Generated_Source\PSoC4/EEPROM.c **** 
  60:.\Generated_Source\PSoC4/EEPROM.c **** /*******************************************************************************
  61:.\Generated_Source\PSoC4/EEPROM.c **** * Function Name: EEPROM_Write
  62:.\Generated_Source\PSoC4/EEPROM.c **** ********************************************************************************
  63:.\Generated_Source\PSoC4/EEPROM.c **** *
  64:.\Generated_Source\PSoC4/EEPROM.c **** * Summary:
  65:.\Generated_Source\PSoC4/EEPROM.c **** *  Writes the specified number of bytes from the source buffer in SRAM to the
  66:.\Generated_Source\PSoC4/EEPROM.c **** *  emulated EEPROM array in flash, without modifying other data in flash.
  67:.\Generated_Source\PSoC4/EEPROM.c **** *
  68:.\Generated_Source\PSoC4/EEPROM.c **** * Parameters:
  69:.\Generated_Source\PSoC4/EEPROM.c **** *  srcBuf:    Pointer to the SRAM buffer holding the data to write.
  70:.\Generated_Source\PSoC4/EEPROM.c **** *  eepromPtr: Pointer to the array or variable in flash representing
  71:.\Generated_Source\PSoC4/EEPROM.c **** *             the emulated EEPROM.
  72:.\Generated_Source\PSoC4/EEPROM.c **** *  byteCount: Number of bytes to write from srcBuf to eepromPtr.
  73:.\Generated_Source\PSoC4/EEPROM.c **** *
  74:.\Generated_Source\PSoC4/EEPROM.c **** * Return:
  75:.\Generated_Source\PSoC4/EEPROM.c **** *    CYRET_SUCCESS     Successful write.
  76:.\Generated_Source\PSoC4/EEPROM.c **** *    CYRET_BAD_PARAM   eepromPtr is out of range of flash memory.
  77:.\Generated_Source\PSoC4/EEPROM.c **** *    CYRET_UNKNOWN     Other error in writing flash.
  78:.\Generated_Source\PSoC4/EEPROM.c **** *
  79:.\Generated_Source\PSoC4/EEPROM.c **** *******************************************************************************/
  80:.\Generated_Source\PSoC4/EEPROM.c **** #if (CY_PSOC3)
  81:.\Generated_Source\PSoC4/EEPROM.c ****     cystatus EEPROM_Write(const uint8 srcBuf[], const uint8 eepromPtr[], uint16 byteCount)
  82:.\Generated_Source\PSoC4/EEPROM.c ****                                                                             
  83:.\Generated_Source\PSoC4/EEPROM.c **** #else
  84:.\Generated_Source\PSoC4/EEPROM.c ****     cystatus EEPROM_Write(const uint8 srcBuf[], const uint8 eepromPtr[], uint32 byteCount)
  85:.\Generated_Source\PSoC4/EEPROM.c **** #endif /* (!CY_PSOC3) */
  86:.\Generated_Source\PSoC4/EEPROM.c **** {
  76              		.loc 1 86 0
  77              		.cfi_startproc
  78 0000 80B5     		push	{r7, lr}
  79              	.LCFI4:
  80              		.cfi_def_cfa_offset 8
  81              		.cfi_offset 7, -8
  82              		.cfi_offset 14, -4
  83 0002 ACB0     		sub	sp, sp, #176
  84              	.LCFI5:
  85              		.cfi_def_cfa_offset 184
ARM GAS  C:\Users\Greg\AppData\Local\Temp\ccw0QXPM.s 			page 4


  86 0004 00AF     		add	r7, sp, #0
  87              	.LCFI6:
  88              		.cfi_def_cfa_register 7
  89 0006 F860     		str	r0, [r7, #12]
  90 0008 B960     		str	r1, [r7, #8]
  91 000a 7A60     		str	r2, [r7, #4]
  87:.\Generated_Source\PSoC4/EEPROM.c ****     uint8 writeBuffer[CY_FLASH_SIZEOF_ROW];
  88:.\Generated_Source\PSoC4/EEPROM.c ****     uint32 arrayId;
  89:.\Generated_Source\PSoC4/EEPROM.c ****     uint32 rowId;
  90:.\Generated_Source\PSoC4/EEPROM.c ****     uint32 dstIndex;
  91:.\Generated_Source\PSoC4/EEPROM.c ****     uint32 srcIndex;
  92:.\Generated_Source\PSoC4/EEPROM.c ****     cystatus rc;
  93:.\Generated_Source\PSoC4/EEPROM.c ****     uint32 eeOffset;
  94:.\Generated_Source\PSoC4/EEPROM.c ****     uint32 byteOffset;
  95:.\Generated_Source\PSoC4/EEPROM.c ****     
  96:.\Generated_Source\PSoC4/EEPROM.c ****     #if (!CY_PSOC4)
  97:.\Generated_Source\PSoC4/EEPROM.c ****         #if (CYDEV_ECC_ENABLE == 0)
  98:.\Generated_Source\PSoC4/EEPROM.c ****             uint8 rowBuffer[CY_FLASH_SIZEOF_ROW + CY_FLASH_SIZEOF_ECC_ROW];
  99:.\Generated_Source\PSoC4/EEPROM.c ****         #endif /* CYDEV_ECC_ENABLE == 0) */
 100:.\Generated_Source\PSoC4/EEPROM.c ****     #endif /* (!CY_PSOC4) */
 101:.\Generated_Source\PSoC4/EEPROM.c **** 
 102:.\Generated_Source\PSoC4/EEPROM.c ****     eeOffset = (uint32)eepromPtr;
  92              		.loc 1 102 0
  93 000c BB68     		ldr	r3, [r7, #8]
  94 000e 9820     		mov	r0, #152
  95 0010 C019     		add	r0, r0, r7
  96 0012 0360     		str	r3, [r0]
 103:.\Generated_Source\PSoC4/EEPROM.c ****     #if (CY_PSOC3)
 104:.\Generated_Source\PSoC4/EEPROM.c ****         eeOffset &= EEPROM_CODE_ADDR_MASK;
 105:.\Generated_Source\PSoC4/EEPROM.c ****     #endif /* (CY_PSOC3) */
 106:.\Generated_Source\PSoC4/EEPROM.c **** 
 107:.\Generated_Source\PSoC4/EEPROM.c ****     /* Make sure, that eepromPtr[] points to ROM */
 108:.\Generated_Source\PSoC4/EEPROM.c ****     #if (CY_PSOC3)
 109:.\Generated_Source\PSoC4/EEPROM.c ****         if (((uint32)eepromPtr >= EEPROM_CODE_ADDR_OFFSET) &&
 110:.\Generated_Source\PSoC4/EEPROM.c ****             (((uint32)eepromPtr + byteCount) <= EEPROM_CODE_ADDR_END))
 111:.\Generated_Source\PSoC4/EEPROM.c ****     #else
 112:.\Generated_Source\PSoC4/EEPROM.c ****         if (((uint32)eepromPtr + byteCount) < EEPROM_FLASH_END_ADDR)
  97              		.loc 1 112 0
  98 0014 BA68     		ldr	r2, [r7, #8]
  99 0016 7B68     		ldr	r3, [r7, #4]
 100 0018 D218     		add	r2, r2, r3
 101 001a 554B     		ldr	r3, .L14
 102 001c 9A42     		cmp	r2, r3
 103 001e 00D9     		bls	.LCB67
 104 0020 8BE0     		b	.L4	@long jump
 105              	.LCB67:
 113:.\Generated_Source\PSoC4/EEPROM.c ****     #endif /* (CY_PSOC3) */
 114:.\Generated_Source\PSoC4/EEPROM.c ****     {
 115:.\Generated_Source\PSoC4/EEPROM.c ****         #if (!CY_PSOC4)
 116:.\Generated_Source\PSoC4/EEPROM.c ****             (void)CySetTemp();
 117:.\Generated_Source\PSoC4/EEPROM.c **** 
 118:.\Generated_Source\PSoC4/EEPROM.c ****             #if(CYDEV_ECC_ENABLE == 0)
 119:.\Generated_Source\PSoC4/EEPROM.c ****                 (void)CySetFlashEEBuffer(rowBuffer);
 120:.\Generated_Source\PSoC4/EEPROM.c ****             #endif
 121:.\Generated_Source\PSoC4/EEPROM.c ****         #endif /* (!CY_PSOC4) */
 122:.\Generated_Source\PSoC4/EEPROM.c **** 
 123:.\Generated_Source\PSoC4/EEPROM.c ****         arrayId = eeOffset / CY_FLASH_SIZEOF_ARRAY;
ARM GAS  C:\Users\Greg\AppData\Local\Temp\ccw0QXPM.s 			page 5


 106              		.loc 1 123 0
 107 0022 9821     		mov	r1, #152
 108 0024 C919     		add	r1, r1, r7
 109 0026 0B68     		ldr	r3, [r1]
 110 0028 DB0B     		lsr	r3, r3, #15
 111 002a 9422     		mov	r2, #148
 112 002c D219     		add	r2, r2, r7
 113 002e 1360     		str	r3, [r2]
 124:.\Generated_Source\PSoC4/EEPROM.c ****         rowId = (eeOffset / CY_FLASH_SIZEOF_ROW) % EEPROM_ROWS_IN_ARRAY;
 114              		.loc 1 124 0
 115 0030 9820     		mov	r0, #152
 116 0032 C019     		add	r0, r0, r7
 117 0034 0368     		ldr	r3, [r0]
 118 0036 DA09     		lsr	r2, r3, #7
 119 0038 FF23     		mov	r3, #255
 120 003a 1340     		and	r3, r2
 121 003c AC21     		mov	r1, #172
 122 003e C919     		add	r1, r1, r7
 123 0040 0B60     		str	r3, [r1]
 125:.\Generated_Source\PSoC4/EEPROM.c ****         byteOffset = (CY_FLASH_SIZEOF_ARRAY * arrayId) + (CY_FLASH_SIZEOF_ROW * rowId);
 124              		.loc 1 125 0
 125 0042 9422     		mov	r2, #148
 126 0044 D219     		add	r2, r2, r7
 127 0046 1368     		ldr	r3, [r2]
 128 0048 1A02     		lsl	r2, r3, #8
 129 004a AC20     		mov	r0, #172
 130 004c C019     		add	r0, r0, r7
 131 004e 0368     		ldr	r3, [r0]
 132 0050 D318     		add	r3, r2, r3
 133 0052 DB01     		lsl	r3, r3, #7
 134 0054 9C21     		mov	r1, #156
 135 0056 C919     		add	r1, r1, r7
 136 0058 0B60     		str	r3, [r1]
 126:.\Generated_Source\PSoC4/EEPROM.c ****         srcIndex = 0u;
 137              		.loc 1 126 0
 138 005a 0023     		mov	r3, #0
 139 005c A422     		mov	r2, #164
 140 005e D219     		add	r2, r2, r7
 141 0060 1360     		str	r3, [r2]
 127:.\Generated_Source\PSoC4/EEPROM.c **** 
 128:.\Generated_Source\PSoC4/EEPROM.c ****         rc = CYRET_SUCCESS;
 142              		.loc 1 128 0
 143 0062 0023     		mov	r3, #0
 144 0064 A020     		mov	r0, #160
 145 0066 C019     		add	r0, r0, r7
 146 0068 0360     		str	r3, [r0]
 129:.\Generated_Source\PSoC4/EEPROM.c **** 
 130:.\Generated_Source\PSoC4/EEPROM.c ****         while ((srcIndex < byteCount) && (CYRET_SUCCESS == rc))
 147              		.loc 1 130 0
 148 006a 5AE0     		b	.L5
 149              	.L11:
 131:.\Generated_Source\PSoC4/EEPROM.c ****         {
 132:.\Generated_Source\PSoC4/EEPROM.c ****             /* Copy data to the write buffer either from the source buffer or from the flash */
 133:.\Generated_Source\PSoC4/EEPROM.c ****             for (dstIndex = 0u; dstIndex < CY_FLASH_SIZEOF_ROW; dstIndex++)
 150              		.loc 1 133 0
 151 006c 0023     		mov	r3, #0
 152 006e A821     		mov	r1, #168
ARM GAS  C:\Users\Greg\AppData\Local\Temp\ccw0QXPM.s 			page 6


 153 0070 C919     		add	r1, r1, r7
 154 0072 0B60     		str	r3, [r1]
 155 0074 3CE0     		b	.L6
 156              	.L9:
 134:.\Generated_Source\PSoC4/EEPROM.c ****             {
 135:.\Generated_Source\PSoC4/EEPROM.c ****                 if ((byteOffset >= eeOffset) && (srcIndex < byteCount))
 157              		.loc 1 135 0
 158 0076 9C23     		mov	r3, #156
 159 0078 DB19     		add	r3, r3, r7
 160 007a 1A68     		ldr	r2, [r3]
 161 007c 9820     		mov	r0, #152
 162 007e C019     		add	r0, r0, r7
 163 0080 0368     		ldr	r3, [r0]
 164 0082 9A42     		cmp	r2, r3
 165 0084 1AD3     		bcc	.L7
 166              		.loc 1 135 0 is_stmt 0 discriminator 1
 167 0086 A421     		mov	r1, #164
 168 0088 C919     		add	r1, r1, r7
 169 008a 0A68     		ldr	r2, [r1]
 170 008c 7B68     		ldr	r3, [r7, #4]
 171 008e 9A42     		cmp	r2, r3
 172 0090 14D2     		bcs	.L7
 136:.\Generated_Source\PSoC4/EEPROM.c ****                 {
 137:.\Generated_Source\PSoC4/EEPROM.c ****                     writeBuffer[dstIndex] = srcBuf[srcIndex];
 173              		.loc 1 137 0 is_stmt 1
 174 0092 FA68     		ldr	r2, [r7, #12]
 175 0094 A420     		mov	r0, #164
 176 0096 C019     		add	r0, r0, r7
 177 0098 0368     		ldr	r3, [r0]
 178 009a D318     		add	r3, r2, r3
 179 009c 1A78     		ldrb	r2, [r3]
 180 009e 391C     		mov	r1, r7
 181 00a0 1431     		add	r1, r1, #20
 182 00a2 A820     		mov	r0, #168
 183 00a4 C019     		add	r0, r0, r7
 184 00a6 0368     		ldr	r3, [r0]
 185 00a8 CB18     		add	r3, r1, r3
 186 00aa 1A70     		strb	r2, [r3]
 138:.\Generated_Source\PSoC4/EEPROM.c ****                     srcIndex++;
 187              		.loc 1 138 0
 188 00ac A421     		mov	r1, #164
 189 00ae C919     		add	r1, r1, r7
 190 00b0 0B68     		ldr	r3, [r1]
 191 00b2 0133     		add	r3, r3, #1
 192 00b4 A422     		mov	r2, #164
 193 00b6 D219     		add	r2, r2, r7
 194 00b8 1360     		str	r3, [r2]
 195 00ba 0BE0     		b	.L8
 196              	.L7:
 139:.\Generated_Source\PSoC4/EEPROM.c ****                 }
 140:.\Generated_Source\PSoC4/EEPROM.c ****                 else
 141:.\Generated_Source\PSoC4/EEPROM.c ****                 {
 142:.\Generated_Source\PSoC4/EEPROM.c ****                     writeBuffer[dstIndex] = CY_GET_XTND_REG8(CYDEV_FLASH_BASE + byteOffset);
 197              		.loc 1 142 0
 198 00bc 9C20     		mov	r0, #156
 199 00be C019     		add	r0, r0, r7
 200 00c0 0368     		ldr	r3, [r0]
ARM GAS  C:\Users\Greg\AppData\Local\Temp\ccw0QXPM.s 			page 7


 201 00c2 1B78     		ldrb	r3, [r3]
 202 00c4 DAB2     		uxtb	r2, r3
 203 00c6 391C     		mov	r1, r7
 204 00c8 1431     		add	r1, r1, #20
 205 00ca A820     		mov	r0, #168
 206 00cc C019     		add	r0, r0, r7
 207 00ce 0368     		ldr	r3, [r0]
 208 00d0 CB18     		add	r3, r1, r3
 209 00d2 1A70     		strb	r2, [r3]
 210              	.L8:
 143:.\Generated_Source\PSoC4/EEPROM.c ****                 }
 144:.\Generated_Source\PSoC4/EEPROM.c ****                 byteOffset++;
 211              		.loc 1 144 0
 212 00d4 9C21     		mov	r1, #156
 213 00d6 C919     		add	r1, r1, r7
 214 00d8 0B68     		ldr	r3, [r1]
 215 00da 0133     		add	r3, r3, #1
 216 00dc 9C22     		mov	r2, #156
 217 00de D219     		add	r2, r2, r7
 218 00e0 1360     		str	r3, [r2]
 133:.\Generated_Source\PSoC4/EEPROM.c ****             for (dstIndex = 0u; dstIndex < CY_FLASH_SIZEOF_ROW; dstIndex++)
 219              		.loc 1 133 0
 220 00e2 A820     		mov	r0, #168
 221 00e4 C019     		add	r0, r0, r7
 222 00e6 0368     		ldr	r3, [r0]
 223 00e8 0133     		add	r3, r3, #1
 224 00ea A821     		mov	r1, #168
 225 00ec C919     		add	r1, r1, r7
 226 00ee 0B60     		str	r3, [r1]
 227              	.L6:
 133:.\Generated_Source\PSoC4/EEPROM.c ****             for (dstIndex = 0u; dstIndex < CY_FLASH_SIZEOF_ROW; dstIndex++)
 228              		.loc 1 133 0 is_stmt 0 discriminator 1
 229 00f0 A822     		mov	r2, #168
 230 00f2 D219     		add	r2, r2, r7
 231 00f4 1368     		ldr	r3, [r2]
 232 00f6 7F2B     		cmp	r3, #127
 233 00f8 BDD9     		bls	.L9
 145:.\Generated_Source\PSoC4/EEPROM.c ****             }
 146:.\Generated_Source\PSoC4/EEPROM.c **** 
 147:.\Generated_Source\PSoC4/EEPROM.c ****             /* Write flash row */
 148:.\Generated_Source\PSoC4/EEPROM.c ****             #if (CY_PSOC4)
 149:.\Generated_Source\PSoC4/EEPROM.c ****                 rc = CySysFlashWriteRow(rowId, writeBuffer);
 234              		.loc 1 149 0 is_stmt 1
 235 00fa AC23     		mov	r3, #172
 236 00fc DB19     		add	r3, r3, r7
 237 00fe 1A68     		ldr	r2, [r3]
 238 0100 3B1C     		mov	r3, r7
 239 0102 1433     		add	r3, r3, #20
 240 0104 101C     		mov	r0, r2
 241 0106 191C     		mov	r1, r3
 242 0108 FFF7FEFF 		bl	CySysFlashWriteRow
 243 010c 031C     		mov	r3, r0
 244 010e A020     		mov	r0, #160
 245 0110 C019     		add	r0, r0, r7
 246 0112 0360     		str	r3, [r0]
 150:.\Generated_Source\PSoC4/EEPROM.c ****             #else
 151:.\Generated_Source\PSoC4/EEPROM.c ****                 rc = CyWriteRowData((uint8)arrayId, (uint16)rowId, writeBuffer);
ARM GAS  C:\Users\Greg\AppData\Local\Temp\ccw0QXPM.s 			page 8


 152:.\Generated_Source\PSoC4/EEPROM.c ****             #endif /* (CY_PSOC4) */
 153:.\Generated_Source\PSoC4/EEPROM.c **** 
 154:.\Generated_Source\PSoC4/EEPROM.c ****             /* Go to the next row */
 155:.\Generated_Source\PSoC4/EEPROM.c ****             rowId++;
 247              		.loc 1 155 0
 248 0114 AC21     		mov	r1, #172
 249 0116 C919     		add	r1, r1, r7
 250 0118 0B68     		ldr	r3, [r1]
 251 011a 0133     		add	r3, r3, #1
 252 011c AC22     		mov	r2, #172
 253 011e D219     		add	r2, r2, r7
 254 0120 1360     		str	r3, [r2]
 255              	.L5:
 130:.\Generated_Source\PSoC4/EEPROM.c ****         while ((srcIndex < byteCount) && (CYRET_SUCCESS == rc))
 256              		.loc 1 130 0 discriminator 1
 257 0122 A423     		mov	r3, #164
 258 0124 DB19     		add	r3, r3, r7
 259 0126 1A68     		ldr	r2, [r3]
 260 0128 7B68     		ldr	r3, [r7, #4]
 261 012a 9A42     		cmp	r2, r3
 262 012c 09D2     		bcs	.L10
 130:.\Generated_Source\PSoC4/EEPROM.c ****         while ((srcIndex < byteCount) && (CYRET_SUCCESS == rc))
 263              		.loc 1 130 0 is_stmt 0 discriminator 2
 264 012e A020     		mov	r0, #160
 265 0130 C019     		add	r0, r0, r7
 266 0132 0368     		ldr	r3, [r0]
 267 0134 002B     		cmp	r3, #0
 268 0136 99D0     		beq	.L11
 130:.\Generated_Source\PSoC4/EEPROM.c ****         while ((srcIndex < byteCount) && (CYRET_SUCCESS == rc))
 269              		.loc 1 130 0
 270 0138 03E0     		b	.L10
 271              	.L4:
 156:.\Generated_Source\PSoC4/EEPROM.c ****             #if (CY_FLASH_NUMBER_ARRAYS > 1)
 157:.\Generated_Source\PSoC4/EEPROM.c ****                 if (rowId >= EEPROM_ROWS_IN_ARRAY)
 158:.\Generated_Source\PSoC4/EEPROM.c ****                 {
 159:.\Generated_Source\PSoC4/EEPROM.c ****                     arrayId++;
 160:.\Generated_Source\PSoC4/EEPROM.c ****                     rowId = 0u;
 161:.\Generated_Source\PSoC4/EEPROM.c ****                 }
 162:.\Generated_Source\PSoC4/EEPROM.c ****             #endif /* (CY_FLASH_NUMBER_ARRAYS > 1) */
 163:.\Generated_Source\PSoC4/EEPROM.c ****         }
 164:.\Generated_Source\PSoC4/EEPROM.c **** 
 165:.\Generated_Source\PSoC4/EEPROM.c ****         /* Flush both Cache and PHUB prefetch buffer */
 166:.\Generated_Source\PSoC4/EEPROM.c ****         #if (CY_PSOC5)
 167:.\Generated_Source\PSoC4/EEPROM.c ****             CyFlushCache();
 168:.\Generated_Source\PSoC4/EEPROM.c ****         #elif (CY_PSOC3)
 169:.\Generated_Source\PSoC4/EEPROM.c ****             CY_FLASH_CONTROL_REG |= 6u;
 170:.\Generated_Source\PSoC4/EEPROM.c ****         #endif /* (CY_PSOC5) */
 171:.\Generated_Source\PSoC4/EEPROM.c ****     }
 172:.\Generated_Source\PSoC4/EEPROM.c ****     else
 173:.\Generated_Source\PSoC4/EEPROM.c ****     {
 174:.\Generated_Source\PSoC4/EEPROM.c ****         rc = CYRET_BAD_PARAM;
 272              		.loc 1 174 0 is_stmt 1
 273 013a 0123     		mov	r3, #1
 274 013c A021     		mov	r1, #160
 275 013e C919     		add	r1, r1, r7
 276 0140 0B60     		str	r3, [r1]
 277              	.L10:
ARM GAS  C:\Users\Greg\AppData\Local\Temp\ccw0QXPM.s 			page 9


 175:.\Generated_Source\PSoC4/EEPROM.c ****     }
 176:.\Generated_Source\PSoC4/EEPROM.c **** 
 177:.\Generated_Source\PSoC4/EEPROM.c ****     /* Mask return codes from flash, if they are not supported */
 178:.\Generated_Source\PSoC4/EEPROM.c ****     if ((CYRET_SUCCESS != rc) && (CYRET_BAD_PARAM != rc))
 278              		.loc 1 178 0
 279 0142 A022     		mov	r2, #160
 280 0144 D219     		add	r2, r2, r7
 281 0146 1368     		ldr	r3, [r2]
 282 0148 002B     		cmp	r3, #0
 283 014a 09D0     		beq	.L12
 284              		.loc 1 178 0 is_stmt 0 discriminator 1
 285 014c A020     		mov	r0, #160
 286 014e C019     		add	r0, r0, r7
 287 0150 0368     		ldr	r3, [r0]
 288 0152 012B     		cmp	r3, #1
 289 0154 04D0     		beq	.L12
 179:.\Generated_Source\PSoC4/EEPROM.c ****     {
 180:.\Generated_Source\PSoC4/EEPROM.c ****         rc = CYRET_UNKNOWN;
 290              		.loc 1 180 0 is_stmt 1
 291 0156 0123     		mov	r3, #1
 292 0158 5B42     		neg	r3, r3
 293 015a A021     		mov	r1, #160
 294 015c C919     		add	r1, r1, r7
 295 015e 0B60     		str	r3, [r1]
 296              	.L12:
 181:.\Generated_Source\PSoC4/EEPROM.c ****     }
 182:.\Generated_Source\PSoC4/EEPROM.c ****     
 183:.\Generated_Source\PSoC4/EEPROM.c ****     return (rc);
 297              		.loc 1 183 0
 298 0160 A022     		mov	r2, #160
 299 0162 D219     		add	r2, r2, r7
 300 0164 1368     		ldr	r3, [r2]
 184:.\Generated_Source\PSoC4/EEPROM.c **** }
 301              		.loc 1 184 0
 302 0166 181C     		mov	r0, r3
 303 0168 BD46     		mov	sp, r7
 304 016a 2CB0     		add	sp, sp, #176
 305              		@ sp needed for prologue
 306 016c 80BD     		pop	{r7, pc}
 307              	.L15:
 308 016e C046     		.align	2
 309              	.L14:
 310 0170 FF7F0000 		.word	32767
 311              		.cfi_endproc
 312              	.LFE2:
 313              		.size	EEPROM_Write, .-EEPROM_Write
 314              		.text
 315              	.Letext0:
 316              		.file 2 ".\\Generated_Source\\PSoC4\\cytypes.h"