ARM GAS  C:\Users\Greg\AppData\Local\Temp\ccZMqq91.s 			page 1


   1              		.cpu cortex-m0
   2              		.fpu softvfp
   3              		.eabi_attribute 20, 1
   4              		.eabi_attribute 21, 1
   5              		.eabi_attribute 23, 3
   6              		.eabi_attribute 24, 1
   7              		.eabi_attribute 25, 1
   8              		.eabi_attribute 26, 1
   9              		.eabi_attribute 30, 6
  10              		.eabi_attribute 34, 0
  11              		.eabi_attribute 18, 4
  12              		.code	16
  13              		.file	"I2C_I2C.c"
  14              		.text
  15              	.Ltext0:
  16              		.cfi_sections	.debug_frame
  17              		.comm	I2C_state,1,1
  18              		.section	.text.I2C_I2CInit,"ax",%progbits
  19              		.align	2
  20              		.global	I2C_I2CInit
  21              		.code	16
  22              		.thumb_func
  23              		.type	I2C_I2CInit, %function
  24              	I2C_I2CInit:
  25              	.LFB0:
  26              		.file 1 ".\\Generated_Source\\PSoC4\\I2C_I2C.c"
   1:.\Generated_Source\PSoC4/I2C_I2C.c **** /*******************************************************************************
   2:.\Generated_Source\PSoC4/I2C_I2C.c **** * File Name: I2C_I2C.c
   3:.\Generated_Source\PSoC4/I2C_I2C.c **** * Version 1.10
   4:.\Generated_Source\PSoC4/I2C_I2C.c **** *
   5:.\Generated_Source\PSoC4/I2C_I2C.c **** * Description:
   6:.\Generated_Source\PSoC4/I2C_I2C.c **** *  This file provides the source code to the API for the SCB Component in
   7:.\Generated_Source\PSoC4/I2C_I2C.c **** *  I2C mode.
   8:.\Generated_Source\PSoC4/I2C_I2C.c **** *
   9:.\Generated_Source\PSoC4/I2C_I2C.c **** * Note:
  10:.\Generated_Source\PSoC4/I2C_I2C.c **** *
  11:.\Generated_Source\PSoC4/I2C_I2C.c **** *******************************************************************************
  12:.\Generated_Source\PSoC4/I2C_I2C.c **** * Copyright 2013, Cypress Semiconductor Corporation.  All rights reserved.
  13:.\Generated_Source\PSoC4/I2C_I2C.c **** * You may use this file only in accordance with the license, terms, conditions,
  14:.\Generated_Source\PSoC4/I2C_I2C.c **** * disclaimers, and limitations in the end user license agreement accompanying
  15:.\Generated_Source\PSoC4/I2C_I2C.c **** * the software package with which this file was provided.
  16:.\Generated_Source\PSoC4/I2C_I2C.c **** *******************************************************************************/
  17:.\Generated_Source\PSoC4/I2C_I2C.c **** 
  18:.\Generated_Source\PSoC4/I2C_I2C.c **** #include "I2C_PVT.h"
  19:.\Generated_Source\PSoC4/I2C_I2C.c **** #include "I2C_I2C_PVT.h"
  20:.\Generated_Source\PSoC4/I2C_I2C.c **** 
  21:.\Generated_Source\PSoC4/I2C_I2C.c **** 
  22:.\Generated_Source\PSoC4/I2C_I2C.c **** /***************************************
  23:.\Generated_Source\PSoC4/I2C_I2C.c **** *      I2C Private Vars
  24:.\Generated_Source\PSoC4/I2C_I2C.c **** ***************************************/
  25:.\Generated_Source\PSoC4/I2C_I2C.c **** 
  26:.\Generated_Source\PSoC4/I2C_I2C.c **** volatile uint8 I2C_state;  /* Current state of I2C FSM */
  27:.\Generated_Source\PSoC4/I2C_I2C.c **** 
  28:.\Generated_Source\PSoC4/I2C_I2C.c **** 
  29:.\Generated_Source\PSoC4/I2C_I2C.c **** #if(I2C_SCB_MODE_UNCONFIG_CONST_CFG)
  30:.\Generated_Source\PSoC4/I2C_I2C.c **** 
  31:.\Generated_Source\PSoC4/I2C_I2C.c ****     /***************************************
ARM GAS  C:\Users\Greg\AppData\Local\Temp\ccZMqq91.s 			page 2


  32:.\Generated_Source\PSoC4/I2C_I2C.c ****     *  Config Structure Initialization
  33:.\Generated_Source\PSoC4/I2C_I2C.c ****     ***************************************/
  34:.\Generated_Source\PSoC4/I2C_I2C.c **** 
  35:.\Generated_Source\PSoC4/I2C_I2C.c ****     /* Constant configuration of I2C */
  36:.\Generated_Source\PSoC4/I2C_I2C.c ****     const I2C_I2C_INIT_STRUCT I2C_configI2C =
  37:.\Generated_Source\PSoC4/I2C_I2C.c ****     {
  38:.\Generated_Source\PSoC4/I2C_I2C.c ****         I2C_I2C_MODE,
  39:.\Generated_Source\PSoC4/I2C_I2C.c ****         I2C_I2C_OVS_FACTOR_LOW,
  40:.\Generated_Source\PSoC4/I2C_I2C.c ****         I2C_I2C_OVS_FACTOR_HIGH,
  41:.\Generated_Source\PSoC4/I2C_I2C.c ****         I2C_I2C_MEDIAN_FILTER_ENABLE,
  42:.\Generated_Source\PSoC4/I2C_I2C.c ****         I2C_I2C_SLAVE_ADDRESS,
  43:.\Generated_Source\PSoC4/I2C_I2C.c ****         I2C_I2C_SLAVE_ADDRESS_MASK,
  44:.\Generated_Source\PSoC4/I2C_I2C.c ****         I2C_I2C_ACCEPT_ADDRESS,
  45:.\Generated_Source\PSoC4/I2C_I2C.c ****         I2C_I2C_WAKE_ENABLE
  46:.\Generated_Source\PSoC4/I2C_I2C.c ****     };
  47:.\Generated_Source\PSoC4/I2C_I2C.c **** 
  48:.\Generated_Source\PSoC4/I2C_I2C.c ****     /*******************************************************************************
  49:.\Generated_Source\PSoC4/I2C_I2C.c ****     * Function Name: I2C_I2CInit
  50:.\Generated_Source\PSoC4/I2C_I2C.c ****     ********************************************************************************
  51:.\Generated_Source\PSoC4/I2C_I2C.c ****     *
  52:.\Generated_Source\PSoC4/I2C_I2C.c ****     * Summary:
  53:.\Generated_Source\PSoC4/I2C_I2C.c ****     *  Configures the SCB for I2C operation.
  54:.\Generated_Source\PSoC4/I2C_I2C.c ****     *
  55:.\Generated_Source\PSoC4/I2C_I2C.c ****     * Parameters:
  56:.\Generated_Source\PSoC4/I2C_I2C.c ****     *  config:  Pointer to a structure that contains the following ordered list of
  57:.\Generated_Source\PSoC4/I2C_I2C.c ****     *           fields. These fields match the selections available in the
  58:.\Generated_Source\PSoC4/I2C_I2C.c ****     *           customizer.
  59:.\Generated_Source\PSoC4/I2C_I2C.c ****     *
  60:.\Generated_Source\PSoC4/I2C_I2C.c ****     * Return:
  61:.\Generated_Source\PSoC4/I2C_I2C.c ****     *  None
  62:.\Generated_Source\PSoC4/I2C_I2C.c ****     *
  63:.\Generated_Source\PSoC4/I2C_I2C.c ****     *******************************************************************************/
  64:.\Generated_Source\PSoC4/I2C_I2C.c ****     void I2C_I2CInit(const I2C_I2C_INIT_STRUCT *config)
  65:.\Generated_Source\PSoC4/I2C_I2C.c ****     {
  66:.\Generated_Source\PSoC4/I2C_I2C.c ****         if(NULL == config)
  67:.\Generated_Source\PSoC4/I2C_I2C.c ****         {
  68:.\Generated_Source\PSoC4/I2C_I2C.c ****             CYASSERT(0u != 0u); /* Halt execution due bad fucntion parameter */
  69:.\Generated_Source\PSoC4/I2C_I2C.c ****         }
  70:.\Generated_Source\PSoC4/I2C_I2C.c ****         else
  71:.\Generated_Source\PSoC4/I2C_I2C.c ****         {
  72:.\Generated_Source\PSoC4/I2C_I2C.c ****             /* Configure pins */
  73:.\Generated_Source\PSoC4/I2C_I2C.c ****             I2C_SetPins(I2C_SCB_MODE_I2C, I2C_DUMMY_PARAM,
  74:.\Generated_Source\PSoC4/I2C_I2C.c ****                                                                     I2C_DUMMY_PARAM);
  75:.\Generated_Source\PSoC4/I2C_I2C.c **** 
  76:.\Generated_Source\PSoC4/I2C_I2C.c ****             /* Store internal configuration */
  77:.\Generated_Source\PSoC4/I2C_I2C.c ****             I2C_scbMode       = (uint8) I2C_SCB_MODE_I2C;
  78:.\Generated_Source\PSoC4/I2C_I2C.c ****             I2C_scbEnableWake = (uint8) config->enableWake;
  79:.\Generated_Source\PSoC4/I2C_I2C.c ****             I2C_scbEnableIntr = (uint8) I2C_SCB_IRQ_INTERNAL;
  80:.\Generated_Source\PSoC4/I2C_I2C.c **** 
  81:.\Generated_Source\PSoC4/I2C_I2C.c ****             I2C_mode          = (uint8) config->mode;
  82:.\Generated_Source\PSoC4/I2C_I2C.c ****             I2C_acceptAddr    = (uint8) config->acceptAddr;
  83:.\Generated_Source\PSoC4/I2C_I2C.c **** 
  84:.\Generated_Source\PSoC4/I2C_I2C.c ****             /* Configure I2C interface */
  85:.\Generated_Source\PSoC4/I2C_I2C.c ****             I2C_CTRL_REG     = I2C_GET_CTRL_ADDR_ACCEPT(config->acceptAddr) |
  86:.\Generated_Source\PSoC4/I2C_I2C.c ****                                             I2C_GET_CTRL_EC_AM_MODE (config->enableWake);
  87:.\Generated_Source\PSoC4/I2C_I2C.c **** 
  88:.\Generated_Source\PSoC4/I2C_I2C.c ****             I2C_I2C_CTRL_REG = I2C_GET_I2C_CTRL_HIGH_PHASE_OVS(config->oversampleHigh) |
ARM GAS  C:\Users\Greg\AppData\Local\Temp\ccZMqq91.s 			page 3


  89:.\Generated_Source\PSoC4/I2C_I2C.c ****                                             I2C_GET_I2C_CTRL_LOW_PHASE_OVS (config->oversampleLow) 
  90:.\Generated_Source\PSoC4/I2C_I2C.c ****                                             I2C_GET_I2C_CTRL_SL_MSTR_MODE  (config->mode)          
  91:.\Generated_Source\PSoC4/I2C_I2C.c ****                                             I2C_I2C_CTRL;
  92:.\Generated_Source\PSoC4/I2C_I2C.c **** 
  93:.\Generated_Source\PSoC4/I2C_I2C.c ****             /* Adjust SDA filter settigns */
  94:.\Generated_Source\PSoC4/I2C_I2C.c ****             I2C_SET_I2C_CFG_SDA_FILT_TRIM(I2C_EC_AM_I2C_CFG_SDA_FILT_TRIM);
  95:.\Generated_Source\PSoC4/I2C_I2C.c **** 
  96:.\Generated_Source\PSoC4/I2C_I2C.c **** 
  97:.\Generated_Source\PSoC4/I2C_I2C.c ****             /* Configure RX direction */
  98:.\Generated_Source\PSoC4/I2C_I2C.c ****             I2C_RX_CTRL_REG      = I2C_GET_RX_CTRL_MEDIAN(config->enableMedianFilter) |
  99:.\Generated_Source\PSoC4/I2C_I2C.c ****                                                 I2C_I2C_RX_CTRL;
 100:.\Generated_Source\PSoC4/I2C_I2C.c ****             I2C_RX_FIFO_CTRL_REG = I2C_CLEAR_REG;
 101:.\Generated_Source\PSoC4/I2C_I2C.c **** 
 102:.\Generated_Source\PSoC4/I2C_I2C.c ****             /* Set default address and mask */
 103:.\Generated_Source\PSoC4/I2C_I2C.c ****             I2C_RX_MATCH_REG    = ((I2C_I2C_SLAVE) ?
 104:.\Generated_Source\PSoC4/I2C_I2C.c ****                                                 (I2C_GET_I2C_8BIT_ADDRESS(config->slaveAddr) |
 105:.\Generated_Source\PSoC4/I2C_I2C.c ****                                                  I2C_GET_RX_MATCH_MASK(config->slaveAddrMask)) :
 106:.\Generated_Source\PSoC4/I2C_I2C.c ****                                                 (I2C_CLEAR_REG));
 107:.\Generated_Source\PSoC4/I2C_I2C.c **** 
 108:.\Generated_Source\PSoC4/I2C_I2C.c **** 
 109:.\Generated_Source\PSoC4/I2C_I2C.c ****             /* Configure TX direction */
 110:.\Generated_Source\PSoC4/I2C_I2C.c ****             I2C_TX_CTRL_REG      = I2C_I2C_TX_CTRL;
 111:.\Generated_Source\PSoC4/I2C_I2C.c ****             I2C_TX_FIFO_CTRL_REG = I2C_CLEAR_REG;
 112:.\Generated_Source\PSoC4/I2C_I2C.c **** 
 113:.\Generated_Source\PSoC4/I2C_I2C.c ****             /* Configure interrupt with I2C handler */
 114:.\Generated_Source\PSoC4/I2C_I2C.c ****             I2C_SCB_IRQ_Disable();
 115:.\Generated_Source\PSoC4/I2C_I2C.c ****             I2C_SCB_IRQ_SetVector(&I2C_I2C_ISR);
 116:.\Generated_Source\PSoC4/I2C_I2C.c ****             I2C_SCB_IRQ_SetPriority((uint8)I2C_SCB_IRQ_INTC_PRIOR_NUMBER);
 117:.\Generated_Source\PSoC4/I2C_I2C.c **** 
 118:.\Generated_Source\PSoC4/I2C_I2C.c ****             
 119:.\Generated_Source\PSoC4/I2C_I2C.c ****             /* Configure interrupt sources */
 120:.\Generated_Source\PSoC4/I2C_I2C.c ****             I2C_INTR_I2C_EC_MASK_REG = I2C_NO_INTR_SOURCES;
 121:.\Generated_Source\PSoC4/I2C_I2C.c ****             I2C_INTR_SPI_EC_MASK_REG = I2C_NO_INTR_SOURCES;
 122:.\Generated_Source\PSoC4/I2C_I2C.c ****             I2C_INTR_RX_MASK_REG     = I2C_NO_INTR_SOURCES;
 123:.\Generated_Source\PSoC4/I2C_I2C.c ****             I2C_INTR_TX_MASK_REG     = I2C_NO_INTR_SOURCES;
 124:.\Generated_Source\PSoC4/I2C_I2C.c **** 
 125:.\Generated_Source\PSoC4/I2C_I2C.c ****             I2C_INTR_SLAVE_MASK_REG  = ((I2C_I2C_SLAVE) ?
 126:.\Generated_Source\PSoC4/I2C_I2C.c ****                                                      (I2C_I2C_INTR_SLAVE_MASK) :
 127:.\Generated_Source\PSoC4/I2C_I2C.c ****                                                      (I2C_CLEAR_REG));
 128:.\Generated_Source\PSoC4/I2C_I2C.c **** 
 129:.\Generated_Source\PSoC4/I2C_I2C.c ****             I2C_INTR_MASTER_MASK_REG = ((I2C_I2C_MASTER) ?
 130:.\Generated_Source\PSoC4/I2C_I2C.c ****                                                      (I2C_I2C_INTR_MASTER_MASK) :
 131:.\Generated_Source\PSoC4/I2C_I2C.c ****                                                      (I2C_CLEAR_REG));
 132:.\Generated_Source\PSoC4/I2C_I2C.c **** 
 133:.\Generated_Source\PSoC4/I2C_I2C.c ****             /* Configure global variables */
 134:.\Generated_Source\PSoC4/I2C_I2C.c ****             I2C_state = I2C_I2C_FSM_IDLE;
 135:.\Generated_Source\PSoC4/I2C_I2C.c **** 
 136:.\Generated_Source\PSoC4/I2C_I2C.c ****             /* Internal slave variable */
 137:.\Generated_Source\PSoC4/I2C_I2C.c ****             I2C_slStatus        = 0u;
 138:.\Generated_Source\PSoC4/I2C_I2C.c ****             I2C_slRdBufIndex    = 0u;
 139:.\Generated_Source\PSoC4/I2C_I2C.c ****             I2C_slWrBufIndex    = 0u;
 140:.\Generated_Source\PSoC4/I2C_I2C.c ****             I2C_slOverFlowCount = 0u;
 141:.\Generated_Source\PSoC4/I2C_I2C.c **** 
 142:.\Generated_Source\PSoC4/I2C_I2C.c ****             /* Internal master variable */
 143:.\Generated_Source\PSoC4/I2C_I2C.c ****             I2C_mstrStatus     = 0u;
 144:.\Generated_Source\PSoC4/I2C_I2C.c ****             I2C_mstrRdBufIndex = 0u;
 145:.\Generated_Source\PSoC4/I2C_I2C.c ****             I2C_mstrWrBufIndex = 0u;
ARM GAS  C:\Users\Greg\AppData\Local\Temp\ccZMqq91.s 			page 4


 146:.\Generated_Source\PSoC4/I2C_I2C.c ****         }
 147:.\Generated_Source\PSoC4/I2C_I2C.c ****     }
 148:.\Generated_Source\PSoC4/I2C_I2C.c **** 
 149:.\Generated_Source\PSoC4/I2C_I2C.c **** #else
 150:.\Generated_Source\PSoC4/I2C_I2C.c **** 
 151:.\Generated_Source\PSoC4/I2C_I2C.c ****     /*******************************************************************************
 152:.\Generated_Source\PSoC4/I2C_I2C.c ****     * Function Name: I2C_I2CInit
 153:.\Generated_Source\PSoC4/I2C_I2C.c ****     ********************************************************************************
 154:.\Generated_Source\PSoC4/I2C_I2C.c ****     *
 155:.\Generated_Source\PSoC4/I2C_I2C.c ****     * Summary:
 156:.\Generated_Source\PSoC4/I2C_I2C.c ****     *  Configures the SCB for I2C operation.
 157:.\Generated_Source\PSoC4/I2C_I2C.c ****     *
 158:.\Generated_Source\PSoC4/I2C_I2C.c ****     * Parameters:
 159:.\Generated_Source\PSoC4/I2C_I2C.c ****     *  None
 160:.\Generated_Source\PSoC4/I2C_I2C.c ****     *
 161:.\Generated_Source\PSoC4/I2C_I2C.c ****     * Return:
 162:.\Generated_Source\PSoC4/I2C_I2C.c ****     *  None
 163:.\Generated_Source\PSoC4/I2C_I2C.c ****     *
 164:.\Generated_Source\PSoC4/I2C_I2C.c ****     *******************************************************************************/
 165:.\Generated_Source\PSoC4/I2C_I2C.c ****     void I2C_I2CInit(void)
 166:.\Generated_Source\PSoC4/I2C_I2C.c ****     {
  27              		.loc 1 166 0
  28              		.cfi_startproc
  29 0000 80B5     		push	{r7, lr}
  30              	.LCFI0:
  31              		.cfi_def_cfa_offset 8
  32              		.cfi_offset 7, -8
  33              		.cfi_offset 14, -4
  34 0002 00AF     		add	r7, sp, #0
  35              	.LCFI1:
  36              		.cfi_def_cfa_register 7
 167:.\Generated_Source\PSoC4/I2C_I2C.c ****         /* Configure I2C interface */
 168:.\Generated_Source\PSoC4/I2C_I2C.c ****         I2C_CTRL_REG     = I2C_I2C_DEFAULT_CTRL;
  37              		.loc 1 168 0
  38 0004 214B     		ldr	r3, .L2
  39 0006 0022     		mov	r2, #0
  40 0008 1A60     		str	r2, [r3]
 169:.\Generated_Source\PSoC4/I2C_I2C.c ****         I2C_I2C_CTRL_REG = I2C_I2C_DEFAULT_I2C_CTRL;
  41              		.loc 1 169 0
  42 000a 214B     		ldr	r3, .L2+4
  43 000c 214A     		ldr	r2, .L2+8
  44 000e 1A60     		str	r2, [r3]
 170:.\Generated_Source\PSoC4/I2C_I2C.c **** 
 171:.\Generated_Source\PSoC4/I2C_I2C.c ****         /* Adjust SDA filter settigns */
 172:.\Generated_Source\PSoC4/I2C_I2C.c ****         I2C_SET_I2C_CFG_SDA_FILT_TRIM(I2C_EC_AM_I2C_CFG_SDA_FILT_TRIM);
  45              		.loc 1 172 0
  46 0010 214B     		ldr	r3, .L2+12
  47 0012 214A     		ldr	r2, .L2+12
  48 0014 1268     		ldr	r2, [r2]
  49 0016 0C21     		mov	r1, #12
  50 0018 0A43     		orr	r2, r1
  51 001a 1A60     		str	r2, [r3]
 173:.\Generated_Source\PSoC4/I2C_I2C.c **** 
 174:.\Generated_Source\PSoC4/I2C_I2C.c ****         /* Configure RX direction */
 175:.\Generated_Source\PSoC4/I2C_I2C.c ****         I2C_RX_CTRL_REG      = I2C_I2C_DEFAULT_RX_CTRL;
  52              		.loc 1 175 0
  53 001c 1F4B     		ldr	r3, .L2+16
ARM GAS  C:\Users\Greg\AppData\Local\Temp\ccZMqq91.s 			page 5


  54 001e 204A     		ldr	r2, .L2+20
  55 0020 1A60     		str	r2, [r3]
 176:.\Generated_Source\PSoC4/I2C_I2C.c ****         I2C_RX_FIFO_CTRL_REG = I2C_I2C_DEFAULT_RX_FIFO_CTRL;
  56              		.loc 1 176 0
  57 0022 204B     		ldr	r3, .L2+24
  58 0024 0022     		mov	r2, #0
  59 0026 1A60     		str	r2, [r3]
 177:.\Generated_Source\PSoC4/I2C_I2C.c **** 
 178:.\Generated_Source\PSoC4/I2C_I2C.c ****         /* Set default address and mask */
 179:.\Generated_Source\PSoC4/I2C_I2C.c ****         I2C_RX_MATCH_REG     = I2C_I2C_DEFAULT_RX_MATCH;
  60              		.loc 1 179 0
  61 0028 1F4B     		ldr	r3, .L2+28
  62 002a 0022     		mov	r2, #0
  63 002c 1A60     		str	r2, [r3]
 180:.\Generated_Source\PSoC4/I2C_I2C.c **** 
 181:.\Generated_Source\PSoC4/I2C_I2C.c ****         /* Configure TX direction */
 182:.\Generated_Source\PSoC4/I2C_I2C.c ****         I2C_TX_CTRL_REG      = I2C_I2C_DEFAULT_TX_CTRL;
  64              		.loc 1 182 0
  65 002e 1F4B     		ldr	r3, .L2+32
  66 0030 1F4A     		ldr	r2, .L2+36
  67 0032 1A60     		str	r2, [r3]
 183:.\Generated_Source\PSoC4/I2C_I2C.c ****         I2C_TX_FIFO_CTRL_REG = I2C_I2C_DEFAULT_TX_FIFO_CTRL;
  68              		.loc 1 183 0
  69 0034 1F4B     		ldr	r3, .L2+40
  70 0036 0022     		mov	r2, #0
  71 0038 1A60     		str	r2, [r3]
 184:.\Generated_Source\PSoC4/I2C_I2C.c **** 
 185:.\Generated_Source\PSoC4/I2C_I2C.c ****         /* Configure interrupt with I2C handler */
 186:.\Generated_Source\PSoC4/I2C_I2C.c ****         I2C_SCB_IRQ_Disable();
  72              		.loc 1 186 0
  73 003a FFF7FEFF 		bl	I2C_SCB_IRQ_Disable
 187:.\Generated_Source\PSoC4/I2C_I2C.c ****         I2C_SCB_IRQ_SetVector(&I2C_I2C_ISR);
  74              		.loc 1 187 0
  75 003e 1E4B     		ldr	r3, .L2+44
  76 0040 181C     		mov	r0, r3
  77 0042 FFF7FEFF 		bl	I2C_SCB_IRQ_SetVector
 188:.\Generated_Source\PSoC4/I2C_I2C.c ****         I2C_SCB_IRQ_SetPriority((uint8)I2C_SCB_IRQ_INTC_PRIOR_NUMBER);
  78              		.loc 1 188 0
  79 0046 0320     		mov	r0, #3
  80 0048 FFF7FEFF 		bl	I2C_SCB_IRQ_SetPriority
 189:.\Generated_Source\PSoC4/I2C_I2C.c ****         
 190:.\Generated_Source\PSoC4/I2C_I2C.c ****         /* Configure interrupt sources */
 191:.\Generated_Source\PSoC4/I2C_I2C.c ****         I2C_INTR_I2C_EC_MASK_REG = I2C_I2C_DEFAULT_INTR_I2C_EC_MASK;
  81              		.loc 1 191 0
  82 004c 1B4B     		ldr	r3, .L2+48
  83 004e 0022     		mov	r2, #0
  84 0050 1A60     		str	r2, [r3]
 192:.\Generated_Source\PSoC4/I2C_I2C.c ****         I2C_INTR_SPI_EC_MASK_REG = I2C_I2C_DEFAULT_INTR_SPI_EC_MASK;
  85              		.loc 1 192 0
  86 0052 1B4B     		ldr	r3, .L2+52
  87 0054 0022     		mov	r2, #0
  88 0056 1A60     		str	r2, [r3]
 193:.\Generated_Source\PSoC4/I2C_I2C.c ****         I2C_INTR_SLAVE_MASK_REG  = I2C_I2C_DEFAULT_INTR_SLAVE_MASK;
  89              		.loc 1 193 0
  90 0058 1A4B     		ldr	r3, .L2+56
  91 005a 0022     		mov	r2, #0
  92 005c 1A60     		str	r2, [r3]
ARM GAS  C:\Users\Greg\AppData\Local\Temp\ccZMqq91.s 			page 6


 194:.\Generated_Source\PSoC4/I2C_I2C.c ****         I2C_INTR_MASTER_MASK_REG = I2C_I2C_DEFAULT_INTR_MASTER_MASK;
  93              		.loc 1 194 0
  94 005e 1A4B     		ldr	r3, .L2+60
  95 0060 1A4A     		ldr	r2, .L2+64
  96 0062 1A60     		str	r2, [r3]
 195:.\Generated_Source\PSoC4/I2C_I2C.c ****         I2C_INTR_RX_MASK_REG     = I2C_I2C_DEFAULT_INTR_RX_MASK;
  97              		.loc 1 195 0
  98 0064 1A4B     		ldr	r3, .L2+68
  99 0066 0022     		mov	r2, #0
 100 0068 1A60     		str	r2, [r3]
 196:.\Generated_Source\PSoC4/I2C_I2C.c ****         I2C_INTR_TX_MASK_REG     = I2C_I2C_DEFAULT_INTR_TX_MASK;
 101              		.loc 1 196 0
 102 006a 1A4B     		ldr	r3, .L2+72
 103 006c 0022     		mov	r2, #0
 104 006e 1A60     		str	r2, [r3]
 197:.\Generated_Source\PSoC4/I2C_I2C.c **** 
 198:.\Generated_Source\PSoC4/I2C_I2C.c ****         /* Configure global variables */
 199:.\Generated_Source\PSoC4/I2C_I2C.c ****         I2C_state = I2C_I2C_FSM_IDLE;
 105              		.loc 1 199 0
 106 0070 194B     		ldr	r3, .L2+76
 107 0072 1022     		mov	r2, #16
 108 0074 1A70     		strb	r2, [r3]
 200:.\Generated_Source\PSoC4/I2C_I2C.c **** 
 201:.\Generated_Source\PSoC4/I2C_I2C.c ****         #if(I2C_I2C_SLAVE)
 202:.\Generated_Source\PSoC4/I2C_I2C.c ****             /* Internal slave variable */
 203:.\Generated_Source\PSoC4/I2C_I2C.c ****             I2C_slStatus        = 0u;
 204:.\Generated_Source\PSoC4/I2C_I2C.c ****             I2C_slRdBufIndex    = 0u;
 205:.\Generated_Source\PSoC4/I2C_I2C.c ****             I2C_slWrBufIndex    = 0u;
 206:.\Generated_Source\PSoC4/I2C_I2C.c ****             I2C_slOverFlowCount = 0u;
 207:.\Generated_Source\PSoC4/I2C_I2C.c ****         #endif /* (I2C_I2C_SLAVE) */
 208:.\Generated_Source\PSoC4/I2C_I2C.c **** 
 209:.\Generated_Source\PSoC4/I2C_I2C.c ****         #if(I2C_I2C_MASTER)
 210:.\Generated_Source\PSoC4/I2C_I2C.c ****         /* Internal master variable */
 211:.\Generated_Source\PSoC4/I2C_I2C.c ****             I2C_mstrStatus     = 0u;
 109              		.loc 1 211 0
 110 0076 194B     		ldr	r3, .L2+80
 111 0078 0022     		mov	r2, #0
 112 007a 1A80     		strh	r2, [r3]
 212:.\Generated_Source\PSoC4/I2C_I2C.c ****             I2C_mstrRdBufIndex = 0u;
 113              		.loc 1 212 0
 114 007c 184B     		ldr	r3, .L2+84
 115 007e 0022     		mov	r2, #0
 116 0080 1A60     		str	r2, [r3]
 213:.\Generated_Source\PSoC4/I2C_I2C.c ****             I2C_mstrWrBufIndex = 0u;
 117              		.loc 1 213 0
 118 0082 184B     		ldr	r3, .L2+88
 119 0084 0022     		mov	r2, #0
 120 0086 1A60     		str	r2, [r3]
 214:.\Generated_Source\PSoC4/I2C_I2C.c ****         #endif /* (I2C_I2C_MASTER) */
 215:.\Generated_Source\PSoC4/I2C_I2C.c ****     }
 121              		.loc 1 215 0
 122 0088 BD46     		mov	sp, r7
 123              		@ sp needed for prologue
 124 008a 80BD     		pop	{r7, pc}
 125              	.L3:
 126              		.align	2
 127              	.L2:
ARM GAS  C:\Users\Greg\AppData\Local\Temp\ccZMqq91.s 			page 7


 128 008c 00000740 		.word	1074200576
 129 0090 60000740 		.word	1074200672
 130 0094 77080080 		.word	-2147481481
 131 0098 70000740 		.word	1074200688
 132 009c 00030740 		.word	1074201344
 133 00a0 07030080 		.word	-2147482873
 134 00a4 04030740 		.word	1074201348
 135 00a8 10030740 		.word	1074201360
 136 00ac 00020740 		.word	1074201088
 137 00b0 07010080 		.word	-2147483385
 138 00b4 04020740 		.word	1074201092
 139 00b8 00000000 		.word	I2C_I2C_ISR
 140 00bc 880E0740 		.word	1074204296
 141 00c0 C80E0740 		.word	1074204360
 142 00c4 480F0740 		.word	1074204488
 143 00c8 080F0740 		.word	1074204424
 144 00cc 13010000 		.word	275
 145 00d0 C80F0740 		.word	1074204616
 146 00d4 880F0740 		.word	1074204552
 147 00d8 00000000 		.word	I2C_state
 148 00dc 00000000 		.word	I2C_mstrStatus
 149 00e0 00000000 		.word	I2C_mstrRdBufIndex
 150 00e4 00000000 		.word	I2C_mstrWrBufIndex
 151              		.cfi_endproc
 152              	.LFE0:
 153              		.size	I2C_I2CInit, .-I2C_I2CInit
 154              		.section	.text.I2C_I2CStop,"ax",%progbits
 155              		.align	2
 156              		.global	I2C_I2CStop
 157              		.code	16
 158              		.thumb_func
 159              		.type	I2C_I2CStop, %function
 160              	I2C_I2CStop:
 161              	.LFB1:
 216:.\Generated_Source\PSoC4/I2C_I2C.c **** #endif /* (I2C_SCB_MODE_UNCONFIG_CONST_CFG) */
 217:.\Generated_Source\PSoC4/I2C_I2C.c **** 
 218:.\Generated_Source\PSoC4/I2C_I2C.c **** 
 219:.\Generated_Source\PSoC4/I2C_I2C.c **** /*******************************************************************************
 220:.\Generated_Source\PSoC4/I2C_I2C.c **** * Function Name: I2C_I2CStop
 221:.\Generated_Source\PSoC4/I2C_I2C.c **** ********************************************************************************
 222:.\Generated_Source\PSoC4/I2C_I2C.c **** *
 223:.\Generated_Source\PSoC4/I2C_I2C.c **** * Summary:
 224:.\Generated_Source\PSoC4/I2C_I2C.c **** *  Initializes I2C registers with initial values provided from customizer.
 225:.\Generated_Source\PSoC4/I2C_I2C.c **** *
 226:.\Generated_Source\PSoC4/I2C_I2C.c **** * Parameters:
 227:.\Generated_Source\PSoC4/I2C_I2C.c **** *  None
 228:.\Generated_Source\PSoC4/I2C_I2C.c **** *
 229:.\Generated_Source\PSoC4/I2C_I2C.c **** * Return:
 230:.\Generated_Source\PSoC4/I2C_I2C.c **** *  None
 231:.\Generated_Source\PSoC4/I2C_I2C.c **** *
 232:.\Generated_Source\PSoC4/I2C_I2C.c **** * Global variables:
 233:.\Generated_Source\PSoC4/I2C_I2C.c **** *
 234:.\Generated_Source\PSoC4/I2C_I2C.c **** *
 235:.\Generated_Source\PSoC4/I2C_I2C.c **** *******************************************************************************/
 236:.\Generated_Source\PSoC4/I2C_I2C.c **** void I2C_I2CStop(void)
 237:.\Generated_Source\PSoC4/I2C_I2C.c **** {
 162              		.loc 1 237 0
ARM GAS  C:\Users\Greg\AppData\Local\Temp\ccZMqq91.s 			page 8


 163              		.cfi_startproc
 164 0000 80B5     		push	{r7, lr}
 165              	.LCFI2:
 166              		.cfi_def_cfa_offset 8
 167              		.cfi_offset 7, -8
 168              		.cfi_offset 14, -4
 169 0002 00AF     		add	r7, sp, #0
 170              	.LCFI3:
 171              		.cfi_def_cfa_register 7
 238:.\Generated_Source\PSoC4/I2C_I2C.c ****     I2C_state = I2C_I2C_FSM_IDLE;
 172              		.loc 1 238 0
 173 0004 024B     		ldr	r3, .L5
 174 0006 1022     		mov	r2, #16
 175 0008 1A70     		strb	r2, [r3]
 239:.\Generated_Source\PSoC4/I2C_I2C.c **** }
 176              		.loc 1 239 0
 177 000a BD46     		mov	sp, r7
 178              		@ sp needed for prologue
 179 000c 80BD     		pop	{r7, pc}
 180              	.L6:
 181 000e C046     		.align	2
 182              	.L5:
 183 0010 00000000 		.word	I2C_state
 184              		.cfi_endproc
 185              	.LFE1:
 186              		.size	I2C_I2CStop, .-I2C_I2CStop
 187              		.text
 188              	.Letext0:
 189              		.file 2 ".\\Generated_Source\\PSoC4\\cytypes.h"
 190              		.file 3 ".\\Generated_Source\\PSoC4\\I2C_I2C_PVT.h"