ARM GAS  C:\Users\Greg\AppData\Local\Temp\cc3ry5m8.s 			page 1


   1              		.cpu cortex-m0
   2              		.fpu softvfp
   3              		.eabi_attribute 20, 1
   4              		.eabi_attribute 21, 1
   5              		.eabi_attribute 23, 3
   6              		.eabi_attribute 24, 1
   7              		.eabi_attribute 25, 1
   8              		.eabi_attribute 26, 1
   9              		.eabi_attribute 30, 6
  10              		.eabi_attribute 34, 0
  11              		.eabi_attribute 18, 4
  12              		.code	16
  13              		.file	"LCD_LCDPort.c"
  14              		.text
  15              	.Ltext0:
  16              		.cfi_sections	.debug_frame
  17              		.section	.text.LCD_LCDPort_Write,"ax",%progbits
  18              		.align	2
  19              		.global	LCD_LCDPort_Write
  20              		.code	16
  21              		.thumb_func
  22              		.type	LCD_LCDPort_Write, %function
  23              	LCD_LCDPort_Write:
  24              	.LFB0:
  25              		.file 1 ".\\Generated_Source\\PSoC4\\LCD_LCDPort.c"
   1:.\Generated_Source\PSoC4/LCD_LCDPort.c **** /*******************************************************************************
   2:.\Generated_Source\PSoC4/LCD_LCDPort.c **** * File Name: LCD_LCDPort.c  
   3:.\Generated_Source\PSoC4/LCD_LCDPort.c **** * Version 1.90
   4:.\Generated_Source\PSoC4/LCD_LCDPort.c **** *
   5:.\Generated_Source\PSoC4/LCD_LCDPort.c **** * Description:
   6:.\Generated_Source\PSoC4/LCD_LCDPort.c **** *  This file contains API to enable firmware control of a Pins component.
   7:.\Generated_Source\PSoC4/LCD_LCDPort.c **** *
   8:.\Generated_Source\PSoC4/LCD_LCDPort.c **** * Note:
   9:.\Generated_Source\PSoC4/LCD_LCDPort.c **** *
  10:.\Generated_Source\PSoC4/LCD_LCDPort.c **** ********************************************************************************
  11:.\Generated_Source\PSoC4/LCD_LCDPort.c **** * Copyright 2008-2012, Cypress Semiconductor Corporation.  All rights reserved.
  12:.\Generated_Source\PSoC4/LCD_LCDPort.c **** * You may use this file only in accordance with the license, terms, conditions, 
  13:.\Generated_Source\PSoC4/LCD_LCDPort.c **** * disclaimers, and limitations in the end user license agreement accompanying 
  14:.\Generated_Source\PSoC4/LCD_LCDPort.c **** * the software package with which this file was provided.
  15:.\Generated_Source\PSoC4/LCD_LCDPort.c **** *******************************************************************************/
  16:.\Generated_Source\PSoC4/LCD_LCDPort.c **** 
  17:.\Generated_Source\PSoC4/LCD_LCDPort.c **** #include "cytypes.h"
  18:.\Generated_Source\PSoC4/LCD_LCDPort.c **** #include "LCD_LCDPort.h"
  19:.\Generated_Source\PSoC4/LCD_LCDPort.c **** 
  20:.\Generated_Source\PSoC4/LCD_LCDPort.c **** #define SetP4PinDriveMode(shift, mode)  \
  21:.\Generated_Source\PSoC4/LCD_LCDPort.c ****     do { \
  22:.\Generated_Source\PSoC4/LCD_LCDPort.c ****         LCD_LCDPort_PC =   (LCD_LCDPort_PC & \
  23:.\Generated_Source\PSoC4/LCD_LCDPort.c ****                                 (uint32)(~(uint32)(LCD_LCDPort_DRIVE_MODE_IND_MASK << (LCD_LCDPort_
  24:.\Generated_Source\PSoC4/LCD_LCDPort.c ****                                 (uint32)((uint32)(mode) << (LCD_LCDPort_DRIVE_MODE_BITS * (shift)))
  25:.\Generated_Source\PSoC4/LCD_LCDPort.c ****     } while (0)
  26:.\Generated_Source\PSoC4/LCD_LCDPort.c **** 
  27:.\Generated_Source\PSoC4/LCD_LCDPort.c **** 
  28:.\Generated_Source\PSoC4/LCD_LCDPort.c **** /*******************************************************************************
  29:.\Generated_Source\PSoC4/LCD_LCDPort.c **** * Function Name: LCD_LCDPort_Write
  30:.\Generated_Source\PSoC4/LCD_LCDPort.c **** ********************************************************************************
  31:.\Generated_Source\PSoC4/LCD_LCDPort.c **** *
  32:.\Generated_Source\PSoC4/LCD_LCDPort.c **** * Summary:
ARM GAS  C:\Users\Greg\AppData\Local\Temp\cc3ry5m8.s 			page 2


  33:.\Generated_Source\PSoC4/LCD_LCDPort.c **** *  Assign a new value to the digital port's data output register.  
  34:.\Generated_Source\PSoC4/LCD_LCDPort.c **** *
  35:.\Generated_Source\PSoC4/LCD_LCDPort.c **** * Parameters:  
  36:.\Generated_Source\PSoC4/LCD_LCDPort.c **** *  prtValue:  The value to be assigned to the Digital Port. 
  37:.\Generated_Source\PSoC4/LCD_LCDPort.c **** *
  38:.\Generated_Source\PSoC4/LCD_LCDPort.c **** * Return: 
  39:.\Generated_Source\PSoC4/LCD_LCDPort.c **** *  None 
  40:.\Generated_Source\PSoC4/LCD_LCDPort.c **** *  
  41:.\Generated_Source\PSoC4/LCD_LCDPort.c **** *******************************************************************************/
  42:.\Generated_Source\PSoC4/LCD_LCDPort.c **** void LCD_LCDPort_Write(uint8 value) 
  43:.\Generated_Source\PSoC4/LCD_LCDPort.c **** {
  26              		.loc 1 43 0
  27              		.cfi_startproc
  28 0000 80B5     		push	{r7, lr}
  29              	.LCFI0:
  30              		.cfi_def_cfa_offset 8
  31              		.cfi_offset 7, -8
  32              		.cfi_offset 14, -4
  33 0002 84B0     		sub	sp, sp, #16
  34              	.LCFI1:
  35              		.cfi_def_cfa_offset 24
  36 0004 00AF     		add	r7, sp, #0
  37              	.LCFI2:
  38              		.cfi_def_cfa_register 7
  39 0006 021C     		mov	r2, r0
  40 0008 FB1D     		add	r3, r7, #7
  41 000a 1A70     		strb	r2, [r3]
  44:.\Generated_Source\PSoC4/LCD_LCDPort.c ****     uint8 drVal = (uint8)(LCD_LCDPort_DR & (uint8)(~LCD_LCDPort_MASK));
  42              		.loc 1 44 0
  43 000c 0D4B     		ldr	r3, .L2
  44 000e 1B68     		ldr	r3, [r3]
  45 0010 DAB2     		uxtb	r2, r3
  46 0012 3B1C     		mov	r3, r7
  47 0014 0F33     		add	r3, r3, #15
  48 0016 7F21     		mov	r1, #127
  49 0018 8A43     		bic	r2, r1
  50 001a 1A70     		strb	r2, [r3]
  45:.\Generated_Source\PSoC4/LCD_LCDPort.c ****     drVal = (drVal | ((uint8)(value << LCD_LCDPort_SHIFT) & LCD_LCDPort_MASK));
  51              		.loc 1 45 0
  52 001c FB1D     		add	r3, r7, #7
  53 001e 1A78     		ldrb	r2, [r3]
  54 0020 7F23     		mov	r3, #127
  55 0022 1340     		and	r3, r2
  56 0024 D9B2     		uxtb	r1, r3
  57 0026 3B1C     		mov	r3, r7
  58 0028 0F33     		add	r3, r3, #15
  59 002a 3A1C     		mov	r2, r7
  60 002c 0F32     		add	r2, r2, #15
  61 002e 1278     		ldrb	r2, [r2]
  62 0030 0A43     		orr	r2, r1
  63 0032 1A70     		strb	r2, [r3]
  46:.\Generated_Source\PSoC4/LCD_LCDPort.c ****     LCD_LCDPort_DR = (uint32)drVal;
  64              		.loc 1 46 0
  65 0034 034B     		ldr	r3, .L2
  66 0036 3A1C     		mov	r2, r7
  67 0038 0F32     		add	r2, r2, #15
  68 003a 1278     		ldrb	r2, [r2]
ARM GAS  C:\Users\Greg\AppData\Local\Temp\cc3ry5m8.s 			page 3


  69 003c 1A60     		str	r2, [r3]
  47:.\Generated_Source\PSoC4/LCD_LCDPort.c **** }
  70              		.loc 1 47 0
  71 003e BD46     		mov	sp, r7
  72 0040 04B0     		add	sp, sp, #16
  73              		@ sp needed for prologue
  74 0042 80BD     		pop	{r7, pc}
  75              	.L3:
  76              		.align	2
  77              	.L2:
  78 0044 00020440 		.word	1074004480
  79              		.cfi_endproc
  80              	.LFE0:
  81              		.size	LCD_LCDPort_Write, .-LCD_LCDPort_Write
  82              		.section	.text.LCD_LCDPort_SetDriveMode,"ax",%progbits
  83              		.align	2
  84              		.global	LCD_LCDPort_SetDriveMode
  85              		.code	16
  86              		.thumb_func
  87              		.type	LCD_LCDPort_SetDriveMode, %function
  88              	LCD_LCDPort_SetDriveMode:
  89              	.LFB1:
  48:.\Generated_Source\PSoC4/LCD_LCDPort.c **** 
  49:.\Generated_Source\PSoC4/LCD_LCDPort.c **** 
  50:.\Generated_Source\PSoC4/LCD_LCDPort.c **** /*******************************************************************************
  51:.\Generated_Source\PSoC4/LCD_LCDPort.c **** * Function Name: LCD_LCDPort_SetDriveMode
  52:.\Generated_Source\PSoC4/LCD_LCDPort.c **** ********************************************************************************
  53:.\Generated_Source\PSoC4/LCD_LCDPort.c **** *
  54:.\Generated_Source\PSoC4/LCD_LCDPort.c **** * Summary:
  55:.\Generated_Source\PSoC4/LCD_LCDPort.c **** *  Change the drive mode on the pins of the port.
  56:.\Generated_Source\PSoC4/LCD_LCDPort.c **** * 
  57:.\Generated_Source\PSoC4/LCD_LCDPort.c **** * Parameters:  
  58:.\Generated_Source\PSoC4/LCD_LCDPort.c **** *  mode:  Change the pins to this drive mode.
  59:.\Generated_Source\PSoC4/LCD_LCDPort.c **** *
  60:.\Generated_Source\PSoC4/LCD_LCDPort.c **** * Return: 
  61:.\Generated_Source\PSoC4/LCD_LCDPort.c **** *  None
  62:.\Generated_Source\PSoC4/LCD_LCDPort.c **** *
  63:.\Generated_Source\PSoC4/LCD_LCDPort.c **** *******************************************************************************/
  64:.\Generated_Source\PSoC4/LCD_LCDPort.c **** void LCD_LCDPort_SetDriveMode(uint8 mode) 
  65:.\Generated_Source\PSoC4/LCD_LCDPort.c **** {
  90              		.loc 1 65 0
  91              		.cfi_startproc
  92 0000 80B5     		push	{r7, lr}
  93              	.LCFI3:
  94              		.cfi_def_cfa_offset 8
  95              		.cfi_offset 7, -8
  96              		.cfi_offset 14, -4
  97 0002 82B0     		sub	sp, sp, #8
  98              	.LCFI4:
  99              		.cfi_def_cfa_offset 16
 100 0004 00AF     		add	r7, sp, #0
 101              	.LCFI5:
 102              		.cfi_def_cfa_register 7
 103 0006 021C     		mov	r2, r0
 104 0008 FB1D     		add	r3, r7, #7
 105 000a 1A70     		strb	r2, [r3]
  66:.\Generated_Source\PSoC4/LCD_LCDPort.c **** 	SetP4PinDriveMode(LCD_LCDPort__0__SHIFT, mode);
ARM GAS  C:\Users\Greg\AppData\Local\Temp\cc3ry5m8.s 			page 4


 106              		.loc 1 66 0
 107 000c 254B     		ldr	r3, .L5
 108 000e 254A     		ldr	r2, .L5
 109 0010 1268     		ldr	r2, [r2]
 110 0012 0721     		mov	r1, #7
 111 0014 101C     		mov	r0, r2
 112 0016 8843     		bic	r0, r1
 113 0018 011C     		mov	r1, r0
 114 001a FA1D     		add	r2, r7, #7
 115 001c 1278     		ldrb	r2, [r2]
 116 001e 0A43     		orr	r2, r1
 117 0020 1A60     		str	r2, [r3]
  67:.\Generated_Source\PSoC4/LCD_LCDPort.c **** 	SetP4PinDriveMode(LCD_LCDPort__1__SHIFT, mode);
 118              		.loc 1 67 0
 119 0022 204B     		ldr	r3, .L5
 120 0024 1F4A     		ldr	r2, .L5
 121 0026 1268     		ldr	r2, [r2]
 122 0028 3821     		mov	r1, #56
 123 002a 101C     		mov	r0, r2
 124 002c 8843     		bic	r0, r1
 125 002e 011C     		mov	r1, r0
 126 0030 FA1D     		add	r2, r7, #7
 127 0032 1278     		ldrb	r2, [r2]
 128 0034 D200     		lsl	r2, r2, #3
 129 0036 0A43     		orr	r2, r1
 130 0038 1A60     		str	r2, [r3]
  68:.\Generated_Source\PSoC4/LCD_LCDPort.c **** 	SetP4PinDriveMode(LCD_LCDPort__2__SHIFT, mode);
 131              		.loc 1 68 0
 132 003a 1A4B     		ldr	r3, .L5
 133 003c 194A     		ldr	r2, .L5
 134 003e 1168     		ldr	r1, [r2]
 135 0040 194A     		ldr	r2, .L5+4
 136 0042 1140     		and	r1, r2
 137 0044 FA1D     		add	r2, r7, #7
 138 0046 1278     		ldrb	r2, [r2]
 139 0048 9201     		lsl	r2, r2, #6
 140 004a 0A43     		orr	r2, r1
 141 004c 1A60     		str	r2, [r3]
  69:.\Generated_Source\PSoC4/LCD_LCDPort.c **** 	SetP4PinDriveMode(LCD_LCDPort__3__SHIFT, mode);
 142              		.loc 1 69 0
 143 004e 154B     		ldr	r3, .L5
 144 0050 144A     		ldr	r2, .L5
 145 0052 1168     		ldr	r1, [r2]
 146 0054 154A     		ldr	r2, .L5+8
 147 0056 1140     		and	r1, r2
 148 0058 FA1D     		add	r2, r7, #7
 149 005a 1278     		ldrb	r2, [r2]
 150 005c 5202     		lsl	r2, r2, #9
 151 005e 0A43     		orr	r2, r1
 152 0060 1A60     		str	r2, [r3]
  70:.\Generated_Source\PSoC4/LCD_LCDPort.c **** 	SetP4PinDriveMode(LCD_LCDPort__4__SHIFT, mode);
 153              		.loc 1 70 0
 154 0062 104B     		ldr	r3, .L5
 155 0064 0F4A     		ldr	r2, .L5
 156 0066 1168     		ldr	r1, [r2]
 157 0068 114A     		ldr	r2, .L5+12
 158 006a 1140     		and	r1, r2
ARM GAS  C:\Users\Greg\AppData\Local\Temp\cc3ry5m8.s 			page 5


 159 006c FA1D     		add	r2, r7, #7
 160 006e 1278     		ldrb	r2, [r2]
 161 0070 1203     		lsl	r2, r2, #12
 162 0072 0A43     		orr	r2, r1
 163 0074 1A60     		str	r2, [r3]
  71:.\Generated_Source\PSoC4/LCD_LCDPort.c **** 	SetP4PinDriveMode(LCD_LCDPort__5__SHIFT, mode);
 164              		.loc 1 71 0
 165 0076 0B4B     		ldr	r3, .L5
 166 0078 0A4A     		ldr	r2, .L5
 167 007a 1168     		ldr	r1, [r2]
 168 007c 0D4A     		ldr	r2, .L5+16
 169 007e 1140     		and	r1, r2
 170 0080 FA1D     		add	r2, r7, #7
 171 0082 1278     		ldrb	r2, [r2]
 172 0084 D203     		lsl	r2, r2, #15
 173 0086 0A43     		orr	r2, r1
 174 0088 1A60     		str	r2, [r3]
  72:.\Generated_Source\PSoC4/LCD_LCDPort.c **** 	SetP4PinDriveMode(LCD_LCDPort__6__SHIFT, mode);
 175              		.loc 1 72 0
 176 008a 064B     		ldr	r3, .L5
 177 008c 054A     		ldr	r2, .L5
 178 008e 1168     		ldr	r1, [r2]
 179 0090 094A     		ldr	r2, .L5+20
 180 0092 1140     		and	r1, r2
 181 0094 FA1D     		add	r2, r7, #7
 182 0096 1278     		ldrb	r2, [r2]
 183 0098 9204     		lsl	r2, r2, #18
 184 009a 0A43     		orr	r2, r1
 185 009c 1A60     		str	r2, [r3]
  73:.\Generated_Source\PSoC4/LCD_LCDPort.c **** }
 186              		.loc 1 73 0
 187 009e BD46     		mov	sp, r7
 188 00a0 02B0     		add	sp, sp, #8
 189              		@ sp needed for prologue
 190 00a2 80BD     		pop	{r7, pc}
 191              	.L6:
 192              		.align	2
 193              	.L5:
 194 00a4 08020440 		.word	1074004488
 195 00a8 3FFEFFFF 		.word	-449
 196 00ac FFF1FFFF 		.word	-3585
 197 00b0 FF8FFFFF 		.word	-28673
 198 00b4 FF7FFCFF 		.word	-229377
 199 00b8 FFFFE3FF 		.word	-1835009
 200              		.cfi_endproc
 201              	.LFE1:
 202              		.size	LCD_LCDPort_SetDriveMode, .-LCD_LCDPort_SetDriveMode
 203              		.section	.text.LCD_LCDPort_Read,"ax",%progbits
 204              		.align	2
 205              		.global	LCD_LCDPort_Read
 206              		.code	16
 207              		.thumb_func
 208              		.type	LCD_LCDPort_Read, %function
 209              	LCD_LCDPort_Read:
 210              	.LFB2:
  74:.\Generated_Source\PSoC4/LCD_LCDPort.c **** 
  75:.\Generated_Source\PSoC4/LCD_LCDPort.c **** 
ARM GAS  C:\Users\Greg\AppData\Local\Temp\cc3ry5m8.s 			page 6


  76:.\Generated_Source\PSoC4/LCD_LCDPort.c **** /*******************************************************************************
  77:.\Generated_Source\PSoC4/LCD_LCDPort.c **** * Function Name: LCD_LCDPort_Read
  78:.\Generated_Source\PSoC4/LCD_LCDPort.c **** ********************************************************************************
  79:.\Generated_Source\PSoC4/LCD_LCDPort.c **** *
  80:.\Generated_Source\PSoC4/LCD_LCDPort.c **** * Summary:
  81:.\Generated_Source\PSoC4/LCD_LCDPort.c **** *  Read the current value on the pins of the Digital Port in right justified 
  82:.\Generated_Source\PSoC4/LCD_LCDPort.c **** *  form.
  83:.\Generated_Source\PSoC4/LCD_LCDPort.c **** *
  84:.\Generated_Source\PSoC4/LCD_LCDPort.c **** * Parameters:  
  85:.\Generated_Source\PSoC4/LCD_LCDPort.c **** *  None 
  86:.\Generated_Source\PSoC4/LCD_LCDPort.c **** *
  87:.\Generated_Source\PSoC4/LCD_LCDPort.c **** * Return: 
  88:.\Generated_Source\PSoC4/LCD_LCDPort.c **** *  Returns the current value of the Digital Port as a right justified number
  89:.\Generated_Source\PSoC4/LCD_LCDPort.c **** *  
  90:.\Generated_Source\PSoC4/LCD_LCDPort.c **** * Note:
  91:.\Generated_Source\PSoC4/LCD_LCDPort.c **** *  Macro LCD_LCDPort_ReadPS calls this function. 
  92:.\Generated_Source\PSoC4/LCD_LCDPort.c **** *  
  93:.\Generated_Source\PSoC4/LCD_LCDPort.c **** *******************************************************************************/
  94:.\Generated_Source\PSoC4/LCD_LCDPort.c **** uint8 LCD_LCDPort_Read(void) 
  95:.\Generated_Source\PSoC4/LCD_LCDPort.c **** {
 211              		.loc 1 95 0
 212              		.cfi_startproc
 213 0000 80B5     		push	{r7, lr}
 214              	.LCFI6:
 215              		.cfi_def_cfa_offset 8
 216              		.cfi_offset 7, -8
 217              		.cfi_offset 14, -4
 218 0002 00AF     		add	r7, sp, #0
 219              	.LCFI7:
 220              		.cfi_def_cfa_register 7
  96:.\Generated_Source\PSoC4/LCD_LCDPort.c ****     return (uint8)((LCD_LCDPort_PS & LCD_LCDPort_MASK) >> LCD_LCDPort_SHIFT);
 221              		.loc 1 96 0
 222 0004 044B     		ldr	r3, .L9
 223 0006 1B68     		ldr	r3, [r3]
 224 0008 DAB2     		uxtb	r2, r3
 225 000a 7F23     		mov	r3, #127
 226 000c 1340     		and	r3, r2
 227 000e DBB2     		uxtb	r3, r3
  97:.\Generated_Source\PSoC4/LCD_LCDPort.c **** }
 228              		.loc 1 97 0
 229 0010 181C     		mov	r0, r3
 230 0012 BD46     		mov	sp, r7
 231              		@ sp needed for prologue
 232 0014 80BD     		pop	{r7, pc}
 233              	.L10:
 234 0016 C046     		.align	2
 235              	.L9:
 236 0018 04020440 		.word	1074004484
 237              		.cfi_endproc
 238              	.LFE2:
 239              		.size	LCD_LCDPort_Read, .-LCD_LCDPort_Read
 240              		.section	.text.LCD_LCDPort_ReadDataReg,"ax",%progbits
 241              		.align	2
 242              		.global	LCD_LCDPort_ReadDataReg
 243              		.code	16
 244              		.thumb_func
 245              		.type	LCD_LCDPort_ReadDataReg, %function
ARM GAS  C:\Users\Greg\AppData\Local\Temp\cc3ry5m8.s 			page 7


 246              	LCD_LCDPort_ReadDataReg:
 247              	.LFB3:
  98:.\Generated_Source\PSoC4/LCD_LCDPort.c **** 
  99:.\Generated_Source\PSoC4/LCD_LCDPort.c **** 
 100:.\Generated_Source\PSoC4/LCD_LCDPort.c **** /*******************************************************************************
 101:.\Generated_Source\PSoC4/LCD_LCDPort.c **** * Function Name: LCD_LCDPort_ReadDataReg
 102:.\Generated_Source\PSoC4/LCD_LCDPort.c **** ********************************************************************************
 103:.\Generated_Source\PSoC4/LCD_LCDPort.c **** *
 104:.\Generated_Source\PSoC4/LCD_LCDPort.c **** * Summary:
 105:.\Generated_Source\PSoC4/LCD_LCDPort.c **** *  Read the current value assigned to a Digital Port's data output register
 106:.\Generated_Source\PSoC4/LCD_LCDPort.c **** *
 107:.\Generated_Source\PSoC4/LCD_LCDPort.c **** * Parameters:  
 108:.\Generated_Source\PSoC4/LCD_LCDPort.c **** *  None 
 109:.\Generated_Source\PSoC4/LCD_LCDPort.c **** *
 110:.\Generated_Source\PSoC4/LCD_LCDPort.c **** * Return: 
 111:.\Generated_Source\PSoC4/LCD_LCDPort.c **** *  Returns the current value assigned to the Digital Port's data output register
 112:.\Generated_Source\PSoC4/LCD_LCDPort.c **** *  
 113:.\Generated_Source\PSoC4/LCD_LCDPort.c **** *******************************************************************************/
 114:.\Generated_Source\PSoC4/LCD_LCDPort.c **** uint8 LCD_LCDPort_ReadDataReg(void) 
 115:.\Generated_Source\PSoC4/LCD_LCDPort.c **** {
 248              		.loc 1 115 0
 249              		.cfi_startproc
 250 0000 80B5     		push	{r7, lr}
 251              	.LCFI8:
 252              		.cfi_def_cfa_offset 8
 253              		.cfi_offset 7, -8
 254              		.cfi_offset 14, -4
 255 0002 00AF     		add	r7, sp, #0
 256              	.LCFI9:
 257              		.cfi_def_cfa_register 7
 116:.\Generated_Source\PSoC4/LCD_LCDPort.c ****     return (uint8)((LCD_LCDPort_DR & LCD_LCDPort_MASK) >> LCD_LCDPort_SHIFT);
 258              		.loc 1 116 0
 259 0004 044B     		ldr	r3, .L13
 260 0006 1B68     		ldr	r3, [r3]
 261 0008 DAB2     		uxtb	r2, r3
 262 000a 7F23     		mov	r3, #127
 263 000c 1340     		and	r3, r2
 264 000e DBB2     		uxtb	r3, r3
 117:.\Generated_Source\PSoC4/LCD_LCDPort.c **** }
 265              		.loc 1 117 0
 266 0010 181C     		mov	r0, r3
 267 0012 BD46     		mov	sp, r7
 268              		@ sp needed for prologue
 269 0014 80BD     		pop	{r7, pc}
 270              	.L14:
 271 0016 C046     		.align	2
 272              	.L13:
 273 0018 00020440 		.word	1074004480
 274              		.cfi_endproc
 275              	.LFE3:
 276              		.size	LCD_LCDPort_ReadDataReg, .-LCD_LCDPort_ReadDataReg
 277              		.section	.text.LCD_LCDPort_ClearInterrupt,"ax",%progbits
 278              		.align	2
 279              		.global	LCD_LCDPort_ClearInterrupt
 280              		.code	16
 281              		.thumb_func
 282              		.type	LCD_LCDPort_ClearInterrupt, %function
ARM GAS  C:\Users\Greg\AppData\Local\Temp\cc3ry5m8.s 			page 8


 283              	LCD_LCDPort_ClearInterrupt:
 284              	.LFB4:
 118:.\Generated_Source\PSoC4/LCD_LCDPort.c **** 
 119:.\Generated_Source\PSoC4/LCD_LCDPort.c **** 
 120:.\Generated_Source\PSoC4/LCD_LCDPort.c **** /* If Interrupts Are Enabled for this Pins component */ 
 121:.\Generated_Source\PSoC4/LCD_LCDPort.c **** #if defined(LCD_LCDPort_INTSTAT) 
 122:.\Generated_Source\PSoC4/LCD_LCDPort.c **** 
 123:.\Generated_Source\PSoC4/LCD_LCDPort.c ****     /*******************************************************************************
 124:.\Generated_Source\PSoC4/LCD_LCDPort.c ****     * Function Name: LCD_LCDPort_ClearInterrupt
 125:.\Generated_Source\PSoC4/LCD_LCDPort.c ****     ********************************************************************************
 126:.\Generated_Source\PSoC4/LCD_LCDPort.c ****     *
 127:.\Generated_Source\PSoC4/LCD_LCDPort.c ****     * Summary:
 128:.\Generated_Source\PSoC4/LCD_LCDPort.c ****     *  Clears any active interrupts attached to port and returns the value of the 
 129:.\Generated_Source\PSoC4/LCD_LCDPort.c ****     *  interrupt status register.
 130:.\Generated_Source\PSoC4/LCD_LCDPort.c ****     *
 131:.\Generated_Source\PSoC4/LCD_LCDPort.c ****     * Parameters:  
 132:.\Generated_Source\PSoC4/LCD_LCDPort.c ****     *  None 
 133:.\Generated_Source\PSoC4/LCD_LCDPort.c ****     *
 134:.\Generated_Source\PSoC4/LCD_LCDPort.c ****     * Return: 
 135:.\Generated_Source\PSoC4/LCD_LCDPort.c ****     *  Returns the value of the interrupt status register
 136:.\Generated_Source\PSoC4/LCD_LCDPort.c ****     *  
 137:.\Generated_Source\PSoC4/LCD_LCDPort.c ****     *******************************************************************************/
 138:.\Generated_Source\PSoC4/LCD_LCDPort.c ****     uint8 LCD_LCDPort_ClearInterrupt(void) 
 139:.\Generated_Source\PSoC4/LCD_LCDPort.c ****     {
 285              		.loc 1 139 0
 286              		.cfi_startproc
 287 0000 80B5     		push	{r7, lr}
 288              	.LCFI10:
 289              		.cfi_def_cfa_offset 8
 290              		.cfi_offset 7, -8
 291              		.cfi_offset 14, -4
 292 0002 82B0     		sub	sp, sp, #8
 293              	.LCFI11:
 294              		.cfi_def_cfa_offset 16
 295 0004 00AF     		add	r7, sp, #0
 296              	.LCFI12:
 297              		.cfi_def_cfa_register 7
 140:.\Generated_Source\PSoC4/LCD_LCDPort.c **** 		uint8 maskedStatus = (uint8)(LCD_LCDPort_INTSTAT & LCD_LCDPort_MASK);
 298              		.loc 1 140 0
 299 0006 084B     		ldr	r3, .L17
 300 0008 1B68     		ldr	r3, [r3]
 301 000a D9B2     		uxtb	r1, r3
 302 000c FB1D     		add	r3, r7, #7
 303 000e 7F22     		mov	r2, #127
 304 0010 0A40     		and	r2, r1
 305 0012 1A70     		strb	r2, [r3]
 141:.\Generated_Source\PSoC4/LCD_LCDPort.c **** 		LCD_LCDPort_INTSTAT = maskedStatus;
 306              		.loc 1 141 0
 307 0014 044B     		ldr	r3, .L17
 308 0016 FA1D     		add	r2, r7, #7
 309 0018 1278     		ldrb	r2, [r2]
 310 001a 1A60     		str	r2, [r3]
 142:.\Generated_Source\PSoC4/LCD_LCDPort.c ****         return maskedStatus >> LCD_LCDPort_SHIFT;
 311              		.loc 1 142 0
 312 001c FB1D     		add	r3, r7, #7
 313 001e 1B78     		ldrb	r3, [r3]
 143:.\Generated_Source\PSoC4/LCD_LCDPort.c ****     }
ARM GAS  C:\Users\Greg\AppData\Local\Temp\cc3ry5m8.s 			page 9


 314              		.loc 1 143 0
 315 0020 181C     		mov	r0, r3
 316 0022 BD46     		mov	sp, r7
 317 0024 02B0     		add	sp, sp, #8
 318              		@ sp needed for prologue
 319 0026 80BD     		pop	{r7, pc}
 320              	.L18:
 321              		.align	2
 322              	.L17:
 323 0028 10020440 		.word	1074004496
 324              		.cfi_endproc
 325              	.LFE4:
 326              		.size	LCD_LCDPort_ClearInterrupt, .-LCD_LCDPort_ClearInterrupt
 327              		.text
 328              	.Letext0:
 329              		.file 2 ".\\Generated_Source\\PSoC4\\cytypes.h"