ARM GAS  C:\Users\Greg\AppData\Local\Temp\ccZpG0Zr.s 			page 1


   1              		.cpu cortex-m0
   2              		.fpu softvfp
   3              		.eabi_attribute 20, 1
   4              		.eabi_attribute 21, 1
   5              		.eabi_attribute 23, 3
   6              		.eabi_attribute 24, 1
   7              		.eabi_attribute 25, 1
   8              		.eabi_attribute 26, 1
   9              		.eabi_attribute 30, 6
  10              		.eabi_attribute 34, 0
  11              		.eabi_attribute 18, 4
  12              		.code	16
  13              		.file	"EZI2C_PM.c"
  14              		.text
  15              	.Ltext0:
  16              		.cfi_sections	.debug_frame
  17              		.section	.text.EZI2C_Sleep,"ax",%progbits
  18              		.align	2
  19              		.global	EZI2C_Sleep
  20              		.code	16
  21              		.thumb_func
  22              		.type	EZI2C_Sleep, %function
  23              	EZI2C_Sleep:
  24              	.LFB0:
  25              		.file 1 ".\\Generated_Source\\PSoC4\\EZI2C_PM.c"
   1:.\Generated_Source\PSoC4/EZI2C_PM.c **** /*******************************************************************************
   2:.\Generated_Source\PSoC4/EZI2C_PM.c **** * File Name: EZI2C_PM.c
   3:.\Generated_Source\PSoC4/EZI2C_PM.c **** * Version 1.20
   4:.\Generated_Source\PSoC4/EZI2C_PM.c **** *
   5:.\Generated_Source\PSoC4/EZI2C_PM.c **** * Description:
   6:.\Generated_Source\PSoC4/EZI2C_PM.c **** *  This file provides the source code to the Power Management support for
   7:.\Generated_Source\PSoC4/EZI2C_PM.c **** *  the SCB Component.
   8:.\Generated_Source\PSoC4/EZI2C_PM.c **** *
   9:.\Generated_Source\PSoC4/EZI2C_PM.c **** * Note:
  10:.\Generated_Source\PSoC4/EZI2C_PM.c **** *
  11:.\Generated_Source\PSoC4/EZI2C_PM.c **** ********************************************************************************
  12:.\Generated_Source\PSoC4/EZI2C_PM.c **** * Copyright 2013-2014, Cypress Semiconductor Corporation.  All rights reserved.
  13:.\Generated_Source\PSoC4/EZI2C_PM.c **** * You may use this file only in accordance with the license, terms, conditions,
  14:.\Generated_Source\PSoC4/EZI2C_PM.c **** * disclaimers, and limitations in the end user license agreement accompanying
  15:.\Generated_Source\PSoC4/EZI2C_PM.c **** * the software package with which this file was provided.
  16:.\Generated_Source\PSoC4/EZI2C_PM.c **** *******************************************************************************/
  17:.\Generated_Source\PSoC4/EZI2C_PM.c **** 
  18:.\Generated_Source\PSoC4/EZI2C_PM.c **** #include "EZI2C.h"
  19:.\Generated_Source\PSoC4/EZI2C_PM.c **** #include "EZI2C_PVT.h"
  20:.\Generated_Source\PSoC4/EZI2C_PM.c **** 
  21:.\Generated_Source\PSoC4/EZI2C_PM.c **** #if(EZI2C_SCB_MODE_I2C_INC)
  22:.\Generated_Source\PSoC4/EZI2C_PM.c ****     #include "EZI2C_I2C_PVT.h"
  23:.\Generated_Source\PSoC4/EZI2C_PM.c **** #endif /* (EZI2C_SCB_MODE_I2C_INC) */
  24:.\Generated_Source\PSoC4/EZI2C_PM.c **** 
  25:.\Generated_Source\PSoC4/EZI2C_PM.c **** #if(EZI2C_SCB_MODE_EZI2C_INC)
  26:.\Generated_Source\PSoC4/EZI2C_PM.c ****     #include "EZI2C_EZI2C_PVT.h"
  27:.\Generated_Source\PSoC4/EZI2C_PM.c **** #endif /* (EZI2C_SCB_MODE_EZI2C_INC) */
  28:.\Generated_Source\PSoC4/EZI2C_PM.c **** 
  29:.\Generated_Source\PSoC4/EZI2C_PM.c **** #if(EZI2C_SCB_MODE_SPI_INC || EZI2C_SCB_MODE_UART_INC)
  30:.\Generated_Source\PSoC4/EZI2C_PM.c ****     #include "EZI2C_SPI_UART_PVT.h"
  31:.\Generated_Source\PSoC4/EZI2C_PM.c **** #endif /* (EZI2C_SCB_MODE_SPI_INC || EZI2C_SCB_MODE_UART_INC) */
  32:.\Generated_Source\PSoC4/EZI2C_PM.c **** 
ARM GAS  C:\Users\Greg\AppData\Local\Temp\ccZpG0Zr.s 			page 2


  33:.\Generated_Source\PSoC4/EZI2C_PM.c **** 
  34:.\Generated_Source\PSoC4/EZI2C_PM.c **** /***************************************
  35:.\Generated_Source\PSoC4/EZI2C_PM.c **** *   Backup Structure declaration
  36:.\Generated_Source\PSoC4/EZI2C_PM.c **** ***************************************/
  37:.\Generated_Source\PSoC4/EZI2C_PM.c **** 
  38:.\Generated_Source\PSoC4/EZI2C_PM.c **** #if(EZI2C_SCB_MODE_UNCONFIG_CONST_CFG || \
  39:.\Generated_Source\PSoC4/EZI2C_PM.c ****    (EZI2C_SCB_MODE_I2C_CONST_CFG   && (!EZI2C_I2C_WAKE_ENABLE_CONST))   || \
  40:.\Generated_Source\PSoC4/EZI2C_PM.c ****    (EZI2C_SCB_MODE_EZI2C_CONST_CFG && (!EZI2C_EZI2C_WAKE_ENABLE_CONST)) || \
  41:.\Generated_Source\PSoC4/EZI2C_PM.c ****    (EZI2C_SCB_MODE_SPI_CONST_CFG   && (!EZI2C_SPI_WAKE_ENABLE_CONST))   || \
  42:.\Generated_Source\PSoC4/EZI2C_PM.c ****    (EZI2C_SCB_MODE_UART_CONST_CFG  && (!EZI2C_UART_WAKE_ENABLE_CONST)))
  43:.\Generated_Source\PSoC4/EZI2C_PM.c **** 
  44:.\Generated_Source\PSoC4/EZI2C_PM.c ****     EZI2C_BACKUP_STRUCT EZI2C_backup =
  45:.\Generated_Source\PSoC4/EZI2C_PM.c ****     {
  46:.\Generated_Source\PSoC4/EZI2C_PM.c ****         0u, /* enableState */
  47:.\Generated_Source\PSoC4/EZI2C_PM.c ****     };
  48:.\Generated_Source\PSoC4/EZI2C_PM.c **** #endif
  49:.\Generated_Source\PSoC4/EZI2C_PM.c **** 
  50:.\Generated_Source\PSoC4/EZI2C_PM.c **** 
  51:.\Generated_Source\PSoC4/EZI2C_PM.c **** /*******************************************************************************
  52:.\Generated_Source\PSoC4/EZI2C_PM.c **** * Function Name: EZI2C_Sleep
  53:.\Generated_Source\PSoC4/EZI2C_PM.c **** ********************************************************************************
  54:.\Generated_Source\PSoC4/EZI2C_PM.c **** *
  55:.\Generated_Source\PSoC4/EZI2C_PM.c **** * Summary:
  56:.\Generated_Source\PSoC4/EZI2C_PM.c **** *  Prepares the component to enter Deep Sleep.
  57:.\Generated_Source\PSoC4/EZI2C_PM.c **** *  The “Enable wakeup from Sleep Mode” selection has an influence on
  58:.\Generated_Source\PSoC4/EZI2C_PM.c **** *  this function implementation.
  59:.\Generated_Source\PSoC4/EZI2C_PM.c **** *
  60:.\Generated_Source\PSoC4/EZI2C_PM.c **** * Parameters:
  61:.\Generated_Source\PSoC4/EZI2C_PM.c **** *  None
  62:.\Generated_Source\PSoC4/EZI2C_PM.c **** *
  63:.\Generated_Source\PSoC4/EZI2C_PM.c **** * Return:
  64:.\Generated_Source\PSoC4/EZI2C_PM.c **** *  None
  65:.\Generated_Source\PSoC4/EZI2C_PM.c **** *
  66:.\Generated_Source\PSoC4/EZI2C_PM.c **** *******************************************************************************/
  67:.\Generated_Source\PSoC4/EZI2C_PM.c **** void EZI2C_Sleep(void)
  68:.\Generated_Source\PSoC4/EZI2C_PM.c **** {
  26              		.loc 1 68 0
  27              		.cfi_startproc
  28 0000 80B5     		push	{r7, lr}
  29              	.LCFI0:
  30              		.cfi_def_cfa_offset 8
  31              		.cfi_offset 7, -8
  32              		.cfi_offset 14, -4
  33 0002 00AF     		add	r7, sp, #0
  34              	.LCFI1:
  35              		.cfi_def_cfa_register 7
  69:.\Generated_Source\PSoC4/EZI2C_PM.c **** #if(EZI2C_SCB_MODE_UNCONFIG_CONST_CFG)
  70:.\Generated_Source\PSoC4/EZI2C_PM.c **** 
  71:.\Generated_Source\PSoC4/EZI2C_PM.c ****     if(EZI2C_SCB_WAKE_ENABLE_CHECK)
  72:.\Generated_Source\PSoC4/EZI2C_PM.c ****     {
  73:.\Generated_Source\PSoC4/EZI2C_PM.c ****         if(EZI2C_SCB_MODE_I2C_RUNTM_CFG)
  74:.\Generated_Source\PSoC4/EZI2C_PM.c ****         {
  75:.\Generated_Source\PSoC4/EZI2C_PM.c ****             EZI2C_I2CSaveConfig();
  76:.\Generated_Source\PSoC4/EZI2C_PM.c ****         }
  77:.\Generated_Source\PSoC4/EZI2C_PM.c ****         else if(EZI2C_SCB_MODE_EZI2C_RUNTM_CFG)
  78:.\Generated_Source\PSoC4/EZI2C_PM.c ****         {
  79:.\Generated_Source\PSoC4/EZI2C_PM.c ****             EZI2C_EzI2CSaveConfig();
ARM GAS  C:\Users\Greg\AppData\Local\Temp\ccZpG0Zr.s 			page 3


  80:.\Generated_Source\PSoC4/EZI2C_PM.c ****         }
  81:.\Generated_Source\PSoC4/EZI2C_PM.c ****     #if(!EZI2C_CY_SCBIP_V1_I2C_ONLY)
  82:.\Generated_Source\PSoC4/EZI2C_PM.c ****         else if(EZI2C_SCB_MODE_SPI_RUNTM_CFG)
  83:.\Generated_Source\PSoC4/EZI2C_PM.c ****         {
  84:.\Generated_Source\PSoC4/EZI2C_PM.c ****             EZI2C_SpiSaveConfig();
  85:.\Generated_Source\PSoC4/EZI2C_PM.c ****         }
  86:.\Generated_Source\PSoC4/EZI2C_PM.c ****         else if(EZI2C_SCB_MODE_UART_RUNTM_CFG)
  87:.\Generated_Source\PSoC4/EZI2C_PM.c ****         {
  88:.\Generated_Source\PSoC4/EZI2C_PM.c ****             EZI2C_UartSaveConfig();
  89:.\Generated_Source\PSoC4/EZI2C_PM.c ****         }
  90:.\Generated_Source\PSoC4/EZI2C_PM.c ****     #endif /* (!EZI2C_CY_SCBIP_V1_I2C_ONLY) */
  91:.\Generated_Source\PSoC4/EZI2C_PM.c ****         else
  92:.\Generated_Source\PSoC4/EZI2C_PM.c ****         {
  93:.\Generated_Source\PSoC4/EZI2C_PM.c ****             /* Unknown mode: do nothing */
  94:.\Generated_Source\PSoC4/EZI2C_PM.c ****         }
  95:.\Generated_Source\PSoC4/EZI2C_PM.c ****     }
  96:.\Generated_Source\PSoC4/EZI2C_PM.c ****     else
  97:.\Generated_Source\PSoC4/EZI2C_PM.c ****     {
  98:.\Generated_Source\PSoC4/EZI2C_PM.c ****         EZI2C_backup.enableState = (uint8) EZI2C_GET_CTRL_ENABLED;
  99:.\Generated_Source\PSoC4/EZI2C_PM.c **** 
 100:.\Generated_Source\PSoC4/EZI2C_PM.c ****         if(0u != EZI2C_backup.enableState)
 101:.\Generated_Source\PSoC4/EZI2C_PM.c ****         {
 102:.\Generated_Source\PSoC4/EZI2C_PM.c ****             EZI2C_Stop();
 103:.\Generated_Source\PSoC4/EZI2C_PM.c ****         }
 104:.\Generated_Source\PSoC4/EZI2C_PM.c ****     }
 105:.\Generated_Source\PSoC4/EZI2C_PM.c **** 
 106:.\Generated_Source\PSoC4/EZI2C_PM.c **** #else
 107:.\Generated_Source\PSoC4/EZI2C_PM.c **** 
 108:.\Generated_Source\PSoC4/EZI2C_PM.c ****     #if (EZI2C_SCB_MODE_I2C_CONST_CFG && EZI2C_I2C_WAKE_ENABLE_CONST)
 109:.\Generated_Source\PSoC4/EZI2C_PM.c ****         EZI2C_I2CSaveConfig();
 110:.\Generated_Source\PSoC4/EZI2C_PM.c **** 
 111:.\Generated_Source\PSoC4/EZI2C_PM.c ****     #elif (EZI2C_SCB_MODE_EZI2C_CONST_CFG && EZI2C_EZI2C_WAKE_ENABLE_CONST)
 112:.\Generated_Source\PSoC4/EZI2C_PM.c ****         EZI2C_EzI2CSaveConfig();
  36              		.loc 1 112 0
  37 0004 FFF7FEFF 		bl	EZI2C_EzI2CSaveConfig
 113:.\Generated_Source\PSoC4/EZI2C_PM.c **** 
 114:.\Generated_Source\PSoC4/EZI2C_PM.c ****     #elif (EZI2C_SCB_MODE_SPI_CONST_CFG && EZI2C_SPI_WAKE_ENABLE_CONST)
 115:.\Generated_Source\PSoC4/EZI2C_PM.c ****         EZI2C_SpiSaveConfig();
 116:.\Generated_Source\PSoC4/EZI2C_PM.c **** 
 117:.\Generated_Source\PSoC4/EZI2C_PM.c ****     #elif (EZI2C_SCB_MODE_UART_CONST_CFG && EZI2C_UART_WAKE_ENABLE_CONST)
 118:.\Generated_Source\PSoC4/EZI2C_PM.c ****         EZI2C_UartSaveConfig();
 119:.\Generated_Source\PSoC4/EZI2C_PM.c **** 
 120:.\Generated_Source\PSoC4/EZI2C_PM.c ****     #else
 121:.\Generated_Source\PSoC4/EZI2C_PM.c **** 
 122:.\Generated_Source\PSoC4/EZI2C_PM.c ****         EZI2C_backup.enableState = (uint8) EZI2C_GET_CTRL_ENABLED;
 123:.\Generated_Source\PSoC4/EZI2C_PM.c **** 
 124:.\Generated_Source\PSoC4/EZI2C_PM.c ****         if(0u != EZI2C_backup.enableState)
 125:.\Generated_Source\PSoC4/EZI2C_PM.c ****         {
 126:.\Generated_Source\PSoC4/EZI2C_PM.c ****             EZI2C_Stop();
 127:.\Generated_Source\PSoC4/EZI2C_PM.c ****         }
 128:.\Generated_Source\PSoC4/EZI2C_PM.c **** 
 129:.\Generated_Source\PSoC4/EZI2C_PM.c ****     #endif /* defined (EZI2C_SCB_MODE_I2C_CONST_CFG) && (EZI2C_I2C_WAKE_ENABLE_CONST) */
 130:.\Generated_Source\PSoC4/EZI2C_PM.c **** 
 131:.\Generated_Source\PSoC4/EZI2C_PM.c **** #endif /* (EZI2C_SCB_MODE_UNCONFIG_CONST_CFG) */
 132:.\Generated_Source\PSoC4/EZI2C_PM.c **** }
  38              		.loc 1 132 0
  39 0008 BD46     		mov	sp, r7
ARM GAS  C:\Users\Greg\AppData\Local\Temp\ccZpG0Zr.s 			page 4


  40              		@ sp needed for prologue
  41 000a 80BD     		pop	{r7, pc}
  42              		.cfi_endproc
  43              	.LFE0:
  44              		.size	EZI2C_Sleep, .-EZI2C_Sleep
  45              		.section	.text.EZI2C_Wakeup,"ax",%progbits
  46              		.align	2
  47              		.global	EZI2C_Wakeup
  48              		.code	16
  49              		.thumb_func
  50              		.type	EZI2C_Wakeup, %function
  51              	EZI2C_Wakeup:
  52              	.LFB1:
 133:.\Generated_Source\PSoC4/EZI2C_PM.c **** 
 134:.\Generated_Source\PSoC4/EZI2C_PM.c **** 
 135:.\Generated_Source\PSoC4/EZI2C_PM.c **** /*******************************************************************************
 136:.\Generated_Source\PSoC4/EZI2C_PM.c **** * Function Name: EZI2C_Wakeup
 137:.\Generated_Source\PSoC4/EZI2C_PM.c **** ********************************************************************************
 138:.\Generated_Source\PSoC4/EZI2C_PM.c **** *
 139:.\Generated_Source\PSoC4/EZI2C_PM.c **** * Summary:
 140:.\Generated_Source\PSoC4/EZI2C_PM.c **** *  Prepares the component for the Active mode operation after exiting Deep Sleep.
 141:.\Generated_Source\PSoC4/EZI2C_PM.c **** *  The “Enable wakeup from Sleep Mode” option has an influence on this function
 142:.\Generated_Source\PSoC4/EZI2C_PM.c **** *  implementation.
 143:.\Generated_Source\PSoC4/EZI2C_PM.c **** *  This function should not be called after exiting Sleep.
 144:.\Generated_Source\PSoC4/EZI2C_PM.c **** *
 145:.\Generated_Source\PSoC4/EZI2C_PM.c **** * Parameters:
 146:.\Generated_Source\PSoC4/EZI2C_PM.c **** *  None
 147:.\Generated_Source\PSoC4/EZI2C_PM.c **** *
 148:.\Generated_Source\PSoC4/EZI2C_PM.c **** * Return:
 149:.\Generated_Source\PSoC4/EZI2C_PM.c **** *  None
 150:.\Generated_Source\PSoC4/EZI2C_PM.c **** *
 151:.\Generated_Source\PSoC4/EZI2C_PM.c **** *******************************************************************************/
 152:.\Generated_Source\PSoC4/EZI2C_PM.c **** void EZI2C_Wakeup(void)
 153:.\Generated_Source\PSoC4/EZI2C_PM.c **** {
  53              		.loc 1 153 0
  54              		.cfi_startproc
  55 0000 80B5     		push	{r7, lr}
  56              	.LCFI2:
  57              		.cfi_def_cfa_offset 8
  58              		.cfi_offset 7, -8
  59              		.cfi_offset 14, -4
  60 0002 00AF     		add	r7, sp, #0
  61              	.LCFI3:
  62              		.cfi_def_cfa_register 7
 154:.\Generated_Source\PSoC4/EZI2C_PM.c **** #if(EZI2C_SCB_MODE_UNCONFIG_CONST_CFG)
 155:.\Generated_Source\PSoC4/EZI2C_PM.c **** 
 156:.\Generated_Source\PSoC4/EZI2C_PM.c ****     if(EZI2C_SCB_WAKE_ENABLE_CHECK)
 157:.\Generated_Source\PSoC4/EZI2C_PM.c ****     {
 158:.\Generated_Source\PSoC4/EZI2C_PM.c ****         if(EZI2C_SCB_MODE_I2C_RUNTM_CFG)
 159:.\Generated_Source\PSoC4/EZI2C_PM.c ****         {
 160:.\Generated_Source\PSoC4/EZI2C_PM.c ****             EZI2C_I2CRestoreConfig();
 161:.\Generated_Source\PSoC4/EZI2C_PM.c ****         }
 162:.\Generated_Source\PSoC4/EZI2C_PM.c ****         else if(EZI2C_SCB_MODE_EZI2C_RUNTM_CFG)
 163:.\Generated_Source\PSoC4/EZI2C_PM.c ****         {
 164:.\Generated_Source\PSoC4/EZI2C_PM.c ****             EZI2C_EzI2CRestoreConfig();
 165:.\Generated_Source\PSoC4/EZI2C_PM.c ****         }
 166:.\Generated_Source\PSoC4/EZI2C_PM.c ****     #if(!EZI2C_CY_SCBIP_V1_I2C_ONLY)
ARM GAS  C:\Users\Greg\AppData\Local\Temp\ccZpG0Zr.s 			page 5


 167:.\Generated_Source\PSoC4/EZI2C_PM.c ****         else if(EZI2C_SCB_MODE_SPI_RUNTM_CFG)
 168:.\Generated_Source\PSoC4/EZI2C_PM.c ****         {
 169:.\Generated_Source\PSoC4/EZI2C_PM.c ****             EZI2C_SpiRestoreConfig();
 170:.\Generated_Source\PSoC4/EZI2C_PM.c ****         }
 171:.\Generated_Source\PSoC4/EZI2C_PM.c ****         else if(EZI2C_SCB_MODE_UART_RUNTM_CFG)
 172:.\Generated_Source\PSoC4/EZI2C_PM.c ****         {
 173:.\Generated_Source\PSoC4/EZI2C_PM.c ****             EZI2C_UartRestoreConfig();
 174:.\Generated_Source\PSoC4/EZI2C_PM.c ****         }
 175:.\Generated_Source\PSoC4/EZI2C_PM.c ****     #endif /* (!EZI2C_CY_SCBIP_V1_I2C_ONLY) */
 176:.\Generated_Source\PSoC4/EZI2C_PM.c ****         else
 177:.\Generated_Source\PSoC4/EZI2C_PM.c ****         {
 178:.\Generated_Source\PSoC4/EZI2C_PM.c ****             /* Unknown mode: do nothing */
 179:.\Generated_Source\PSoC4/EZI2C_PM.c ****         }
 180:.\Generated_Source\PSoC4/EZI2C_PM.c ****     }
 181:.\Generated_Source\PSoC4/EZI2C_PM.c ****     else
 182:.\Generated_Source\PSoC4/EZI2C_PM.c ****     {
 183:.\Generated_Source\PSoC4/EZI2C_PM.c ****         if(0u != EZI2C_backup.enableState)
 184:.\Generated_Source\PSoC4/EZI2C_PM.c ****         {
 185:.\Generated_Source\PSoC4/EZI2C_PM.c ****             EZI2C_Enable();
 186:.\Generated_Source\PSoC4/EZI2C_PM.c ****         }
 187:.\Generated_Source\PSoC4/EZI2C_PM.c ****     }
 188:.\Generated_Source\PSoC4/EZI2C_PM.c **** 
 189:.\Generated_Source\PSoC4/EZI2C_PM.c **** #else
 190:.\Generated_Source\PSoC4/EZI2C_PM.c **** 
 191:.\Generated_Source\PSoC4/EZI2C_PM.c ****     #if (EZI2C_SCB_MODE_I2C_CONST_CFG  && EZI2C_I2C_WAKE_ENABLE_CONST)
 192:.\Generated_Source\PSoC4/EZI2C_PM.c ****         EZI2C_I2CRestoreConfig();
 193:.\Generated_Source\PSoC4/EZI2C_PM.c **** 
 194:.\Generated_Source\PSoC4/EZI2C_PM.c ****     #elif (EZI2C_SCB_MODE_EZI2C_CONST_CFG && EZI2C_EZI2C_WAKE_ENABLE_CONST)
 195:.\Generated_Source\PSoC4/EZI2C_PM.c ****         EZI2C_EzI2CRestoreConfig();
  63              		.loc 1 195 0
  64 0004 FFF7FEFF 		bl	EZI2C_EzI2CRestoreConfig
 196:.\Generated_Source\PSoC4/EZI2C_PM.c **** 
 197:.\Generated_Source\PSoC4/EZI2C_PM.c ****     #elif (EZI2C_SCB_MODE_SPI_CONST_CFG && EZI2C_SPI_WAKE_ENABLE_CONST)
 198:.\Generated_Source\PSoC4/EZI2C_PM.c ****         EZI2C_SpiRestoreConfig();
 199:.\Generated_Source\PSoC4/EZI2C_PM.c **** 
 200:.\Generated_Source\PSoC4/EZI2C_PM.c ****     #elif (EZI2C_SCB_MODE_UART_CONST_CFG && EZI2C_UART_WAKE_ENABLE_CONST)
 201:.\Generated_Source\PSoC4/EZI2C_PM.c ****         EZI2C_UartRestoreConfig();
 202:.\Generated_Source\PSoC4/EZI2C_PM.c **** 
 203:.\Generated_Source\PSoC4/EZI2C_PM.c ****     #else
 204:.\Generated_Source\PSoC4/EZI2C_PM.c **** 
 205:.\Generated_Source\PSoC4/EZI2C_PM.c ****         if(0u != EZI2C_backup.enableState)
 206:.\Generated_Source\PSoC4/EZI2C_PM.c ****         {
 207:.\Generated_Source\PSoC4/EZI2C_PM.c ****             EZI2C_Enable();
 208:.\Generated_Source\PSoC4/EZI2C_PM.c ****         }
 209:.\Generated_Source\PSoC4/EZI2C_PM.c **** 
 210:.\Generated_Source\PSoC4/EZI2C_PM.c ****     #endif /* (EZI2C_I2C_WAKE_ENABLE_CONST) */
 211:.\Generated_Source\PSoC4/EZI2C_PM.c **** 
 212:.\Generated_Source\PSoC4/EZI2C_PM.c **** #endif /* (EZI2C_SCB_MODE_UNCONFIG_CONST_CFG) */
 213:.\Generated_Source\PSoC4/EZI2C_PM.c **** }
  65              		.loc 1 213 0
  66 0008 BD46     		mov	sp, r7
  67              		@ sp needed for prologue
  68 000a 80BD     		pop	{r7, pc}
  69              		.cfi_endproc
  70              	.LFE1:
  71              		.size	EZI2C_Wakeup, .-EZI2C_Wakeup
  72              		.text
ARM GAS  C:\Users\Greg\AppData\Local\Temp\ccZpG0Zr.s 			page 6


  73              	.Letext0: