ARM GAS  C:\Users\Greg\AppData\Local\Temp\ccXQPDCP.s 			page 1


   1              		.cpu cortex-m0
   2              		.fpu softvfp
   3              		.eabi_attribute 20, 1
   4              		.eabi_attribute 21, 1
   5              		.eabi_attribute 23, 3
   6              		.eabi_attribute 24, 1
   7              		.eabi_attribute 25, 1
   8              		.eabi_attribute 26, 1
   9              		.eabi_attribute 30, 6
  10              		.eabi_attribute 34, 0
  11              		.eabi_attribute 18, 4
  12              		.code	16
  13              		.file	"EZI2C_EZI2C.c"
  14              		.text
  15              	.Ltext0:
  16              		.cfi_sections	.debug_frame
  17              		.comm	EZI2C_curStatus,1,1
  18              		.comm	EZI2C_fsmState,1,1
  19              		.comm	EZI2C_dataBuffer1,4,4
  20              		.comm	EZI2C_bufSizeBuf1,2,2
  21              		.comm	EZI2C_protectBuf1,2,2
  22              		.comm	EZI2C_offsetBuf1,1,1
  23              		.comm	EZI2C_indexBuf1,2,2
  24              		.section	.text.EZI2C_EzI2CInit,"ax",%progbits
  25              		.align	2
  26              		.global	EZI2C_EzI2CInit
  27              		.code	16
  28              		.thumb_func
  29              		.type	EZI2C_EzI2CInit, %function
  30              	EZI2C_EzI2CInit:
  31              	.LFB0:
  32              		.file 1 ".\\Generated_Source\\PSoC4\\EZI2C_EZI2C.c"
   1:.\Generated_Source\PSoC4/EZI2C_EZI2C.c **** /*******************************************************************************
   2:.\Generated_Source\PSoC4/EZI2C_EZI2C.c **** * File Name: EZI2C_EZI2C.c
   3:.\Generated_Source\PSoC4/EZI2C_EZI2C.c **** * Version 1.20
   4:.\Generated_Source\PSoC4/EZI2C_EZI2C.c **** *
   5:.\Generated_Source\PSoC4/EZI2C_EZI2C.c **** * Description:
   6:.\Generated_Source\PSoC4/EZI2C_EZI2C.c **** *  This file provides the source code to the API for the SCB Component in
   7:.\Generated_Source\PSoC4/EZI2C_EZI2C.c **** *  EZI2C mode.
   8:.\Generated_Source\PSoC4/EZI2C_EZI2C.c **** *
   9:.\Generated_Source\PSoC4/EZI2C_EZI2C.c **** * Note:
  10:.\Generated_Source\PSoC4/EZI2C_EZI2C.c **** *
  11:.\Generated_Source\PSoC4/EZI2C_EZI2C.c **** *******************************************************************************
  12:.\Generated_Source\PSoC4/EZI2C_EZI2C.c **** * Copyright 2013-2014, Cypress Semiconductor Corporation.  All rights reserved.
  13:.\Generated_Source\PSoC4/EZI2C_EZI2C.c **** * You may use this file only in accordance with the license, terms, conditions,
  14:.\Generated_Source\PSoC4/EZI2C_EZI2C.c **** * disclaimers, and limitations in the end user license agreement accompanying
  15:.\Generated_Source\PSoC4/EZI2C_EZI2C.c **** * the software package with which this file was provided.
  16:.\Generated_Source\PSoC4/EZI2C_EZI2C.c **** *******************************************************************************/
  17:.\Generated_Source\PSoC4/EZI2C_EZI2C.c **** 
  18:.\Generated_Source\PSoC4/EZI2C_EZI2C.c **** #include "EZI2C_PVT.h"
  19:.\Generated_Source\PSoC4/EZI2C_EZI2C.c **** #include "EZI2C_EZI2C_PVT.h"
  20:.\Generated_Source\PSoC4/EZI2C_EZI2C.c **** 
  21:.\Generated_Source\PSoC4/EZI2C_EZI2C.c **** 
  22:.\Generated_Source\PSoC4/EZI2C_EZI2C.c **** /***************************************
  23:.\Generated_Source\PSoC4/EZI2C_EZI2C.c **** *      EZI2C Private Vars
  24:.\Generated_Source\PSoC4/EZI2C_EZI2C.c **** ***************************************/
  25:.\Generated_Source\PSoC4/EZI2C_EZI2C.c **** 
ARM GAS  C:\Users\Greg\AppData\Local\Temp\ccXQPDCP.s 			page 2


  26:.\Generated_Source\PSoC4/EZI2C_EZI2C.c **** volatile uint8 EZI2C_curStatus; /* Status byte */
  27:.\Generated_Source\PSoC4/EZI2C_EZI2C.c **** uint8 EZI2C_fsmState;           /* FSM state   */
  28:.\Generated_Source\PSoC4/EZI2C_EZI2C.c **** 
  29:.\Generated_Source\PSoC4/EZI2C_EZI2C.c **** /* Variables intended to be used with Buffer1: Primary slave address */
  30:.\Generated_Source\PSoC4/EZI2C_EZI2C.c **** volatile uint8 * EZI2C_dataBuffer1; /* Pointer to data buffer1 */
  31:.\Generated_Source\PSoC4/EZI2C_EZI2C.c **** uint16 EZI2C_bufSizeBuf1; /* Size of buffer1 in bytes      */
  32:.\Generated_Source\PSoC4/EZI2C_EZI2C.c **** uint16 EZI2C_protectBuf1; /* Start index of write protected area buffer1 */
  33:.\Generated_Source\PSoC4/EZI2C_EZI2C.c **** uint8 EZI2C_offsetBuf1; /* Current offset within buffer1 */
  34:.\Generated_Source\PSoC4/EZI2C_EZI2C.c **** uint16 EZI2C_indexBuf1;  /* Current index within buffer1  */
  35:.\Generated_Source\PSoC4/EZI2C_EZI2C.c **** 
  36:.\Generated_Source\PSoC4/EZI2C_EZI2C.c **** #if(EZI2C_SECONDARY_ADDRESS_ENABLE_CONST)
  37:.\Generated_Source\PSoC4/EZI2C_EZI2C.c ****     uint8 EZI2C_addrBuf1; /* Primary slave address. Used for software comparison   */
  38:.\Generated_Source\PSoC4/EZI2C_EZI2C.c ****     uint8 EZI2C_addrBuf2; /* Secondary slave address. Used for software comparison */
  39:.\Generated_Source\PSoC4/EZI2C_EZI2C.c **** 
  40:.\Generated_Source\PSoC4/EZI2C_EZI2C.c ****     /* Variables intended to be used with Buffer1: Primary slave address */
  41:.\Generated_Source\PSoC4/EZI2C_EZI2C.c ****     volatile uint8 * EZI2C_dataBuffer2; /* Pointer to data buffer2 */
  42:.\Generated_Source\PSoC4/EZI2C_EZI2C.c ****     uint16 EZI2C_bufSizeBuf2; /* Size of buffer2 in bytes      */
  43:.\Generated_Source\PSoC4/EZI2C_EZI2C.c ****     uint16 EZI2C_protectBuf2; /* Start index of write protected area buffer 2 */
  44:.\Generated_Source\PSoC4/EZI2C_EZI2C.c ****     uint8 EZI2C_offsetBuf2; /* Current offset within buffer2 */
  45:.\Generated_Source\PSoC4/EZI2C_EZI2C.c ****     uint16 EZI2C_indexBuf2;  /* Current index within buffer2  */
  46:.\Generated_Source\PSoC4/EZI2C_EZI2C.c **** #endif /* (EZI2C_SECONDARY_ADDRESS_ENABLE_CONST) */
  47:.\Generated_Source\PSoC4/EZI2C_EZI2C.c **** 
  48:.\Generated_Source\PSoC4/EZI2C_EZI2C.c **** 
  49:.\Generated_Source\PSoC4/EZI2C_EZI2C.c **** /***************************************
  50:.\Generated_Source\PSoC4/EZI2C_EZI2C.c **** *      EZI2C Private Functions
  51:.\Generated_Source\PSoC4/EZI2C_EZI2C.c **** ***************************************/
  52:.\Generated_Source\PSoC4/EZI2C_EZI2C.c **** 
  53:.\Generated_Source\PSoC4/EZI2C_EZI2C.c **** #if(EZI2C_SECONDARY_ADDRESS_ENABLE_CONST)
  54:.\Generated_Source\PSoC4/EZI2C_EZI2C.c ****     static uint32 EZI2C_EzI2CUpdateRxMatchReg(uint32 addr1, uint32 addr2);
  55:.\Generated_Source\PSoC4/EZI2C_EZI2C.c **** #endif /* (EZI2C_SECONDARY_ADDRESS_ENABLE_CONST) */
  56:.\Generated_Source\PSoC4/EZI2C_EZI2C.c **** 
  57:.\Generated_Source\PSoC4/EZI2C_EZI2C.c **** #if(EZI2C_SCB_MODE_UNCONFIG_CONST_CFG)
  58:.\Generated_Source\PSoC4/EZI2C_EZI2C.c **** 
  59:.\Generated_Source\PSoC4/EZI2C_EZI2C.c ****     /***************************************
  60:.\Generated_Source\PSoC4/EZI2C_EZI2C.c ****     *  Config Structure Initialization
  61:.\Generated_Source\PSoC4/EZI2C_EZI2C.c ****     ***************************************/
  62:.\Generated_Source\PSoC4/EZI2C_EZI2C.c **** 
  63:.\Generated_Source\PSoC4/EZI2C_EZI2C.c ****     /* Constant configuration of EZI2C */
  64:.\Generated_Source\PSoC4/EZI2C_EZI2C.c ****     const EZI2C_EZI2C_INIT_STRUCT EZI2C_configEzI2C =
  65:.\Generated_Source\PSoC4/EZI2C_EZI2C.c ****     {
  66:.\Generated_Source\PSoC4/EZI2C_EZI2C.c ****         EZI2C_EZI2C_CLOCK_STRETCHING,
  67:.\Generated_Source\PSoC4/EZI2C_EZI2C.c ****         EZI2C_EZI2C_MEDIAN_FILTER_ENABLE,
  68:.\Generated_Source\PSoC4/EZI2C_EZI2C.c ****         EZI2C_EZI2C_NUMBER_OF_ADDRESSES,
  69:.\Generated_Source\PSoC4/EZI2C_EZI2C.c ****         EZI2C_EZI2C_PRIMARY_SLAVE_ADDRESS,
  70:.\Generated_Source\PSoC4/EZI2C_EZI2C.c ****         EZI2C_EZI2C_SECONDARY_SLAVE_ADDRESS,
  71:.\Generated_Source\PSoC4/EZI2C_EZI2C.c ****         EZI2C_EZI2C_SUB_ADDRESS_SIZE,
  72:.\Generated_Source\PSoC4/EZI2C_EZI2C.c ****         EZI2C_EZI2C_WAKE_ENABLE
  73:.\Generated_Source\PSoC4/EZI2C_EZI2C.c ****     };
  74:.\Generated_Source\PSoC4/EZI2C_EZI2C.c **** 
  75:.\Generated_Source\PSoC4/EZI2C_EZI2C.c ****     /*******************************************************************************
  76:.\Generated_Source\PSoC4/EZI2C_EZI2C.c ****     * Function Name: EZI2C_EzI2CInit
  77:.\Generated_Source\PSoC4/EZI2C_EZI2C.c ****     ********************************************************************************
  78:.\Generated_Source\PSoC4/EZI2C_EZI2C.c ****     *
  79:.\Generated_Source\PSoC4/EZI2C_EZI2C.c ****     * Summary:
  80:.\Generated_Source\PSoC4/EZI2C_EZI2C.c ****     *  Configures the SCB for the EZI2C operation.
  81:.\Generated_Source\PSoC4/EZI2C_EZI2C.c ****     *
  82:.\Generated_Source\PSoC4/EZI2C_EZI2C.c ****     * Parameters:
ARM GAS  C:\Users\Greg\AppData\Local\Temp\ccXQPDCP.s 			page 3


  83:.\Generated_Source\PSoC4/EZI2C_EZI2C.c ****     *  config:  Pointer to a structure that contains the following ordered list of
  84:.\Generated_Source\PSoC4/EZI2C_EZI2C.c ****     *           fields. These fields match the selections available in the
  85:.\Generated_Source\PSoC4/EZI2C_EZI2C.c ****     *           customizer.
  86:.\Generated_Source\PSoC4/EZI2C_EZI2C.c ****     *
  87:.\Generated_Source\PSoC4/EZI2C_EZI2C.c ****     * Return:
  88:.\Generated_Source\PSoC4/EZI2C_EZI2C.c ****     *  None
  89:.\Generated_Source\PSoC4/EZI2C_EZI2C.c ****     *
  90:.\Generated_Source\PSoC4/EZI2C_EZI2C.c ****     *******************************************************************************/
  91:.\Generated_Source\PSoC4/EZI2C_EZI2C.c ****     void EZI2C_EzI2CInit(const EZI2C_EZI2C_INIT_STRUCT *config)
  92:.\Generated_Source\PSoC4/EZI2C_EZI2C.c ****     {
  93:.\Generated_Source\PSoC4/EZI2C_EZI2C.c ****         if(NULL == config)
  94:.\Generated_Source\PSoC4/EZI2C_EZI2C.c ****         {
  95:.\Generated_Source\PSoC4/EZI2C_EZI2C.c ****             CYASSERT(0u != 0u); /* Halt execution due to invalid function parameter */
  96:.\Generated_Source\PSoC4/EZI2C_EZI2C.c ****         }
  97:.\Generated_Source\PSoC4/EZI2C_EZI2C.c ****         else
  98:.\Generated_Source\PSoC4/EZI2C_EZI2C.c ****         {
  99:.\Generated_Source\PSoC4/EZI2C_EZI2C.c ****             /* Configure pins */
 100:.\Generated_Source\PSoC4/EZI2C_EZI2C.c ****             EZI2C_SetPins(EZI2C_SCB_MODE_EZI2C, EZI2C_DUMMY_PARAM,
 101:.\Generated_Source\PSoC4/EZI2C_EZI2C.c ****                                                                       EZI2C_DUMMY_PARAM);
 102:.\Generated_Source\PSoC4/EZI2C_EZI2C.c **** 
 103:.\Generated_Source\PSoC4/EZI2C_EZI2C.c ****             /* Store internal configuration */
 104:.\Generated_Source\PSoC4/EZI2C_EZI2C.c ****             EZI2C_scbMode       = (uint8) EZI2C_SCB_MODE_EZI2C;
 105:.\Generated_Source\PSoC4/EZI2C_EZI2C.c ****             EZI2C_scbEnableWake = (uint8) config->enableWake;
 106:.\Generated_Source\PSoC4/EZI2C_EZI2C.c ****             EZI2C_scbEnableIntr = (uint8) EZI2C_SCB_IRQ_INTERNAL;
 107:.\Generated_Source\PSoC4/EZI2C_EZI2C.c **** 
 108:.\Generated_Source\PSoC4/EZI2C_EZI2C.c ****             EZI2C_numberOfAddr  = (uint8) config->numberOfAddresses;
 109:.\Generated_Source\PSoC4/EZI2C_EZI2C.c ****             EZI2C_subAddrSize   = (uint8) config->subAddrSize;
 110:.\Generated_Source\PSoC4/EZI2C_EZI2C.c **** 
 111:.\Generated_Source\PSoC4/EZI2C_EZI2C.c ****             /* Configure I2C interface */
 112:.\Generated_Source\PSoC4/EZI2C_EZI2C.c ****             EZI2C_CTRL_REG     = EZI2C_GET_CTRL_ADDR_ACCEPT(config->numberOfAddresses) |
 113:.\Generated_Source\PSoC4/EZI2C_EZI2C.c ****                                             EZI2C_GET_CTRL_EC_AM_MODE (config->enableWake);
 114:.\Generated_Source\PSoC4/EZI2C_EZI2C.c **** 
 115:.\Generated_Source\PSoC4/EZI2C_EZI2C.c ****             EZI2C_I2C_CTRL_REG = EZI2C_EZI2C_CTRL;
 116:.\Generated_Source\PSoC4/EZI2C_EZI2C.c **** 
 117:.\Generated_Source\PSoC4/EZI2C_EZI2C.c ****         #if(EZI2C_CY_SCBIP_V0)
 118:.\Generated_Source\PSoC4/EZI2C_EZI2C.c ****             /* Adjust SDA filter settings. Ticket ID#150521 */
 119:.\Generated_Source\PSoC4/EZI2C_EZI2C.c ****             EZI2C_SET_I2C_CFG_SDA_FILT_TRIM(EZI2C_EC_AM_I2C_CFG_SDA_FILT_TRIM);
 120:.\Generated_Source\PSoC4/EZI2C_EZI2C.c ****         #endif /* (EZI2C_CY_SCBIP_V0) */
 121:.\Generated_Source\PSoC4/EZI2C_EZI2C.c **** 
 122:.\Generated_Source\PSoC4/EZI2C_EZI2C.c ****             /* Configure RX direction */
 123:.\Generated_Source\PSoC4/EZI2C_EZI2C.c ****             EZI2C_RX_CTRL_REG      = EZI2C_GET_RX_CTRL_MEDIAN(config->enableMedianFilter) |
 124:.\Generated_Source\PSoC4/EZI2C_EZI2C.c ****                                                 EZI2C_EZI2C_RX_CTRL;
 125:.\Generated_Source\PSoC4/EZI2C_EZI2C.c ****             EZI2C_RX_FIFO_CTRL_REG = EZI2C_CLEAR_REG;
 126:.\Generated_Source\PSoC4/EZI2C_EZI2C.c **** 
 127:.\Generated_Source\PSoC4/EZI2C_EZI2C.c ****             /* Set default address and mask */
 128:.\Generated_Source\PSoC4/EZI2C_EZI2C.c ****             if(EZI2C_EZI2C_PRIMARY_ADDRESS == config->numberOfAddresses)
 129:.\Generated_Source\PSoC4/EZI2C_EZI2C.c ****             {
 130:.\Generated_Source\PSoC4/EZI2C_EZI2C.c ****                 EZI2C_RX_MATCH_REG = EZI2C_EzI2CUpdateRxMatchReg(config->primarySlaveAddr,
 131:.\Generated_Source\PSoC4/EZI2C_EZI2C.c ****                                                                                        config->prim
 132:.\Generated_Source\PSoC4/EZI2C_EZI2C.c ****             }
 133:.\Generated_Source\PSoC4/EZI2C_EZI2C.c ****             else
 134:.\Generated_Source\PSoC4/EZI2C_EZI2C.c ****             {
 135:.\Generated_Source\PSoC4/EZI2C_EZI2C.c ****                 EZI2C_RX_MATCH_REG = EZI2C_EzI2CUpdateRxMatchReg(config->primarySlaveAddr,
 136:.\Generated_Source\PSoC4/EZI2C_EZI2C.c ****                                                                                        config->seco
 137:.\Generated_Source\PSoC4/EZI2C_EZI2C.c ****             }
 138:.\Generated_Source\PSoC4/EZI2C_EZI2C.c **** 
 139:.\Generated_Source\PSoC4/EZI2C_EZI2C.c ****             /* Configure TX direction */
ARM GAS  C:\Users\Greg\AppData\Local\Temp\ccXQPDCP.s 			page 4


 140:.\Generated_Source\PSoC4/EZI2C_EZI2C.c ****             EZI2C_TX_CTRL_REG      = EZI2C_EZI2C_TX_CTRL;
 141:.\Generated_Source\PSoC4/EZI2C_EZI2C.c ****             EZI2C_TX_FIFO_CTRL_REG = ((0u != (config->enableClockStretch)) ?
 142:.\Generated_Source\PSoC4/EZI2C_EZI2C.c ****                                                  EZI2C_CLEAR_REG : EZI2C_EZI2C_TX_FIFO_CTRL);
 143:.\Generated_Source\PSoC4/EZI2C_EZI2C.c **** 
 144:.\Generated_Source\PSoC4/EZI2C_EZI2C.c ****             /* Configure interrupt sources */
 145:.\Generated_Source\PSoC4/EZI2C_EZI2C.c ****         #if(EZI2C_CY_SCBIP_V0)
 146:.\Generated_Source\PSoC4/EZI2C_EZI2C.c ****            EZI2C_INTR_SPI_EC_MASK_REG = EZI2C_NO_INTR_SOURCES;
 147:.\Generated_Source\PSoC4/EZI2C_EZI2C.c ****         #endif /* (EZI2C_CY_SCBIP_V0) */
 148:.\Generated_Source\PSoC4/EZI2C_EZI2C.c **** 
 149:.\Generated_Source\PSoC4/EZI2C_EZI2C.c ****             EZI2C_INTR_I2C_EC_MASK_REG = EZI2C_NO_INTR_SOURCES;
 150:.\Generated_Source\PSoC4/EZI2C_EZI2C.c ****             EZI2C_INTR_MASTER_MASK_REG = EZI2C_NO_INTR_SOURCES;
 151:.\Generated_Source\PSoC4/EZI2C_EZI2C.c ****             EZI2C_INTR_SLAVE_MASK_REG  = EZI2C_EZI2C_INTR_SLAVE_MASK;
 152:.\Generated_Source\PSoC4/EZI2C_EZI2C.c ****             EZI2C_INTR_TX_MASK_REG     = EZI2C_NO_INTR_SOURCES;
 153:.\Generated_Source\PSoC4/EZI2C_EZI2C.c **** 
 154:.\Generated_Source\PSoC4/EZI2C_EZI2C.c ****             /* Configure interrupt with EZI2C handler but do not enable it */
 155:.\Generated_Source\PSoC4/EZI2C_EZI2C.c ****             CyIntDisable    (EZI2C_ISR_NUMBER);
 156:.\Generated_Source\PSoC4/EZI2C_EZI2C.c ****             CyIntSetPriority(EZI2C_ISR_NUMBER, EZI2C_ISR_PRIORITY);
 157:.\Generated_Source\PSoC4/EZI2C_EZI2C.c ****             (void) CyIntSetVector(EZI2C_ISR_NUMBER, (0u != (config->enableClockStretch)) ?
 158:.\Generated_Source\PSoC4/EZI2C_EZI2C.c ****                                                                       (&EZI2C_EZI2C_STRETCH_ISR) :
 159:.\Generated_Source\PSoC4/EZI2C_EZI2C.c ****                                                                       (&EZI2C_EZI2C_NO_STRETCH_ISR)
 160:.\Generated_Source\PSoC4/EZI2C_EZI2C.c **** 
 161:.\Generated_Source\PSoC4/EZI2C_EZI2C.c ****             if(0u != (config->enableClockStretch))
 162:.\Generated_Source\PSoC4/EZI2C_EZI2C.c ****             {
 163:.\Generated_Source\PSoC4/EZI2C_EZI2C.c ****                 /* Configure interrupt sources */
 164:.\Generated_Source\PSoC4/EZI2C_EZI2C.c ****                 EZI2C_INTR_SLAVE_MASK_REG |= EZI2C_INTR_SLAVE_I2C_ADDR_MATCH;
 165:.\Generated_Source\PSoC4/EZI2C_EZI2C.c ****                 EZI2C_INTR_RX_MASK_REG     = EZI2C_NO_INTR_SOURCES;
 166:.\Generated_Source\PSoC4/EZI2C_EZI2C.c ****             }
 167:.\Generated_Source\PSoC4/EZI2C_EZI2C.c ****             else
 168:.\Generated_Source\PSoC4/EZI2C_EZI2C.c ****             {
 169:.\Generated_Source\PSoC4/EZI2C_EZI2C.c ****                 /* Enable Auto ACK/NACK features */
 170:.\Generated_Source\PSoC4/EZI2C_EZI2C.c ****                 EZI2C_I2C_CTRL_REG |= EZI2C_EZI2C_CTRL_AUTO;
 171:.\Generated_Source\PSoC4/EZI2C_EZI2C.c **** 
 172:.\Generated_Source\PSoC4/EZI2C_EZI2C.c ****                 /* Configure RX interrupt source */
 173:.\Generated_Source\PSoC4/EZI2C_EZI2C.c ****                 EZI2C_INTR_SLAVE_MASK_REG |= EZI2C_INTR_SLAVE_I2C_START;
 174:.\Generated_Source\PSoC4/EZI2C_EZI2C.c ****                 EZI2C_INTR_RX_MASK_REG     = EZI2C_INTR_RX_NOT_EMPTY;
 175:.\Generated_Source\PSoC4/EZI2C_EZI2C.c ****             }
 176:.\Generated_Source\PSoC4/EZI2C_EZI2C.c **** 
 177:.\Generated_Source\PSoC4/EZI2C_EZI2C.c ****             /* Configure global variables */
 178:.\Generated_Source\PSoC4/EZI2C_EZI2C.c ****             EZI2C_fsmState = EZI2C_EZI2C_FSM_IDLE;
 179:.\Generated_Source\PSoC4/EZI2C_EZI2C.c **** 
 180:.\Generated_Source\PSoC4/EZI2C_EZI2C.c ****             EZI2C_curStatus  = 0u;
 181:.\Generated_Source\PSoC4/EZI2C_EZI2C.c ****             EZI2C_indexBuf1  = 0u;
 182:.\Generated_Source\PSoC4/EZI2C_EZI2C.c ****             EZI2C_offsetBuf1 = 0u;
 183:.\Generated_Source\PSoC4/EZI2C_EZI2C.c ****             EZI2C_indexBuf2  = 0u;
 184:.\Generated_Source\PSoC4/EZI2C_EZI2C.c ****             EZI2C_offsetBuf2 = 0u;
 185:.\Generated_Source\PSoC4/EZI2C_EZI2C.c **** 
 186:.\Generated_Source\PSoC4/EZI2C_EZI2C.c ****             EZI2C_addrBuf1 = (uint8) config->primarySlaveAddr;
 187:.\Generated_Source\PSoC4/EZI2C_EZI2C.c ****             EZI2C_addrBuf2 = (uint8) config->secondarySlaveAddr;
 188:.\Generated_Source\PSoC4/EZI2C_EZI2C.c ****         }
 189:.\Generated_Source\PSoC4/EZI2C_EZI2C.c ****     }
 190:.\Generated_Source\PSoC4/EZI2C_EZI2C.c **** 
 191:.\Generated_Source\PSoC4/EZI2C_EZI2C.c **** #else
 192:.\Generated_Source\PSoC4/EZI2C_EZI2C.c **** 
 193:.\Generated_Source\PSoC4/EZI2C_EZI2C.c ****     /*******************************************************************************
 194:.\Generated_Source\PSoC4/EZI2C_EZI2C.c ****     * Function Name: EZI2C_EzI2CInit
 195:.\Generated_Source\PSoC4/EZI2C_EZI2C.c ****     ********************************************************************************
 196:.\Generated_Source\PSoC4/EZI2C_EZI2C.c ****     *
ARM GAS  C:\Users\Greg\AppData\Local\Temp\ccXQPDCP.s 			page 5


 197:.\Generated_Source\PSoC4/EZI2C_EZI2C.c ****     * Summary:
 198:.\Generated_Source\PSoC4/EZI2C_EZI2C.c ****     *  Configures the SCB for the EZI2C operation.
 199:.\Generated_Source\PSoC4/EZI2C_EZI2C.c ****     *
 200:.\Generated_Source\PSoC4/EZI2C_EZI2C.c ****     * Parameters:
 201:.\Generated_Source\PSoC4/EZI2C_EZI2C.c ****     *  None
 202:.\Generated_Source\PSoC4/EZI2C_EZI2C.c ****     *
 203:.\Generated_Source\PSoC4/EZI2C_EZI2C.c ****     * Return:
 204:.\Generated_Source\PSoC4/EZI2C_EZI2C.c ****     *  None
 205:.\Generated_Source\PSoC4/EZI2C_EZI2C.c ****     *
 206:.\Generated_Source\PSoC4/EZI2C_EZI2C.c ****     *******************************************************************************/
 207:.\Generated_Source\PSoC4/EZI2C_EZI2C.c ****     void EZI2C_EzI2CInit(void)
 208:.\Generated_Source\PSoC4/EZI2C_EZI2C.c ****     {
  33              		.loc 1 208 0
  34              		.cfi_startproc
  35 0000 80B5     		push	{r7, lr}
  36              	.LCFI0:
  37              		.cfi_def_cfa_offset 8
  38              		.cfi_offset 7, -8
  39              		.cfi_offset 14, -4
  40 0002 00AF     		add	r7, sp, #0
  41              	.LCFI1:
  42              		.cfi_def_cfa_register 7
 209:.\Generated_Source\PSoC4/EZI2C_EZI2C.c ****         /* Configure I2C interface */
 210:.\Generated_Source\PSoC4/EZI2C_EZI2C.c ****         EZI2C_CTRL_REG     = EZI2C_EZI2C_DEFAULT_CTRL;
  43              		.loc 1 210 0
  44 0004 234B     		ldr	r3, .L2
  45 0006 8022     		mov	r2, #128
  46 0008 5200     		lsl	r2, r2, #1
  47 000a 1A60     		str	r2, [r3]
 211:.\Generated_Source\PSoC4/EZI2C_EZI2C.c ****         EZI2C_I2C_CTRL_REG = EZI2C_EZI2C_DEFAULT_I2C_CTRL;
  48              		.loc 1 211 0
  49 000c 224B     		ldr	r3, .L2+4
  50 000e 234A     		ldr	r2, .L2+8
  51 0010 1A60     		str	r2, [r3]
 212:.\Generated_Source\PSoC4/EZI2C_EZI2C.c **** 
 213:.\Generated_Source\PSoC4/EZI2C_EZI2C.c ****     #if(EZI2C_CY_SCBIP_V0)
 214:.\Generated_Source\PSoC4/EZI2C_EZI2C.c ****         /* Adjust SDA filter settings. Ticket ID#150521 */
 215:.\Generated_Source\PSoC4/EZI2C_EZI2C.c ****         EZI2C_SET_I2C_CFG_SDA_FILT_TRIM(EZI2C_EC_AM_I2C_CFG_SDA_FILT_TRIM);
  52              		.loc 1 215 0
  53 0012 234B     		ldr	r3, .L2+12
  54 0014 224A     		ldr	r2, .L2+12
  55 0016 1268     		ldr	r2, [r2]
  56 0018 0C21     		mov	r1, #12
  57 001a 0A43     		orr	r2, r1
  58 001c 1A60     		str	r2, [r3]
 216:.\Generated_Source\PSoC4/EZI2C_EZI2C.c ****     #endif /* (EZI2C_CY_SCBIP_V0) */
 217:.\Generated_Source\PSoC4/EZI2C_EZI2C.c **** 
 218:.\Generated_Source\PSoC4/EZI2C_EZI2C.c ****         /* Configure RX direction */
 219:.\Generated_Source\PSoC4/EZI2C_EZI2C.c ****         EZI2C_RX_CTRL_REG      = EZI2C_EZI2C_DEFAULT_RX_CTRL;
  59              		.loc 1 219 0
  60 001e 214B     		ldr	r3, .L2+16
  61 0020 214A     		ldr	r2, .L2+20
  62 0022 1A60     		str	r2, [r3]
 220:.\Generated_Source\PSoC4/EZI2C_EZI2C.c ****         EZI2C_RX_FIFO_CTRL_REG = EZI2C_EZI2C_DEFAULT_RX_FIFO_CTRL;
  63              		.loc 1 220 0
  64 0024 214B     		ldr	r3, .L2+24
  65 0026 0022     		mov	r2, #0
ARM GAS  C:\Users\Greg\AppData\Local\Temp\ccXQPDCP.s 			page 6


  66 0028 1A60     		str	r2, [r3]
 221:.\Generated_Source\PSoC4/EZI2C_EZI2C.c **** 
 222:.\Generated_Source\PSoC4/EZI2C_EZI2C.c ****         /* Set default address and mask */
 223:.\Generated_Source\PSoC4/EZI2C_EZI2C.c ****         EZI2C_RX_MATCH_REG     = EZI2C_EZI2C_DEFAULT_RX_MATCH;
  67              		.loc 1 223 0
  68 002a 214B     		ldr	r3, .L2+28
  69 002c 214A     		ldr	r2, .L2+32
  70 002e 1A60     		str	r2, [r3]
 224:.\Generated_Source\PSoC4/EZI2C_EZI2C.c **** 
 225:.\Generated_Source\PSoC4/EZI2C_EZI2C.c ****         /* Configure TX direction */
 226:.\Generated_Source\PSoC4/EZI2C_EZI2C.c ****         EZI2C_TX_CTRL_REG      = EZI2C_EZI2C_DEFAULT_TX_CTRL;
  71              		.loc 1 226 0
  72 0030 214B     		ldr	r3, .L2+36
  73 0032 1D4A     		ldr	r2, .L2+20
  74 0034 1A60     		str	r2, [r3]
 227:.\Generated_Source\PSoC4/EZI2C_EZI2C.c ****         EZI2C_TX_FIFO_CTRL_REG = EZI2C_EZI2C_DEFAULT_TX_FIFO_CTRL;
  75              		.loc 1 227 0
  76 0036 214B     		ldr	r3, .L2+40
  77 0038 0022     		mov	r2, #0
  78 003a 1A60     		str	r2, [r3]
 228:.\Generated_Source\PSoC4/EZI2C_EZI2C.c **** 
 229:.\Generated_Source\PSoC4/EZI2C_EZI2C.c ****         /* Configure interrupt with EZI2C handler but do not enable it */
 230:.\Generated_Source\PSoC4/EZI2C_EZI2C.c ****     #if !defined (CY_EXTERNAL_INTERRUPT_CONFIG)
 231:.\Generated_Source\PSoC4/EZI2C_EZI2C.c ****         CyIntDisable    (EZI2C_ISR_NUMBER);
  79              		.loc 1 231 0
  80 003c 0B20     		mov	r0, #11
  81 003e FFF7FEFF 		bl	CyIntDisable
 232:.\Generated_Source\PSoC4/EZI2C_EZI2C.c ****         CyIntSetPriority(EZI2C_ISR_NUMBER, EZI2C_ISR_PRIORITY);
  82              		.loc 1 232 0
  83 0042 0B20     		mov	r0, #11
  84 0044 0121     		mov	r1, #1
  85 0046 FFF7FEFF 		bl	CyIntSetPriority
 233:.\Generated_Source\PSoC4/EZI2C_EZI2C.c **** 
 234:.\Generated_Source\PSoC4/EZI2C_EZI2C.c ****     #if(EZI2C_EZI2C_SCL_STRETCH_ENABLE_CONST)
 235:.\Generated_Source\PSoC4/EZI2C_EZI2C.c ****         (void) CyIntSetVector(EZI2C_ISR_NUMBER, &EZI2C_EZI2C_STRETCH_ISR);
  86              		.loc 1 235 0
  87 004a 1D4B     		ldr	r3, .L2+44
  88 004c 0B20     		mov	r0, #11
  89 004e 191C     		mov	r1, r3
  90 0050 FFF7FEFF 		bl	CyIntSetVector
 236:.\Generated_Source\PSoC4/EZI2C_EZI2C.c ****     #else
 237:.\Generated_Source\PSoC4/EZI2C_EZI2C.c ****         (void) CyIntSetVector(EZI2C_ISR_NUMBER, &EZI2C_EZI2C_NO_STRETCH_ISR);
 238:.\Generated_Source\PSoC4/EZI2C_EZI2C.c ****     #endif /* (EZI2C_EZI2C_SCL_STRETCH_ENABLE_CONST) */
 239:.\Generated_Source\PSoC4/EZI2C_EZI2C.c **** 
 240:.\Generated_Source\PSoC4/EZI2C_EZI2C.c ****     #endif /* !defined (CY_EXTERNAL_INTERRUPT_CONFIG) */
 241:.\Generated_Source\PSoC4/EZI2C_EZI2C.c **** 
 242:.\Generated_Source\PSoC4/EZI2C_EZI2C.c ****         /* Configure interrupt sources */
 243:.\Generated_Source\PSoC4/EZI2C_EZI2C.c ****     #if(EZI2C_CY_SCBIP_V0)
 244:.\Generated_Source\PSoC4/EZI2C_EZI2C.c ****         EZI2C_INTR_SPI_EC_MASK_REG = EZI2C_EZI2C_DEFAULT_INTR_SPI_EC_MASK;
  91              		.loc 1 244 0
  92 0054 1B4B     		ldr	r3, .L2+48
  93 0056 0022     		mov	r2, #0
  94 0058 1A60     		str	r2, [r3]
 245:.\Generated_Source\PSoC4/EZI2C_EZI2C.c ****     #endif /* (EZI2C_CY_SCBIP_V0) */
 246:.\Generated_Source\PSoC4/EZI2C_EZI2C.c **** 
 247:.\Generated_Source\PSoC4/EZI2C_EZI2C.c ****         EZI2C_INTR_I2C_EC_MASK_REG = EZI2C_EZI2C_DEFAULT_INTR_I2C_EC_MASK;
  95              		.loc 1 247 0
ARM GAS  C:\Users\Greg\AppData\Local\Temp\ccXQPDCP.s 			page 7


  96 005a 1B4B     		ldr	r3, .L2+52
  97 005c 0022     		mov	r2, #0
  98 005e 1A60     		str	r2, [r3]
 248:.\Generated_Source\PSoC4/EZI2C_EZI2C.c ****         EZI2C_INTR_SLAVE_MASK_REG  = EZI2C_EZI2C_DEFAULT_INTR_SLAVE_MASK;
  99              		.loc 1 248 0
 100 0060 1A4B     		ldr	r3, .L2+56
 101 0062 1B4A     		ldr	r2, .L2+60
 102 0064 1A60     		str	r2, [r3]
 249:.\Generated_Source\PSoC4/EZI2C_EZI2C.c ****         EZI2C_INTR_MASTER_MASK_REG = EZI2C_EZI2C_DEFAULT_INTR_MASTER_MASK;
 103              		.loc 1 249 0
 104 0066 1B4B     		ldr	r3, .L2+64
 105 0068 0022     		mov	r2, #0
 106 006a 1A60     		str	r2, [r3]
 250:.\Generated_Source\PSoC4/EZI2C_EZI2C.c ****         EZI2C_INTR_RX_MASK_REG     = EZI2C_EZI2C_DEFAULT_INTR_RX_MASK;
 107              		.loc 1 250 0
 108 006c 1A4B     		ldr	r3, .L2+68
 109 006e 0022     		mov	r2, #0
 110 0070 1A60     		str	r2, [r3]
 251:.\Generated_Source\PSoC4/EZI2C_EZI2C.c ****         EZI2C_INTR_TX_MASK_REG     = EZI2C_EZI2C_DEFAULT_INTR_TX_MASK;
 111              		.loc 1 251 0
 112 0072 1A4B     		ldr	r3, .L2+72
 113 0074 0022     		mov	r2, #0
 114 0076 1A60     		str	r2, [r3]
 252:.\Generated_Source\PSoC4/EZI2C_EZI2C.c **** 
 253:.\Generated_Source\PSoC4/EZI2C_EZI2C.c ****         /* Configure global variables */
 254:.\Generated_Source\PSoC4/EZI2C_EZI2C.c ****         EZI2C_fsmState = EZI2C_EZI2C_FSM_IDLE;
 115              		.loc 1 254 0
 116 0078 194B     		ldr	r3, .L2+76
 117 007a 0022     		mov	r2, #0
 118 007c 1A70     		strb	r2, [r3]
 255:.\Generated_Source\PSoC4/EZI2C_EZI2C.c **** 
 256:.\Generated_Source\PSoC4/EZI2C_EZI2C.c ****         EZI2C_curStatus  = 0u;
 119              		.loc 1 256 0
 120 007e 194B     		ldr	r3, .L2+80
 121 0080 0022     		mov	r2, #0
 122 0082 1A70     		strb	r2, [r3]
 257:.\Generated_Source\PSoC4/EZI2C_EZI2C.c ****         EZI2C_indexBuf1  = 0u;
 123              		.loc 1 257 0
 124 0084 184B     		ldr	r3, .L2+84
 125 0086 0022     		mov	r2, #0
 126 0088 1A80     		strh	r2, [r3]
 258:.\Generated_Source\PSoC4/EZI2C_EZI2C.c ****         EZI2C_offsetBuf1 = 0u;
 127              		.loc 1 258 0
 128 008a 184B     		ldr	r3, .L2+88
 129 008c 0022     		mov	r2, #0
 130 008e 1A70     		strb	r2, [r3]
 259:.\Generated_Source\PSoC4/EZI2C_EZI2C.c **** 
 260:.\Generated_Source\PSoC4/EZI2C_EZI2C.c ****     #if(EZI2C_SECONDARY_ADDRESS_ENABLE_CONST)
 261:.\Generated_Source\PSoC4/EZI2C_EZI2C.c ****         EZI2C_indexBuf2  = 0u;
 262:.\Generated_Source\PSoC4/EZI2C_EZI2C.c ****         EZI2C_offsetBuf2 = 0u;
 263:.\Generated_Source\PSoC4/EZI2C_EZI2C.c **** 
 264:.\Generated_Source\PSoC4/EZI2C_EZI2C.c ****         EZI2C_addrBuf1 = EZI2C_EZI2C_PRIMARY_SLAVE_ADDRESS;
 265:.\Generated_Source\PSoC4/EZI2C_EZI2C.c ****         EZI2C_addrBuf2 = EZI2C_EZI2C_SECONDARY_SLAVE_ADDRESS;
 266:.\Generated_Source\PSoC4/EZI2C_EZI2C.c ****     #endif /* (EZI2C_SECONDARY_ADDRESS_ENABLE_CONST) */
 267:.\Generated_Source\PSoC4/EZI2C_EZI2C.c ****     }
 131              		.loc 1 267 0
 132 0090 BD46     		mov	sp, r7
ARM GAS  C:\Users\Greg\AppData\Local\Temp\ccXQPDCP.s 			page 8


 133              		@ sp needed for prologue
 134 0092 80BD     		pop	{r7, pc}
 135              	.L3:
 136              		.align	2
 137              	.L2:
 138 0094 00000740 		.word	1074200576
 139 0098 60000740 		.word	1074200672
 140 009c 00080040 		.word	1073743872
 141 00a0 70000740 		.word	1074200688
 142 00a4 00030740 		.word	1074201344
 143 00a8 07010080 		.word	-2147483385
 144 00ac 04030740 		.word	1074201348
 145 00b0 10030740 		.word	1074201360
 146 00b4 6C00FE00 		.word	16646252
 147 00b8 00020740 		.word	1074201088
 148 00bc 04020740 		.word	1074201092
 149 00c0 00000000 		.word	EZI2C_EZI2C_STRETCH_ISR
 150 00c4 C80E0740 		.word	1074204360
 151 00c8 880E0740 		.word	1074204296
 152 00cc 480F0740 		.word	1074204488
 153 00d0 51010000 		.word	337
 154 00d4 080F0740 		.word	1074204424
 155 00d8 C80F0740 		.word	1074204616
 156 00dc 880F0740 		.word	1074204552
 157 00e0 00000000 		.word	EZI2C_fsmState
 158 00e4 00000000 		.word	EZI2C_curStatus
 159 00e8 00000000 		.word	EZI2C_indexBuf1
 160 00ec 00000000 		.word	EZI2C_offsetBuf1
 161              		.cfi_endproc
 162              	.LFE0:
 163              		.size	EZI2C_EzI2CInit, .-EZI2C_EzI2CInit
 164              		.section	.text.EZI2C_EzI2CStop,"ax",%progbits
 165              		.align	2
 166              		.global	EZI2C_EzI2CStop
 167              		.code	16
 168              		.thumb_func
 169              		.type	EZI2C_EzI2CStop, %function
 170              	EZI2C_EzI2CStop:
 171              	.LFB1:
 268:.\Generated_Source\PSoC4/EZI2C_EZI2C.c **** #endif /* (EZI2C_SCB_MODE_UNCONFIG_CONST_CFG) */
 269:.\Generated_Source\PSoC4/EZI2C_EZI2C.c **** 
 270:.\Generated_Source\PSoC4/EZI2C_EZI2C.c **** 
 271:.\Generated_Source\PSoC4/EZI2C_EZI2C.c **** /*******************************************************************************
 272:.\Generated_Source\PSoC4/EZI2C_EZI2C.c **** * Function Name: EZI2C_EzI2CStop
 273:.\Generated_Source\PSoC4/EZI2C_EZI2C.c **** ********************************************************************************
 274:.\Generated_Source\PSoC4/EZI2C_EZI2C.c **** *
 275:.\Generated_Source\PSoC4/EZI2C_EZI2C.c **** * Summary:
 276:.\Generated_Source\PSoC4/EZI2C_EZI2C.c **** *  Resets the EZI2C FSM into a default state and disables TX interrupt sources.
 277:.\Generated_Source\PSoC4/EZI2C_EZI2C.c **** *
 278:.\Generated_Source\PSoC4/EZI2C_EZI2C.c **** * Parameters:
 279:.\Generated_Source\PSoC4/EZI2C_EZI2C.c **** *  None
 280:.\Generated_Source\PSoC4/EZI2C_EZI2C.c **** *
 281:.\Generated_Source\PSoC4/EZI2C_EZI2C.c **** * Return:
 282:.\Generated_Source\PSoC4/EZI2C_EZI2C.c **** *  None
 283:.\Generated_Source\PSoC4/EZI2C_EZI2C.c **** *
 284:.\Generated_Source\PSoC4/EZI2C_EZI2C.c **** *******************************************************************************/
 285:.\Generated_Source\PSoC4/EZI2C_EZI2C.c **** void EZI2C_EzI2CStop(void)
ARM GAS  C:\Users\Greg\AppData\Local\Temp\ccXQPDCP.s 			page 9


 286:.\Generated_Source\PSoC4/EZI2C_EZI2C.c **** {
 172              		.loc 1 286 0
 173              		.cfi_startproc
 174 0000 80B5     		push	{r7, lr}
 175              	.LCFI2:
 176              		.cfi_def_cfa_offset 8
 177              		.cfi_offset 7, -8
 178              		.cfi_offset 14, -4
 179 0002 00AF     		add	r7, sp, #0
 180              	.LCFI3:
 181              		.cfi_def_cfa_register 7
 287:.\Generated_Source\PSoC4/EZI2C_EZI2C.c ****     /* Disable TX interrupt sources in order not to  cause the false interrupts trigger.
 288:.\Generated_Source\PSoC4/EZI2C_EZI2C.c ****     * The incoming transaction will enable an appropriate TX interrupt.
 289:.\Generated_Source\PSoC4/EZI2C_EZI2C.c ****     */
 290:.\Generated_Source\PSoC4/EZI2C_EZI2C.c ****     EZI2C_SetTxInterruptMode(EZI2C_NO_INTR_SOURCES);
 182              		.loc 1 290 0
 183 0004 054B     		ldr	r3, .L5
 184 0006 0022     		mov	r2, #0
 185 0008 1A60     		str	r2, [r3]
 291:.\Generated_Source\PSoC4/EZI2C_EZI2C.c **** 
 292:.\Generated_Source\PSoC4/EZI2C_EZI2C.c **** #if(EZI2C_CY_SCBIP_V0)
 293:.\Generated_Source\PSoC4/EZI2C_EZI2C.c ****     /* Clear pending interrupt as after the block is disabled, the TX FIFO becomes empty and
 294:.\Generated_Source\PSoC4/EZI2C_EZI2C.c ****     * the block does not gate the interrupt sources when disabled.
 295:.\Generated_Source\PSoC4/EZI2C_EZI2C.c ****     */
 296:.\Generated_Source\PSoC4/EZI2C_EZI2C.c ****     EZI2C_ClearPendingInt();
 186              		.loc 1 296 0
 187 000a 0B20     		mov	r0, #11
 188 000c FFF7FEFF 		bl	CyIntClearPending
 297:.\Generated_Source\PSoC4/EZI2C_EZI2C.c **** #endif /* (EZI2C_CY_SCBIP_V0) */
 298:.\Generated_Source\PSoC4/EZI2C_EZI2C.c **** 
 299:.\Generated_Source\PSoC4/EZI2C_EZI2C.c ****     EZI2C_fsmState = EZI2C_EZI2C_FSM_IDLE;
 189              		.loc 1 299 0
 190 0010 034B     		ldr	r3, .L5+4
 191 0012 0022     		mov	r2, #0
 192 0014 1A70     		strb	r2, [r3]
 300:.\Generated_Source\PSoC4/EZI2C_EZI2C.c **** }
 193              		.loc 1 300 0
 194 0016 BD46     		mov	sp, r7
 195              		@ sp needed for prologue
 196 0018 80BD     		pop	{r7, pc}
 197              	.L6:
 198 001a C046     		.align	2
 199              	.L5:
 200 001c 880F0740 		.word	1074204552
 201 0020 00000000 		.word	EZI2C_fsmState
 202              		.cfi_endproc
 203              	.LFE1:
 204              		.size	EZI2C_EzI2CStop, .-EZI2C_EzI2CStop
 205              		.section	.text.EZI2C_EzI2CGetActivity,"ax",%progbits
 206              		.align	2
 207              		.global	EZI2C_EzI2CGetActivity
 208              		.code	16
 209              		.thumb_func
 210              		.type	EZI2C_EzI2CGetActivity, %function
 211              	EZI2C_EzI2CGetActivity:
 212              	.LFB2:
 301:.\Generated_Source\PSoC4/EZI2C_EZI2C.c **** 
ARM GAS  C:\Users\Greg\AppData\Local\Temp\ccXQPDCP.s 			page 10


 302:.\Generated_Source\PSoC4/EZI2C_EZI2C.c **** 
 303:.\Generated_Source\PSoC4/EZI2C_EZI2C.c **** /*******************************************************************************
 304:.\Generated_Source\PSoC4/EZI2C_EZI2C.c **** * Function Name: EZI2C_EzI2CGetActivity
 305:.\Generated_Source\PSoC4/EZI2C_EZI2C.c **** ********************************************************************************
 306:.\Generated_Source\PSoC4/EZI2C_EZI2C.c **** *
 307:.\Generated_Source\PSoC4/EZI2C_EZI2C.c **** * Summary:
 308:.\Generated_Source\PSoC4/EZI2C_EZI2C.c **** *  Returns the EZI2C slave status.
 309:.\Generated_Source\PSoC4/EZI2C_EZI2C.c **** *  The read, write and error status flags reset to zero after this function call.
 310:.\Generated_Source\PSoC4/EZI2C_EZI2C.c **** *  The busy status flag is cleared when the transaction intended for the EZ
 311:.\Generated_Source\PSoC4/EZI2C_EZI2C.c **** *  I2C slave completes.
 312:.\Generated_Source\PSoC4/EZI2C_EZI2C.c **** *
 313:.\Generated_Source\PSoC4/EZI2C_EZI2C.c **** * Parameters:
 314:.\Generated_Source\PSoC4/EZI2C_EZI2C.c **** *  None
 315:.\Generated_Source\PSoC4/EZI2C_EZI2C.c **** *
 316:.\Generated_Source\PSoC4/EZI2C_EZI2C.c **** * Return:
 317:.\Generated_Source\PSoC4/EZI2C_EZI2C.c **** *  Returns the status of the EZI2C Slave activity.
 318:.\Generated_Source\PSoC4/EZI2C_EZI2C.c **** *
 319:.\Generated_Source\PSoC4/EZI2C_EZI2C.c **** *******************************************************************************/
 320:.\Generated_Source\PSoC4/EZI2C_EZI2C.c **** uint32 EZI2C_EzI2CGetActivity(void)
 321:.\Generated_Source\PSoC4/EZI2C_EZI2C.c **** {
 213              		.loc 1 321 0
 214              		.cfi_startproc
 215 0000 80B5     		push	{r7, lr}
 216              	.LCFI4:
 217              		.cfi_def_cfa_offset 8
 218              		.cfi_offset 7, -8
 219              		.cfi_offset 14, -4
 220 0002 82B0     		sub	sp, sp, #8
 221              	.LCFI5:
 222              		.cfi_def_cfa_offset 16
 223 0004 00AF     		add	r7, sp, #0
 224              	.LCFI6:
 225              		.cfi_def_cfa_register 7
 322:.\Generated_Source\PSoC4/EZI2C_EZI2C.c ****     uint32 status;
 323:.\Generated_Source\PSoC4/EZI2C_EZI2C.c ****     uint32 slaveBusy;
 324:.\Generated_Source\PSoC4/EZI2C_EZI2C.c **** 
 325:.\Generated_Source\PSoC4/EZI2C_EZI2C.c ****     slaveBusy = 0u;
 226              		.loc 1 325 0
 227 0006 0023     		mov	r3, #0
 228 0008 3B60     		str	r3, [r7]
 326:.\Generated_Source\PSoC4/EZI2C_EZI2C.c **** 
 327:.\Generated_Source\PSoC4/EZI2C_EZI2C.c ****     EZI2C_DisableInt();  /* Lock from interruption */
 229              		.loc 1 327 0
 230 000a 0B20     		mov	r0, #11
 231 000c FFF7FEFF 		bl	CyIntDisable
 328:.\Generated_Source\PSoC4/EZI2C_EZI2C.c **** 
 329:.\Generated_Source\PSoC4/EZI2C_EZI2C.c ****     status = EZI2C_curStatus;
 232              		.loc 1 329 0
 233 0010 0D4B     		ldr	r3, .L10
 234 0012 1B78     		ldrb	r3, [r3]
 235 0014 DBB2     		uxtb	r3, r3
 236 0016 7B60     		str	r3, [r7, #4]
 330:.\Generated_Source\PSoC4/EZI2C_EZI2C.c **** 
 331:.\Generated_Source\PSoC4/EZI2C_EZI2C.c ****     /* Relay on address match event from HW as bus busy status */
 332:.\Generated_Source\PSoC4/EZI2C_EZI2C.c **** #if(EZI2C_CY_SCBIP_V0)
 333:.\Generated_Source\PSoC4/EZI2C_EZI2C.c **** 
 334:.\Generated_Source\PSoC4/EZI2C_EZI2C.c ****     #if(EZI2C_EZI2C_SCL_STRETCH_DISABLE)
ARM GAS  C:\Users\Greg\AppData\Local\Temp\ccXQPDCP.s 			page 11


 335:.\Generated_Source\PSoC4/EZI2C_EZI2C.c ****     {
 336:.\Generated_Source\PSoC4/EZI2C_EZI2C.c ****         slaveBusy = (uint32) EZI2C_CHECK_INTR_SLAVE(EZI2C_INTR_SLAVE_I2C_ADDR_MATCH);
 337:.\Generated_Source\PSoC4/EZI2C_EZI2C.c ****     }
 338:.\Generated_Source\PSoC4/EZI2C_EZI2C.c ****     #endif
 339:.\Generated_Source\PSoC4/EZI2C_EZI2C.c **** #else
 340:.\Generated_Source\PSoC4/EZI2C_EZI2C.c ****     #if(EZI2C_EZI2C_SCL_STRETCH_DISABLE)
 341:.\Generated_Source\PSoC4/EZI2C_EZI2C.c ****     {
 342:.\Generated_Source\PSoC4/EZI2C_EZI2C.c ****         #if(EZI2C_EZI2C_EC_AM_ENABLE)
 343:.\Generated_Source\PSoC4/EZI2C_EZI2C.c ****         {
 344:.\Generated_Source\PSoC4/EZI2C_EZI2C.c ****             slaveBusy = (uint32) EZI2C_CHECK_INTR_I2C_EC(EZI2C_INTR_I2C_EC_WAKE_UP);
 345:.\Generated_Source\PSoC4/EZI2C_EZI2C.c ****         }
 346:.\Generated_Source\PSoC4/EZI2C_EZI2C.c ****         #else
 347:.\Generated_Source\PSoC4/EZI2C_EZI2C.c ****         {
 348:.\Generated_Source\PSoC4/EZI2C_EZI2C.c ****             slaveBusy = (uint32) EZI2C_CHECK_INTR_SLAVE(EZI2C_INTR_SLAVE_I2C_ADDR_MATCH);
 349:.\Generated_Source\PSoC4/EZI2C_EZI2C.c ****         }
 350:.\Generated_Source\PSoC4/EZI2C_EZI2C.c ****         #endif
 351:.\Generated_Source\PSoC4/EZI2C_EZI2C.c ****     }
 352:.\Generated_Source\PSoC4/EZI2C_EZI2C.c ****     #endif
 353:.\Generated_Source\PSoC4/EZI2C_EZI2C.c **** #endif /* (EZI2C_CY_SCBIP_V0) */
 354:.\Generated_Source\PSoC4/EZI2C_EZI2C.c **** 
 355:.\Generated_Source\PSoC4/EZI2C_EZI2C.c ****     if(0u != slaveBusy)
 237              		.loc 1 355 0
 238 0018 3B68     		ldr	r3, [r7]
 239 001a 002B     		cmp	r3, #0
 240 001c 03D0     		beq	.L8
 356:.\Generated_Source\PSoC4/EZI2C_EZI2C.c ****     {
 357:.\Generated_Source\PSoC4/EZI2C_EZI2C.c ****         status |= EZI2C_EZI2C_STATUS_BUSY;
 241              		.loc 1 357 0
 242 001e 7B68     		ldr	r3, [r7, #4]
 243 0020 2022     		mov	r2, #32
 244 0022 1343     		orr	r3, r2
 245 0024 7B60     		str	r3, [r7, #4]
 246              	.L8:
 358:.\Generated_Source\PSoC4/EZI2C_EZI2C.c ****     }
 359:.\Generated_Source\PSoC4/EZI2C_EZI2C.c **** 
 360:.\Generated_Source\PSoC4/EZI2C_EZI2C.c ****     EZI2C_curStatus &= ((uint8) ~EZI2C_EZI2C_CLEAR_STATUS);
 247              		.loc 1 360 0
 248 0026 084B     		ldr	r3, .L10
 249 0028 1B78     		ldrb	r3, [r3]
 250 002a DBB2     		uxtb	r3, r3
 251 002c 1F22     		mov	r2, #31
 252 002e 9343     		bic	r3, r2
 253 0030 DAB2     		uxtb	r2, r3
 254 0032 054B     		ldr	r3, .L10
 255 0034 1A70     		strb	r2, [r3]
 361:.\Generated_Source\PSoC4/EZI2C_EZI2C.c **** 
 362:.\Generated_Source\PSoC4/EZI2C_EZI2C.c ****     EZI2C_EnableInt();   /* Release lock */
 256              		.loc 1 362 0
 257 0036 0B20     		mov	r0, #11
 258 0038 FFF7FEFF 		bl	CyIntEnable
 363:.\Generated_Source\PSoC4/EZI2C_EZI2C.c **** 
 364:.\Generated_Source\PSoC4/EZI2C_EZI2C.c ****     return(status);
 259              		.loc 1 364 0
 260 003c 7B68     		ldr	r3, [r7, #4]
 365:.\Generated_Source\PSoC4/EZI2C_EZI2C.c **** }
 261              		.loc 1 365 0
 262 003e 181C     		mov	r0, r3
ARM GAS  C:\Users\Greg\AppData\Local\Temp\ccXQPDCP.s 			page 12


 263 0040 BD46     		mov	sp, r7
 264 0042 02B0     		add	sp, sp, #8
 265              		@ sp needed for prologue
 266 0044 80BD     		pop	{r7, pc}
 267              	.L11:
 268 0046 C046     		.align	2
 269              	.L10:
 270 0048 00000000 		.word	EZI2C_curStatus
 271              		.cfi_endproc
 272              	.LFE2:
 273              		.size	EZI2C_EzI2CGetActivity, .-EZI2C_EzI2CGetActivity
 274              		.section	.text.EZI2C_EzI2CSetAddress1,"ax",%progbits
 275              		.align	2
 276              		.global	EZI2C_EzI2CSetAddress1
 277              		.code	16
 278              		.thumb_func
 279              		.type	EZI2C_EzI2CSetAddress1, %function
 280              	EZI2C_EzI2CSetAddress1:
 281              	.LFB3:
 366:.\Generated_Source\PSoC4/EZI2C_EZI2C.c **** 
 367:.\Generated_Source\PSoC4/EZI2C_EZI2C.c **** 
 368:.\Generated_Source\PSoC4/EZI2C_EZI2C.c **** /*******************************************************************************
 369:.\Generated_Source\PSoC4/EZI2C_EZI2C.c **** * Function Name: EZI2C_EzI2CSetAddress1
 370:.\Generated_Source\PSoC4/EZI2C_EZI2C.c **** ********************************************************************************
 371:.\Generated_Source\PSoC4/EZI2C_EZI2C.c **** *
 372:.\Generated_Source\PSoC4/EZI2C_EZI2C.c **** * Summary:
 373:.\Generated_Source\PSoC4/EZI2C_EZI2C.c **** *  Sets the primary I2C slave address.
 374:.\Generated_Source\PSoC4/EZI2C_EZI2C.c **** *
 375:.\Generated_Source\PSoC4/EZI2C_EZI2C.c **** * Parameters:
 376:.\Generated_Source\PSoC4/EZI2C_EZI2C.c **** *  address: I2C slave address for the secondary device.
 377:.\Generated_Source\PSoC4/EZI2C_EZI2C.c **** *           This address is the 7-bit right-justified slave address and does
 378:.\Generated_Source\PSoC4/EZI2C_EZI2C.c **** *           not include the R/W bit.
 379:.\Generated_Source\PSoC4/EZI2C_EZI2C.c **** *           This value may be any address between 0 and 127 (0x00 to 0x7F).
 380:.\Generated_Source\PSoC4/EZI2C_EZI2C.c **** *
 381:.\Generated_Source\PSoC4/EZI2C_EZI2C.c **** * Return:
 382:.\Generated_Source\PSoC4/EZI2C_EZI2C.c **** *  None
 383:.\Generated_Source\PSoC4/EZI2C_EZI2C.c **** *
 384:.\Generated_Source\PSoC4/EZI2C_EZI2C.c **** *******************************************************************************/
 385:.\Generated_Source\PSoC4/EZI2C_EZI2C.c **** void EZI2C_EzI2CSetAddress1(uint32 address)
 386:.\Generated_Source\PSoC4/EZI2C_EZI2C.c **** {
 282              		.loc 1 386 0
 283              		.cfi_startproc
 284 0000 80B5     		push	{r7, lr}
 285              	.LCFI7:
 286              		.cfi_def_cfa_offset 8
 287              		.cfi_offset 7, -8
 288              		.cfi_offset 14, -4
 289 0002 84B0     		sub	sp, sp, #16
 290              	.LCFI8:
 291              		.cfi_def_cfa_offset 24
 292 0004 00AF     		add	r7, sp, #0
 293              	.LCFI9:
 294              		.cfi_def_cfa_register 7
 295 0006 7860     		str	r0, [r7, #4]
 296              	.LBB2:
 387:.\Generated_Source\PSoC4/EZI2C_EZI2C.c ****     #if(EZI2C_SECONDARY_ADDRESS_ENABLE)
 388:.\Generated_Source\PSoC4/EZI2C_EZI2C.c ****     {
ARM GAS  C:\Users\Greg\AppData\Local\Temp\ccXQPDCP.s 			page 13


 389:.\Generated_Source\PSoC4/EZI2C_EZI2C.c ****         EZI2C_addrBuf1 = (uint8) address;
 390:.\Generated_Source\PSoC4/EZI2C_EZI2C.c **** 
 391:.\Generated_Source\PSoC4/EZI2C_EZI2C.c ****         EZI2C_RX_MATCH_REG = EZI2C_EzI2CUpdateRxMatchReg(address,
 392:.\Generated_Source\PSoC4/EZI2C_EZI2C.c ****                                                                                (uint32) EZI2C_addrB
 393:.\Generated_Source\PSoC4/EZI2C_EZI2C.c ****     }
 394:.\Generated_Source\PSoC4/EZI2C_EZI2C.c ****     #else
 395:.\Generated_Source\PSoC4/EZI2C_EZI2C.c ****     {
 396:.\Generated_Source\PSoC4/EZI2C_EZI2C.c ****         uint32 matchReg;
 397:.\Generated_Source\PSoC4/EZI2C_EZI2C.c **** 
 398:.\Generated_Source\PSoC4/EZI2C_EZI2C.c ****         matchReg = EZI2C_RX_MATCH_REG;
 297              		.loc 1 398 0
 298 0008 094B     		ldr	r3, .L13
 299 000a 1B68     		ldr	r3, [r3]
 300 000c FB60     		str	r3, [r7, #12]
 399:.\Generated_Source\PSoC4/EZI2C_EZI2C.c **** 
 400:.\Generated_Source\PSoC4/EZI2C_EZI2C.c ****         matchReg &= ((uint32) ~EZI2C_RX_MATCH_ADDR_MASK);            /* Clear address bits */
 301              		.loc 1 400 0
 302 000e FB68     		ldr	r3, [r7, #12]
 303 0010 FF22     		mov	r2, #255
 304 0012 9343     		bic	r3, r2
 305 0014 FB60     		str	r3, [r7, #12]
 401:.\Generated_Source\PSoC4/EZI2C_EZI2C.c ****         matchReg |= ((uint32)  EZI2C_GET_I2C_8BIT_ADDRESS(address)); /* Set mask */
 306              		.loc 1 401 0
 307 0016 7B68     		ldr	r3, [r7, #4]
 308 0018 5A00     		lsl	r2, r3, #1
 309 001a FF23     		mov	r3, #255
 310 001c 1340     		and	r3, r2
 311 001e FA68     		ldr	r2, [r7, #12]
 312 0020 1343     		orr	r3, r2
 313 0022 FB60     		str	r3, [r7, #12]
 402:.\Generated_Source\PSoC4/EZI2C_EZI2C.c **** 
 403:.\Generated_Source\PSoC4/EZI2C_EZI2C.c ****         EZI2C_RX_MATCH_REG = matchReg;
 314              		.loc 1 403 0
 315 0024 024B     		ldr	r3, .L13
 316 0026 FA68     		ldr	r2, [r7, #12]
 317 0028 1A60     		str	r2, [r3]
 318              	.LBE2:
 404:.\Generated_Source\PSoC4/EZI2C_EZI2C.c ****     }
 405:.\Generated_Source\PSoC4/EZI2C_EZI2C.c ****     #endif
 406:.\Generated_Source\PSoC4/EZI2C_EZI2C.c **** }
 319              		.loc 1 406 0
 320 002a BD46     		mov	sp, r7
 321 002c 04B0     		add	sp, sp, #16
 322              		@ sp needed for prologue
 323 002e 80BD     		pop	{r7, pc}
 324              	.L14:
 325              		.align	2
 326              	.L13:
 327 0030 10030740 		.word	1074201360
 328              		.cfi_endproc
 329              	.LFE3:
 330              		.size	EZI2C_EzI2CSetAddress1, .-EZI2C_EzI2CSetAddress1
 331              		.section	.text.EZI2C_EzI2CGetAddress1,"ax",%progbits
 332              		.align	2
 333              		.global	EZI2C_EzI2CGetAddress1
 334              		.code	16
 335              		.thumb_func
ARM GAS  C:\Users\Greg\AppData\Local\Temp\ccXQPDCP.s 			page 14


 336              		.type	EZI2C_EzI2CGetAddress1, %function
 337              	EZI2C_EzI2CGetAddress1:
 338              	.LFB4:
 407:.\Generated_Source\PSoC4/EZI2C_EZI2C.c **** 
 408:.\Generated_Source\PSoC4/EZI2C_EZI2C.c **** 
 409:.\Generated_Source\PSoC4/EZI2C_EZI2C.c **** /*******************************************************************************
 410:.\Generated_Source\PSoC4/EZI2C_EZI2C.c **** * Function Name: EZI2C_EzI2CGetAddress1
 411:.\Generated_Source\PSoC4/EZI2C_EZI2C.c **** ********************************************************************************
 412:.\Generated_Source\PSoC4/EZI2C_EZI2C.c **** *
 413:.\Generated_Source\PSoC4/EZI2C_EZI2C.c **** * Summary:
 414:.\Generated_Source\PSoC4/EZI2C_EZI2C.c **** *  Gets the primary I2C slave 7-bit address.
 415:.\Generated_Source\PSoC4/EZI2C_EZI2C.c **** *
 416:.\Generated_Source\PSoC4/EZI2C_EZI2C.c **** * Parameters:
 417:.\Generated_Source\PSoC4/EZI2C_EZI2C.c **** *  None
 418:.\Generated_Source\PSoC4/EZI2C_EZI2C.c **** *
 419:.\Generated_Source\PSoC4/EZI2C_EZI2C.c **** * Return:
 420:.\Generated_Source\PSoC4/EZI2C_EZI2C.c **** *  Returns I2C slave address for the primary device.
 421:.\Generated_Source\PSoC4/EZI2C_EZI2C.c **** *  This address is the 7-bit right-justified slave address and does not
 422:.\Generated_Source\PSoC4/EZI2C_EZI2C.c **** *  include the R/W bit.
 423:.\Generated_Source\PSoC4/EZI2C_EZI2C.c **** *  This value may be any address between 0 and 127 (0x00 to 0x7F).
 424:.\Generated_Source\PSoC4/EZI2C_EZI2C.c **** *
 425:.\Generated_Source\PSoC4/EZI2C_EZI2C.c **** *******************************************************************************/
 426:.\Generated_Source\PSoC4/EZI2C_EZI2C.c **** uint32 EZI2C_EzI2CGetAddress1(void)
 427:.\Generated_Source\PSoC4/EZI2C_EZI2C.c **** {
 339              		.loc 1 427 0
 340              		.cfi_startproc
 341 0000 80B5     		push	{r7, lr}
 342              	.LCFI10:
 343              		.cfi_def_cfa_offset 8
 344              		.cfi_offset 7, -8
 345              		.cfi_offset 14, -4
 346 0002 82B0     		sub	sp, sp, #8
 347              	.LCFI11:
 348              		.cfi_def_cfa_offset 16
 349 0004 00AF     		add	r7, sp, #0
 350              	.LCFI12:
 351              		.cfi_def_cfa_register 7
 428:.\Generated_Source\PSoC4/EZI2C_EZI2C.c ****     uint32 address;
 429:.\Generated_Source\PSoC4/EZI2C_EZI2C.c **** 
 430:.\Generated_Source\PSoC4/EZI2C_EZI2C.c ****     #if(EZI2C_SECONDARY_ADDRESS_ENABLE)
 431:.\Generated_Source\PSoC4/EZI2C_EZI2C.c ****     {
 432:.\Generated_Source\PSoC4/EZI2C_EZI2C.c ****         address = (uint32) EZI2C_addrBuf1;
 433:.\Generated_Source\PSoC4/EZI2C_EZI2C.c ****     }
 434:.\Generated_Source\PSoC4/EZI2C_EZI2C.c ****     #else
 435:.\Generated_Source\PSoC4/EZI2C_EZI2C.c ****     {
 436:.\Generated_Source\PSoC4/EZI2C_EZI2C.c ****         address = (EZI2C_GET_RX_MATCH_ADDR(EZI2C_RX_MATCH_REG) >>
 352              		.loc 1 436 0
 353 0006 054B     		ldr	r3, .L17
 354 0008 1A68     		ldr	r2, [r3]
 355 000a FF23     		mov	r3, #255
 356 000c 1340     		and	r3, r2
 357 000e 5B08     		lsr	r3, r3, #1
 358 0010 7B60     		str	r3, [r7, #4]
 437:.\Generated_Source\PSoC4/EZI2C_EZI2C.c ****                    EZI2C_I2C_SLAVE_ADDR_POS);
 438:.\Generated_Source\PSoC4/EZI2C_EZI2C.c ****     }
 439:.\Generated_Source\PSoC4/EZI2C_EZI2C.c ****     #endif
 440:.\Generated_Source\PSoC4/EZI2C_EZI2C.c **** 
ARM GAS  C:\Users\Greg\AppData\Local\Temp\ccXQPDCP.s 			page 15


 441:.\Generated_Source\PSoC4/EZI2C_EZI2C.c ****     return(address);
 359              		.loc 1 441 0
 360 0012 7B68     		ldr	r3, [r7, #4]
 442:.\Generated_Source\PSoC4/EZI2C_EZI2C.c **** }
 361              		.loc 1 442 0
 362 0014 181C     		mov	r0, r3
 363 0016 BD46     		mov	sp, r7
 364 0018 02B0     		add	sp, sp, #8
 365              		@ sp needed for prologue
 366 001a 80BD     		pop	{r7, pc}
 367              	.L18:
 368              		.align	2
 369              	.L17:
 370 001c 10030740 		.word	1074201360
 371              		.cfi_endproc
 372              	.LFE4:
 373              		.size	EZI2C_EzI2CGetAddress1, .-EZI2C_EzI2CGetAddress1
 374              		.section	.text.EZI2C_EzI2CSetBuffer1,"ax",%progbits
 375              		.align	2
 376              		.global	EZI2C_EzI2CSetBuffer1
 377              		.code	16
 378              		.thumb_func
 379              		.type	EZI2C_EzI2CSetBuffer1, %function
 380              	EZI2C_EzI2CSetBuffer1:
 381              	.LFB5:
 443:.\Generated_Source\PSoC4/EZI2C_EZI2C.c **** 
 444:.\Generated_Source\PSoC4/EZI2C_EZI2C.c **** 
 445:.\Generated_Source\PSoC4/EZI2C_EZI2C.c **** /*******************************************************************************
 446:.\Generated_Source\PSoC4/EZI2C_EZI2C.c **** * Function Name: EZI2C_EzI2CSetBuffer1
 447:.\Generated_Source\PSoC4/EZI2C_EZI2C.c **** ********************************************************************************
 448:.\Generated_Source\PSoC4/EZI2C_EZI2C.c **** *
 449:.\Generated_Source\PSoC4/EZI2C_EZI2C.c **** * Summary:
 450:.\Generated_Source\PSoC4/EZI2C_EZI2C.c **** *  Sets up the data buffer to be exposed to the I2C master on a primary slave
 451:.\Generated_Source\PSoC4/EZI2C_EZI2C.c **** *  address request.
 452:.\Generated_Source\PSoC4/EZI2C_EZI2C.c **** *
 453:.\Generated_Source\PSoC4/EZI2C_EZI2C.c **** * Parameters:
 454:.\Generated_Source\PSoC4/EZI2C_EZI2C.c **** *  bufSize: Size of the buffer in bytes.
 455:.\Generated_Source\PSoC4/EZI2C_EZI2C.c **** *  rwBoundary: Sets how many bytes are writeable in the beginning of the buffer.
 456:.\Generated_Source\PSoC4/EZI2C_EZI2C.c **** *              This value must be less than or equal to the buffer size.
 457:.\Generated_Source\PSoC4/EZI2C_EZI2C.c **** *              Data located at offset rwBoundry and greater are read only.
 458:.\Generated_Source\PSoC4/EZI2C_EZI2C.c **** *  buffer: Pointer to the data buffer.
 459:.\Generated_Source\PSoC4/EZI2C_EZI2C.c **** *
 460:.\Generated_Source\PSoC4/EZI2C_EZI2C.c **** * Return:
 461:.\Generated_Source\PSoC4/EZI2C_EZI2C.c **** *  None
 462:.\Generated_Source\PSoC4/EZI2C_EZI2C.c **** *
 463:.\Generated_Source\PSoC4/EZI2C_EZI2C.c **** *******************************************************************************/
 464:.\Generated_Source\PSoC4/EZI2C_EZI2C.c **** void EZI2C_EzI2CSetBuffer1(uint32 bufSize, uint32 rwBoundary, volatile uint8 * buffer)
 465:.\Generated_Source\PSoC4/EZI2C_EZI2C.c **** {
 382              		.loc 1 465 0
 383              		.cfi_startproc
 384 0000 80B5     		push	{r7, lr}
 385              	.LCFI13:
 386              		.cfi_def_cfa_offset 8
 387              		.cfi_offset 7, -8
 388              		.cfi_offset 14, -4
 389 0002 84B0     		sub	sp, sp, #16
 390              	.LCFI14:
ARM GAS  C:\Users\Greg\AppData\Local\Temp\ccXQPDCP.s 			page 16


 391              		.cfi_def_cfa_offset 24
 392 0004 00AF     		add	r7, sp, #0
 393              	.LCFI15:
 394              		.cfi_def_cfa_register 7
 395 0006 F860     		str	r0, [r7, #12]
 396 0008 B960     		str	r1, [r7, #8]
 397 000a 7A60     		str	r2, [r7, #4]
 466:.\Generated_Source\PSoC4/EZI2C_EZI2C.c ****     if(NULL != buffer)
 398              		.loc 1 466 0
 399 000c 7B68     		ldr	r3, [r7, #4]
 400 000e 002B     		cmp	r3, #0
 401 0010 0AD0     		beq	.L19
 467:.\Generated_Source\PSoC4/EZI2C_EZI2C.c ****     {
 468:.\Generated_Source\PSoC4/EZI2C_EZI2C.c ****         EZI2C_dataBuffer1 =  buffer;
 402              		.loc 1 468 0
 403 0012 074B     		ldr	r3, .L21
 404 0014 7A68     		ldr	r2, [r7, #4]
 405 0016 1A60     		str	r2, [r3]
 469:.\Generated_Source\PSoC4/EZI2C_EZI2C.c ****         EZI2C_bufSizeBuf1 = (uint16) bufSize;
 406              		.loc 1 469 0
 407 0018 FB68     		ldr	r3, [r7, #12]
 408 001a 9AB2     		uxth	r2, r3
 409 001c 054B     		ldr	r3, .L21+4
 410 001e 1A80     		strh	r2, [r3]
 470:.\Generated_Source\PSoC4/EZI2C_EZI2C.c ****         EZI2C_protectBuf1 = (uint16) rwBoundary;
 411              		.loc 1 470 0
 412 0020 BB68     		ldr	r3, [r7, #8]
 413 0022 9AB2     		uxth	r2, r3
 414 0024 044B     		ldr	r3, .L21+8
 415 0026 1A80     		strh	r2, [r3]
 416              	.L19:
 471:.\Generated_Source\PSoC4/EZI2C_EZI2C.c ****     }
 472:.\Generated_Source\PSoC4/EZI2C_EZI2C.c **** }
 417              		.loc 1 472 0
 418 0028 BD46     		mov	sp, r7
 419 002a 04B0     		add	sp, sp, #16
 420              		@ sp needed for prologue
 421 002c 80BD     		pop	{r7, pc}
 422              	.L22:
 423 002e C046     		.align	2
 424              	.L21:
 425 0030 00000000 		.word	EZI2C_dataBuffer1
 426 0034 00000000 		.word	EZI2C_bufSizeBuf1
 427 0038 00000000 		.word	EZI2C_protectBuf1
 428              		.cfi_endproc
 429              	.LFE5:
 430              		.size	EZI2C_EzI2CSetBuffer1, .-EZI2C_EzI2CSetBuffer1
 431              		.section	.text.EZI2C_EzI2CSetReadBoundaryBuffer1,"ax",%progbits
 432              		.align	2
 433              		.global	EZI2C_EzI2CSetReadBoundaryBuffer1
 434              		.code	16
 435              		.thumb_func
 436              		.type	EZI2C_EzI2CSetReadBoundaryBuffer1, %function
 437              	EZI2C_EzI2CSetReadBoundaryBuffer1:
 438              	.LFB6:
 473:.\Generated_Source\PSoC4/EZI2C_EZI2C.c **** 
 474:.\Generated_Source\PSoC4/EZI2C_EZI2C.c **** 
ARM GAS  C:\Users\Greg\AppData\Local\Temp\ccXQPDCP.s 			page 17


 475:.\Generated_Source\PSoC4/EZI2C_EZI2C.c **** /*******************************************************************************
 476:.\Generated_Source\PSoC4/EZI2C_EZI2C.c **** * Function Name: EZI2C_EzI2CSetReadBoundaryBuffer1
 477:.\Generated_Source\PSoC4/EZI2C_EZI2C.c **** ********************************************************************************
 478:.\Generated_Source\PSoC4/EZI2C_EZI2C.c **** *
 479:.\Generated_Source\PSoC4/EZI2C_EZI2C.c **** * Summary:
 480:.\Generated_Source\PSoC4/EZI2C_EZI2C.c **** *  Sets the read only boundary in the data buffer to be exposed to the I2C
 481:.\Generated_Source\PSoC4/EZI2C_EZI2C.c **** *  master on a primary slave address request.
 482:.\Generated_Source\PSoC4/EZI2C_EZI2C.c **** *
 483:.\Generated_Source\PSoC4/EZI2C_EZI2C.c **** * Parameters:
 484:.\Generated_Source\PSoC4/EZI2C_EZI2C.c **** *  rwBoundry: Sets how many bytes are writeable in the beginning of the buffer.
 485:.\Generated_Source\PSoC4/EZI2C_EZI2C.c **** *             This value must be less than or equal to the buffer size.
 486:.\Generated_Source\PSoC4/EZI2C_EZI2C.c **** *             Data located at offset rwBoundry and greater are read only.
 487:.\Generated_Source\PSoC4/EZI2C_EZI2C.c **** *
 488:.\Generated_Source\PSoC4/EZI2C_EZI2C.c **** * Return:
 489:.\Generated_Source\PSoC4/EZI2C_EZI2C.c **** *  None
 490:.\Generated_Source\PSoC4/EZI2C_EZI2C.c **** *
 491:.\Generated_Source\PSoC4/EZI2C_EZI2C.c **** *******************************************************************************/
 492:.\Generated_Source\PSoC4/EZI2C_EZI2C.c **** void EZI2C_EzI2CSetReadBoundaryBuffer1(uint32 rwBoundary)
 493:.\Generated_Source\PSoC4/EZI2C_EZI2C.c **** {
 439              		.loc 1 493 0
 440              		.cfi_startproc
 441 0000 80B5     		push	{r7, lr}
 442              	.LCFI16:
 443              		.cfi_def_cfa_offset 8
 444              		.cfi_offset 7, -8
 445              		.cfi_offset 14, -4
 446 0002 82B0     		sub	sp, sp, #8
 447              	.LCFI17:
 448              		.cfi_def_cfa_offset 16
 449 0004 00AF     		add	r7, sp, #0
 450              	.LCFI18:
 451              		.cfi_def_cfa_register 7
 452 0006 7860     		str	r0, [r7, #4]
 494:.\Generated_Source\PSoC4/EZI2C_EZI2C.c ****     EZI2C_protectBuf1 = (uint16) rwBoundary;
 453              		.loc 1 494 0
 454 0008 7B68     		ldr	r3, [r7, #4]
 455 000a 9AB2     		uxth	r2, r3
 456 000c 024B     		ldr	r3, .L24
 457 000e 1A80     		strh	r2, [r3]
 495:.\Generated_Source\PSoC4/EZI2C_EZI2C.c **** }
 458              		.loc 1 495 0
 459 0010 BD46     		mov	sp, r7
 460 0012 02B0     		add	sp, sp, #8
 461              		@ sp needed for prologue
 462 0014 80BD     		pop	{r7, pc}
 463              	.L25:
 464 0016 C046     		.align	2
 465              	.L24:
 466 0018 00000000 		.word	EZI2C_protectBuf1
 467              		.cfi_endproc
 468              	.LFE6:
 469              		.size	EZI2C_EzI2CSetReadBoundaryBuffer1, .-EZI2C_EzI2CSetReadBoundaryBuffer1
 470              		.section	.text.EZI2C_EzI2CSaveConfig,"ax",%progbits
 471              		.align	2
 472              		.global	EZI2C_EzI2CSaveConfig
 473              		.code	16
 474              		.thumb_func
ARM GAS  C:\Users\Greg\AppData\Local\Temp\ccXQPDCP.s 			page 18


 475              		.type	EZI2C_EzI2CSaveConfig, %function
 476              	EZI2C_EzI2CSaveConfig:
 477              	.LFB7:
 496:.\Generated_Source\PSoC4/EZI2C_EZI2C.c **** 
 497:.\Generated_Source\PSoC4/EZI2C_EZI2C.c **** 
 498:.\Generated_Source\PSoC4/EZI2C_EZI2C.c **** #if(EZI2C_SECONDARY_ADDRESS_ENABLE_CONST)
 499:.\Generated_Source\PSoC4/EZI2C_EZI2C.c ****     /*******************************************************************************
 500:.\Generated_Source\PSoC4/EZI2C_EZI2C.c ****     * Function Name: EZI2C_EzI2CUpdateRxMatchReg
 501:.\Generated_Source\PSoC4/EZI2C_EZI2C.c ****     ********************************************************************************
 502:.\Generated_Source\PSoC4/EZI2C_EZI2C.c ****     *
 503:.\Generated_Source\PSoC4/EZI2C_EZI2C.c ****     * Summary:
 504:.\Generated_Source\PSoC4/EZI2C_EZI2C.c ****     *  Returns the value of the RX MATCH register for addr1 and addr2. The addr1 is
 505:.\Generated_Source\PSoC4/EZI2C_EZI2C.c ****     *  accepted as the primary address and it is written to RX_MATCH.ADDRESS
 506:.\Generated_Source\PSoC4/EZI2C_EZI2C.c ****     *  (addr1 << 0x01).
 507:.\Generated_Source\PSoC4/EZI2C_EZI2C.c ****     *  The RX_MATCH.MASK is set as follow: addr1 and addr2 equal bits set to 1
 508:.\Generated_Source\PSoC4/EZI2C_EZI2C.c ****     *  otherwise 0.
 509:.\Generated_Source\PSoC4/EZI2C_EZI2C.c ****     *
 510:.\Generated_Source\PSoC4/EZI2C_EZI2C.c ****     * Parameters:
 511:.\Generated_Source\PSoC4/EZI2C_EZI2C.c ****     *  addr1: I2C slave address for the primary device.
 512:.\Generated_Source\PSoC4/EZI2C_EZI2C.c ****     *  addr2: I2C slave address for the secondary device.
 513:.\Generated_Source\PSoC4/EZI2C_EZI2C.c ****     *         This address is the 7-bit right-justified slave address and does
 514:.\Generated_Source\PSoC4/EZI2C_EZI2C.c ****     *         not include the R/W bit.
 515:.\Generated_Source\PSoC4/EZI2C_EZI2C.c ****     *         This value may be any address between 0 and 127 (0x00 to 0x7F).
 516:.\Generated_Source\PSoC4/EZI2C_EZI2C.c ****     *
 517:.\Generated_Source\PSoC4/EZI2C_EZI2C.c ****     * Return:
 518:.\Generated_Source\PSoC4/EZI2C_EZI2C.c ****     *  Value of RX MATCH register.
 519:.\Generated_Source\PSoC4/EZI2C_EZI2C.c ****     *
 520:.\Generated_Source\PSoC4/EZI2C_EZI2C.c ****     *******************************************************************************/
 521:.\Generated_Source\PSoC4/EZI2C_EZI2C.c ****     static uint32 EZI2C_EzI2CUpdateRxMatchReg(uint32 addr1, uint32 addr2)
 522:.\Generated_Source\PSoC4/EZI2C_EZI2C.c ****     {
 523:.\Generated_Source\PSoC4/EZI2C_EZI2C.c ****         uint32 matchReg;
 524:.\Generated_Source\PSoC4/EZI2C_EZI2C.c **** 
 525:.\Generated_Source\PSoC4/EZI2C_EZI2C.c ****         matchReg  = ~(addr1 ^ addr2); /* If (addr1 and addr2) bit matches - mask bit equal 1, in ot
 526:.\Generated_Source\PSoC4/EZI2C_EZI2C.c **** 
 527:.\Generated_Source\PSoC4/EZI2C_EZI2C.c ****         matchReg  = (uint32) (EZI2C_GET_I2C_8BIT_ADDRESS(matchReg) << EZI2C_RX_MATCH_MASK_POS);
 528:.\Generated_Source\PSoC4/EZI2C_EZI2C.c ****         matchReg |= EZI2C_GET_I2C_8BIT_ADDRESS(addr1);
 529:.\Generated_Source\PSoC4/EZI2C_EZI2C.c **** 
 530:.\Generated_Source\PSoC4/EZI2C_EZI2C.c ****         return(matchReg);
 531:.\Generated_Source\PSoC4/EZI2C_EZI2C.c ****     }
 532:.\Generated_Source\PSoC4/EZI2C_EZI2C.c **** 
 533:.\Generated_Source\PSoC4/EZI2C_EZI2C.c ****     /*******************************************************************************
 534:.\Generated_Source\PSoC4/EZI2C_EZI2C.c ****     * Function Name: EZI2C_EzI2CSetAddress2
 535:.\Generated_Source\PSoC4/EZI2C_EZI2C.c ****     ********************************************************************************
 536:.\Generated_Source\PSoC4/EZI2C_EZI2C.c ****     *
 537:.\Generated_Source\PSoC4/EZI2C_EZI2C.c ****     * Summary:
 538:.\Generated_Source\PSoC4/EZI2C_EZI2C.c ****     *  Sets the secondary I2C slave address.
 539:.\Generated_Source\PSoC4/EZI2C_EZI2C.c ****     *
 540:.\Generated_Source\PSoC4/EZI2C_EZI2C.c ****     * Parameters:
 541:.\Generated_Source\PSoC4/EZI2C_EZI2C.c ****     *  address: I2C slave address for the secondary device.
 542:.\Generated_Source\PSoC4/EZI2C_EZI2C.c ****     *           This address is the 7-bit right-justified slave address and does
 543:.\Generated_Source\PSoC4/EZI2C_EZI2C.c ****     *           not include the R/W bit.
 544:.\Generated_Source\PSoC4/EZI2C_EZI2C.c ****     *           This value may be any address between 0 and 127 (0x00 to 0x7F).
 545:.\Generated_Source\PSoC4/EZI2C_EZI2C.c ****     *
 546:.\Generated_Source\PSoC4/EZI2C_EZI2C.c ****     * Return:
 547:.\Generated_Source\PSoC4/EZI2C_EZI2C.c ****     *  None
 548:.\Generated_Source\PSoC4/EZI2C_EZI2C.c ****     *
 549:.\Generated_Source\PSoC4/EZI2C_EZI2C.c ****     *******************************************************************************/
ARM GAS  C:\Users\Greg\AppData\Local\Temp\ccXQPDCP.s 			page 19


 550:.\Generated_Source\PSoC4/EZI2C_EZI2C.c ****     void EZI2C_EzI2CSetAddress2(uint32 address)
 551:.\Generated_Source\PSoC4/EZI2C_EZI2C.c ****     {
 552:.\Generated_Source\PSoC4/EZI2C_EZI2C.c ****         EZI2C_addrBuf2 = (uint8) address;
 553:.\Generated_Source\PSoC4/EZI2C_EZI2C.c **** 
 554:.\Generated_Source\PSoC4/EZI2C_EZI2C.c ****         EZI2C_RX_MATCH_REG = EZI2C_EzI2CUpdateRxMatchReg((uint32) EZI2C_addrBuf1,
 555:.\Generated_Source\PSoC4/EZI2C_EZI2C.c ****                                                                                address);
 556:.\Generated_Source\PSoC4/EZI2C_EZI2C.c ****     }
 557:.\Generated_Source\PSoC4/EZI2C_EZI2C.c **** 
 558:.\Generated_Source\PSoC4/EZI2C_EZI2C.c **** 
 559:.\Generated_Source\PSoC4/EZI2C_EZI2C.c ****     /*******************************************************************************
 560:.\Generated_Source\PSoC4/EZI2C_EZI2C.c ****     * Function Name: EZI2C_EzI2CGetAddress2
 561:.\Generated_Source\PSoC4/EZI2C_EZI2C.c ****     ********************************************************************************
 562:.\Generated_Source\PSoC4/EZI2C_EZI2C.c ****     *
 563:.\Generated_Source\PSoC4/EZI2C_EZI2C.c ****     * Summary:
 564:.\Generated_Source\PSoC4/EZI2C_EZI2C.c ****     *  Gets secondary the I2C slave 7-bit address.
 565:.\Generated_Source\PSoC4/EZI2C_EZI2C.c ****     *
 566:.\Generated_Source\PSoC4/EZI2C_EZI2C.c ****     * Parameters:
 567:.\Generated_Source\PSoC4/EZI2C_EZI2C.c ****     *  None
 568:.\Generated_Source\PSoC4/EZI2C_EZI2C.c ****     *
 569:.\Generated_Source\PSoC4/EZI2C_EZI2C.c ****     * Return:
 570:.\Generated_Source\PSoC4/EZI2C_EZI2C.c ****     *  Returns the I2C slave address for the secondary device.
 571:.\Generated_Source\PSoC4/EZI2C_EZI2C.c ****     *  This address is a 7-bit right-justified slave address and does not
 572:.\Generated_Source\PSoC4/EZI2C_EZI2C.c ****     *  include the R/W bit.
 573:.\Generated_Source\PSoC4/EZI2C_EZI2C.c ****     *  This value may be any address between 0 and 127 (0x00 to 0x7F).
 574:.\Generated_Source\PSoC4/EZI2C_EZI2C.c ****     *
 575:.\Generated_Source\PSoC4/EZI2C_EZI2C.c ****     *******************************************************************************/
 576:.\Generated_Source\PSoC4/EZI2C_EZI2C.c ****     uint32 EZI2C_EzI2CGetAddress2(void)
 577:.\Generated_Source\PSoC4/EZI2C_EZI2C.c ****     {
 578:.\Generated_Source\PSoC4/EZI2C_EZI2C.c ****         return((uint32) EZI2C_addrBuf2);
 579:.\Generated_Source\PSoC4/EZI2C_EZI2C.c ****     }
 580:.\Generated_Source\PSoC4/EZI2C_EZI2C.c **** 
 581:.\Generated_Source\PSoC4/EZI2C_EZI2C.c **** 
 582:.\Generated_Source\PSoC4/EZI2C_EZI2C.c ****     /*******************************************************************************
 583:.\Generated_Source\PSoC4/EZI2C_EZI2C.c ****     * Function Name: EZI2C_EzI2CSetBuffer2
 584:.\Generated_Source\PSoC4/EZI2C_EZI2C.c ****     ********************************************************************************
 585:.\Generated_Source\PSoC4/EZI2C_EZI2C.c ****     *
 586:.\Generated_Source\PSoC4/EZI2C_EZI2C.c ****     * Summary:
 587:.\Generated_Source\PSoC4/EZI2C_EZI2C.c ****     *  Sets up the data buffer to be exposed to the I2C master on a secondary slave
 588:.\Generated_Source\PSoC4/EZI2C_EZI2C.c ****     *  address request.
 589:.\Generated_Source\PSoC4/EZI2C_EZI2C.c ****     *
 590:.\Generated_Source\PSoC4/EZI2C_EZI2C.c ****     * Parameters:
 591:.\Generated_Source\PSoC4/EZI2C_EZI2C.c ****     *  bufSize: Size of the buffer in bytes.
 592:.\Generated_Source\PSoC4/EZI2C_EZI2C.c ****     *  rwBoundary: Sets how many bytes are writeable in the beginning of the buffer.
 593:.\Generated_Source\PSoC4/EZI2C_EZI2C.c ****     *              This value must be less than or equal to the buffer size.
 594:.\Generated_Source\PSoC4/EZI2C_EZI2C.c ****     *              Data located at offset rwBoundry and greater are read only.
 595:.\Generated_Source\PSoC4/EZI2C_EZI2C.c ****     *  buffer: Pointer to the data buffer.
 596:.\Generated_Source\PSoC4/EZI2C_EZI2C.c ****     *
 597:.\Generated_Source\PSoC4/EZI2C_EZI2C.c ****     * Return:
 598:.\Generated_Source\PSoC4/EZI2C_EZI2C.c ****     *  None
 599:.\Generated_Source\PSoC4/EZI2C_EZI2C.c ****     *
 600:.\Generated_Source\PSoC4/EZI2C_EZI2C.c ****     *******************************************************************************/
 601:.\Generated_Source\PSoC4/EZI2C_EZI2C.c ****     void EZI2C_EzI2CSetBuffer2(uint32 bufSize, uint32 rwBoundary, volatile uint8 * buffer)
 602:.\Generated_Source\PSoC4/EZI2C_EZI2C.c ****     {
 603:.\Generated_Source\PSoC4/EZI2C_EZI2C.c ****         if(NULL != buffer)
 604:.\Generated_Source\PSoC4/EZI2C_EZI2C.c ****         {
 605:.\Generated_Source\PSoC4/EZI2C_EZI2C.c ****             EZI2C_dataBuffer2 =  buffer;
 606:.\Generated_Source\PSoC4/EZI2C_EZI2C.c ****             EZI2C_bufSizeBuf2 = (uint16) bufSize;
ARM GAS  C:\Users\Greg\AppData\Local\Temp\ccXQPDCP.s 			page 20


 607:.\Generated_Source\PSoC4/EZI2C_EZI2C.c ****             EZI2C_protectBuf2 = (uint16) rwBoundary;
 608:.\Generated_Source\PSoC4/EZI2C_EZI2C.c ****         }
 609:.\Generated_Source\PSoC4/EZI2C_EZI2C.c ****     }
 610:.\Generated_Source\PSoC4/EZI2C_EZI2C.c **** 
 611:.\Generated_Source\PSoC4/EZI2C_EZI2C.c **** 
 612:.\Generated_Source\PSoC4/EZI2C_EZI2C.c ****     /*******************************************************************************
 613:.\Generated_Source\PSoC4/EZI2C_EZI2C.c ****     * Function Name: EZI2C_EzI2CSetReadBoundaryBuffer2
 614:.\Generated_Source\PSoC4/EZI2C_EZI2C.c ****     ********************************************************************************
 615:.\Generated_Source\PSoC4/EZI2C_EZI2C.c ****     *
 616:.\Generated_Source\PSoC4/EZI2C_EZI2C.c ****     * Summary:
 617:.\Generated_Source\PSoC4/EZI2C_EZI2C.c ****     *  Sets the read only boundary in the data buffer to be exposed to the I2C
 618:.\Generated_Source\PSoC4/EZI2C_EZI2C.c ****     *  master on a secondary address request.
 619:.\Generated_Source\PSoC4/EZI2C_EZI2C.c ****     *
 620:.\Generated_Source\PSoC4/EZI2C_EZI2C.c ****     * Parameters:
 621:.\Generated_Source\PSoC4/EZI2C_EZI2C.c ****     *  rwBoundary: Sets how many bytes are writeable at the beginning of the buffer.
 622:.\Generated_Source\PSoC4/EZI2C_EZI2C.c ****     *              This value must be less than or equal to the buffer size.
 623:.\Generated_Source\PSoC4/EZI2C_EZI2C.c ****     *              Data located at offset rwBoundry and greater are read only.
 624:.\Generated_Source\PSoC4/EZI2C_EZI2C.c ****     *
 625:.\Generated_Source\PSoC4/EZI2C_EZI2C.c ****     * Return:
 626:.\Generated_Source\PSoC4/EZI2C_EZI2C.c ****     *  None
 627:.\Generated_Source\PSoC4/EZI2C_EZI2C.c ****     *
 628:.\Generated_Source\PSoC4/EZI2C_EZI2C.c ****     *******************************************************************************/
 629:.\Generated_Source\PSoC4/EZI2C_EZI2C.c ****     void EZI2C_EzI2CSetReadBoundaryBuffer2(uint32 rwBoundary)
 630:.\Generated_Source\PSoC4/EZI2C_EZI2C.c ****     {
 631:.\Generated_Source\PSoC4/EZI2C_EZI2C.c ****         EZI2C_protectBuf2 = (uint16) rwBoundary;
 632:.\Generated_Source\PSoC4/EZI2C_EZI2C.c ****     }
 633:.\Generated_Source\PSoC4/EZI2C_EZI2C.c **** 
 634:.\Generated_Source\PSoC4/EZI2C_EZI2C.c **** #endif /* (EZI2C_SECONDARY_ADDRESS_ENABLE_CONST) */
 635:.\Generated_Source\PSoC4/EZI2C_EZI2C.c **** 
 636:.\Generated_Source\PSoC4/EZI2C_EZI2C.c **** 
 637:.\Generated_Source\PSoC4/EZI2C_EZI2C.c **** #if(EZI2C_EZI2C_WAKE_ENABLE_CONST)
 638:.\Generated_Source\PSoC4/EZI2C_EZI2C.c ****     /*******************************************************************************
 639:.\Generated_Source\PSoC4/EZI2C_EZI2C.c ****     * Function Name: EZI2C_EzI2CSaveConfig
 640:.\Generated_Source\PSoC4/EZI2C_EZI2C.c ****     ********************************************************************************
 641:.\Generated_Source\PSoC4/EZI2C_EZI2C.c ****     *
 642:.\Generated_Source\PSoC4/EZI2C_EZI2C.c ****     * Summary:
 643:.\Generated_Source\PSoC4/EZI2C_EZI2C.c ****     *  Clock stretching is  enabled: Disables INTR_I2C_EC.WAKE_UP interrupt source.
 644:.\Generated_Source\PSoC4/EZI2C_EZI2C.c ****     *  It triggers on the slave address match.
 645:.\Generated_Source\PSoC4/EZI2C_EZI2C.c ****     *  Clock stretching is disabled: waits until the I2C slave becomes free and
 646:.\Generated_Source\PSoC4/EZI2C_EZI2C.c ****     *  disables the block to perform reconfiguration from the active mode operation
 647:.\Generated_Source\PSoC4/EZI2C_EZI2C.c ****     *  to deep sleep with wake up on the address match: enables the INTR_I2C_EC.WAKE_UP
 648:.\Generated_Source\PSoC4/EZI2C_EZI2C.c ****     *  interrupt source and disables the INTR_S and INTR_TX interrupt sources.
 649:.\Generated_Source\PSoC4/EZI2C_EZI2C.c ****     *  The block is disabled before reconfiguration and enabled when
 650:.\Generated_Source\PSoC4/EZI2C_EZI2C.c ****     *  it is completed.
 651:.\Generated_Source\PSoC4/EZI2C_EZI2C.c ****     *
 652:.\Generated_Source\PSoC4/EZI2C_EZI2C.c ****     * Parameters:
 653:.\Generated_Source\PSoC4/EZI2C_EZI2C.c ****     *  None
 654:.\Generated_Source\PSoC4/EZI2C_EZI2C.c ****     *
 655:.\Generated_Source\PSoC4/EZI2C_EZI2C.c ****     * Return:
 656:.\Generated_Source\PSoC4/EZI2C_EZI2C.c ****     *  None
 657:.\Generated_Source\PSoC4/EZI2C_EZI2C.c ****     *
 658:.\Generated_Source\PSoC4/EZI2C_EZI2C.c ****     *******************************************************************************/
 659:.\Generated_Source\PSoC4/EZI2C_EZI2C.c ****     void EZI2C_EzI2CSaveConfig(void)
 660:.\Generated_Source\PSoC4/EZI2C_EZI2C.c ****     {
 478              		.loc 1 660 0
 479              		.cfi_startproc
 480 0000 80B5     		push	{r7, lr}
ARM GAS  C:\Users\Greg\AppData\Local\Temp\ccXQPDCP.s 			page 21


 481              	.LCFI19:
 482              		.cfi_def_cfa_offset 8
 483              		.cfi_offset 7, -8
 484              		.cfi_offset 14, -4
 485 0002 00AF     		add	r7, sp, #0
 486              	.LCFI20:
 487              		.cfi_def_cfa_register 7
 661:.\Generated_Source\PSoC4/EZI2C_EZI2C.c ****     #if(EZI2C_CY_SCBIP_V0)
 662:.\Generated_Source\PSoC4/EZI2C_EZI2C.c **** 
 663:.\Generated_Source\PSoC4/EZI2C_EZI2C.c ****         #if(EZI2C_EZI2C_SCL_STRETCH_ENABLE)
 664:.\Generated_Source\PSoC4/EZI2C_EZI2C.c ****         {
 665:.\Generated_Source\PSoC4/EZI2C_EZI2C.c ****             /* Enable wakeup interrupt source on address match */
 666:.\Generated_Source\PSoC4/EZI2C_EZI2C.c ****             EZI2C_SetI2CExtClkInterruptMode(EZI2C_INTR_I2C_EC_WAKE_UP);
 488              		.loc 1 666 0
 489 0004 024B     		ldr	r3, .L27
 490 0006 0122     		mov	r2, #1
 491 0008 1A60     		str	r2, [r3]
 667:.\Generated_Source\PSoC4/EZI2C_EZI2C.c ****         }
 668:.\Generated_Source\PSoC4/EZI2C_EZI2C.c ****         #endif
 669:.\Generated_Source\PSoC4/EZI2C_EZI2C.c **** 
 670:.\Generated_Source\PSoC4/EZI2C_EZI2C.c ****     #else
 671:.\Generated_Source\PSoC4/EZI2C_EZI2C.c ****         uint8 enableInt;
 672:.\Generated_Source\PSoC4/EZI2C_EZI2C.c **** 
 673:.\Generated_Source\PSoC4/EZI2C_EZI2C.c ****         enableInt = (uint8) EZI2C_INTR_I2C_EC_WAKE_UP;
 674:.\Generated_Source\PSoC4/EZI2C_EZI2C.c **** 
 675:.\Generated_Source\PSoC4/EZI2C_EZI2C.c ****         #if(EZI2C_EZI2C_SCL_STRETCH_ENABLE)
 676:.\Generated_Source\PSoC4/EZI2C_EZI2C.c ****         {
 677:.\Generated_Source\PSoC4/EZI2C_EZI2C.c ****             /* Enable interrupt source to wakeup the device */
 678:.\Generated_Source\PSoC4/EZI2C_EZI2C.c ****             EZI2C_SetI2CExtClkInterruptMode(enableInt);
 679:.\Generated_Source\PSoC4/EZI2C_EZI2C.c ****         }
 680:.\Generated_Source\PSoC4/EZI2C_EZI2C.c ****         #else
 681:.\Generated_Source\PSoC4/EZI2C_EZI2C.c ****         {
 682:.\Generated_Source\PSoC4/EZI2C_EZI2C.c ****             for(;;) /* Wait for end of transaction intended to slave */
 683:.\Generated_Source\PSoC4/EZI2C_EZI2C.c ****             {
 684:.\Generated_Source\PSoC4/EZI2C_EZI2C.c ****                 if(0u == (EZI2C_GetI2CExtClkInterruptSource() & EZI2C_INTR_I2C_EC_WAKE_UP))
 685:.\Generated_Source\PSoC4/EZI2C_EZI2C.c ****                 {
 686:.\Generated_Source\PSoC4/EZI2C_EZI2C.c ****                     enableInt = CyEnterCriticalSection();
 687:.\Generated_Source\PSoC4/EZI2C_EZI2C.c **** 
 688:.\Generated_Source\PSoC4/EZI2C_EZI2C.c ****                     if(0u == (EZI2C_GetI2CExtClkInterruptSource() & EZI2C_INTR_I2C_EC_WAKE_UP))
 689:.\Generated_Source\PSoC4/EZI2C_EZI2C.c ****                     {
 690:.\Generated_Source\PSoC4/EZI2C_EZI2C.c ****                         /* Attempts to set NACK command before disable block */
 691:.\Generated_Source\PSoC4/EZI2C_EZI2C.c ****                         EZI2C_I2C_SLAVE_GENERATE_NACK;
 692:.\Generated_Source\PSoC4/EZI2C_EZI2C.c **** 
 693:.\Generated_Source\PSoC4/EZI2C_EZI2C.c ****                         if(0u == (EZI2C_GetI2CExtClkInterruptSource() & EZI2C_INTR_I2C_EC_WAKE_UP))
 694:.\Generated_Source\PSoC4/EZI2C_EZI2C.c ****                         {
 695:.\Generated_Source\PSoC4/EZI2C_EZI2C.c ****                             /* NACK command was set before. It is safe to disable block */
 696:.\Generated_Source\PSoC4/EZI2C_EZI2C.c ****                             EZI2C_CTRL_REG &= (uint32) ~EZI2C_CTRL_ENABLED;
 697:.\Generated_Source\PSoC4/EZI2C_EZI2C.c ****                             EZI2C_DisableInt();
 698:.\Generated_Source\PSoC4/EZI2C_EZI2C.c **** 
 699:.\Generated_Source\PSoC4/EZI2C_EZI2C.c ****                             CyExitCriticalSection(enableInt);
 700:.\Generated_Source\PSoC4/EZI2C_EZI2C.c ****                             break;
 701:.\Generated_Source\PSoC4/EZI2C_EZI2C.c ****                         }
 702:.\Generated_Source\PSoC4/EZI2C_EZI2C.c ****                         else
 703:.\Generated_Source\PSoC4/EZI2C_EZI2C.c ****                         {
 704:.\Generated_Source\PSoC4/EZI2C_EZI2C.c ****                             /* Clear NACK command to prevent data NACK */
 705:.\Generated_Source\PSoC4/EZI2C_EZI2C.c ****                             EZI2C_I2C_SLAVE_CLEAR_NACK;
 706:.\Generated_Source\PSoC4/EZI2C_EZI2C.c ****                         }
ARM GAS  C:\Users\Greg\AppData\Local\Temp\ccXQPDCP.s 			page 22


 707:.\Generated_Source\PSoC4/EZI2C_EZI2C.c ****                     }
 708:.\Generated_Source\PSoC4/EZI2C_EZI2C.c **** 
 709:.\Generated_Source\PSoC4/EZI2C_EZI2C.c ****                     CyExitCriticalSection(enableInt);
 710:.\Generated_Source\PSoC4/EZI2C_EZI2C.c ****                 }
 711:.\Generated_Source\PSoC4/EZI2C_EZI2C.c ****             }
 712:.\Generated_Source\PSoC4/EZI2C_EZI2C.c **** 
 713:.\Generated_Source\PSoC4/EZI2C_EZI2C.c ****             /* Disable all active mode interrupt sources */
 714:.\Generated_Source\PSoC4/EZI2C_EZI2C.c ****             EZI2C_SetTxInterruptMode(EZI2C_NO_INTR_SOURCES);
 715:.\Generated_Source\PSoC4/EZI2C_EZI2C.c ****             EZI2C_SetSlaveInterruptMode(EZI2C_NO_INTR_SOURCES);
 716:.\Generated_Source\PSoC4/EZI2C_EZI2C.c ****             EZI2C_ClearPendingInt();
 717:.\Generated_Source\PSoC4/EZI2C_EZI2C.c ****             EZI2C_EnableInt();
 718:.\Generated_Source\PSoC4/EZI2C_EZI2C.c **** 
 719:.\Generated_Source\PSoC4/EZI2C_EZI2C.c ****             /* Enable wakeup interrupt on address match */
 720:.\Generated_Source\PSoC4/EZI2C_EZI2C.c ****             EZI2C_SetI2CExtClkInterruptMode(EZI2C_INTR_I2C_EC_WAKE_UP);
 721:.\Generated_Source\PSoC4/EZI2C_EZI2C.c **** 
 722:.\Generated_Source\PSoC4/EZI2C_EZI2C.c ****             enableInt = CyEnterCriticalSection();
 723:.\Generated_Source\PSoC4/EZI2C_EZI2C.c **** 
 724:.\Generated_Source\PSoC4/EZI2C_EZI2C.c ****             EZI2C_CTRL_REG |= (uint32) EZI2C_CTRL_ENABLED;
 725:.\Generated_Source\PSoC4/EZI2C_EZI2C.c ****             EZI2C_I2C_SLAVE_GENERATE_NACK;
 726:.\Generated_Source\PSoC4/EZI2C_EZI2C.c **** 
 727:.\Generated_Source\PSoC4/EZI2C_EZI2C.c ****             CyExitCriticalSection(enableInt);
 728:.\Generated_Source\PSoC4/EZI2C_EZI2C.c ****         }
 729:.\Generated_Source\PSoC4/EZI2C_EZI2C.c ****         #endif
 730:.\Generated_Source\PSoC4/EZI2C_EZI2C.c ****     #endif /* (EZI2C_CY_SCBIP_V0) */
 731:.\Generated_Source\PSoC4/EZI2C_EZI2C.c ****     }
 492              		.loc 1 731 0
 493 000a BD46     		mov	sp, r7
 494              		@ sp needed for prologue
 495 000c 80BD     		pop	{r7, pc}
 496              	.L28:
 497 000e C046     		.align	2
 498              	.L27:
 499 0010 880E0740 		.word	1074204296
 500              		.cfi_endproc
 501              	.LFE7:
 502              		.size	EZI2C_EzI2CSaveConfig, .-EZI2C_EzI2CSaveConfig
 503              		.section	.text.EZI2C_EzI2CRestoreConfig,"ax",%progbits
 504              		.align	2
 505              		.global	EZI2C_EzI2CRestoreConfig
 506              		.code	16
 507              		.thumb_func
 508              		.type	EZI2C_EzI2CRestoreConfig, %function
 509              	EZI2C_EzI2CRestoreConfig:
 510              	.LFB8:
 732:.\Generated_Source\PSoC4/EZI2C_EZI2C.c **** 
 733:.\Generated_Source\PSoC4/EZI2C_EZI2C.c **** 
 734:.\Generated_Source\PSoC4/EZI2C_EZI2C.c ****     /*******************************************************************************
 735:.\Generated_Source\PSoC4/EZI2C_EZI2C.c ****     * Function Name: EZI2C_EzI2CRestoreConfig
 736:.\Generated_Source\PSoC4/EZI2C_EZI2C.c ****     ********************************************************************************
 737:.\Generated_Source\PSoC4/EZI2C_EZI2C.c ****     *
 738:.\Generated_Source\PSoC4/EZI2C_EZI2C.c ****     * Summary:
 739:.\Generated_Source\PSoC4/EZI2C_EZI2C.c ****     *  Clock stretching is  enabled: Disables the INTR_I2C_EC.WAKE_UP interrupt source.
 740:.\Generated_Source\PSoC4/EZI2C_EZI2C.c ****     *  Clock stretching is disabled: Reconfigures the EZI2C component from deep sleep
 741:.\Generated_Source\PSoC4/EZI2C_EZI2C.c ****     *  (wake up on the address match) to active operation: disables the INTR_I2C_EC.WAKE_UP
 742:.\Generated_Source\PSoC4/EZI2C_EZI2C.c ****     *  interrupt source and restores the INTR_S. interrupt sources to operate in
 743:.\Generated_Source\PSoC4/EZI2C_EZI2C.c ****     *  the active mode. The block is disabled before reconfiguration and enabled when
 744:.\Generated_Source\PSoC4/EZI2C_EZI2C.c ****     *  it is completed.
ARM GAS  C:\Users\Greg\AppData\Local\Temp\ccXQPDCP.s 			page 23


 745:.\Generated_Source\PSoC4/EZI2C_EZI2C.c ****     *
 746:.\Generated_Source\PSoC4/EZI2C_EZI2C.c ****     * Parameters:
 747:.\Generated_Source\PSoC4/EZI2C_EZI2C.c ****     *  None
 748:.\Generated_Source\PSoC4/EZI2C_EZI2C.c ****     *
 749:.\Generated_Source\PSoC4/EZI2C_EZI2C.c ****     * Return:
 750:.\Generated_Source\PSoC4/EZI2C_EZI2C.c ****     *  None
 751:.\Generated_Source\PSoC4/EZI2C_EZI2C.c ****     *
 752:.\Generated_Source\PSoC4/EZI2C_EZI2C.c ****     *******************************************************************************/
 753:.\Generated_Source\PSoC4/EZI2C_EZI2C.c ****     void EZI2C_EzI2CRestoreConfig(void)
 754:.\Generated_Source\PSoC4/EZI2C_EZI2C.c ****     {
 511              		.loc 1 754 0
 512              		.cfi_startproc
 513 0000 80B5     		push	{r7, lr}
 514              	.LCFI21:
 515              		.cfi_def_cfa_offset 8
 516              		.cfi_offset 7, -8
 517              		.cfi_offset 14, -4
 518 0002 00AF     		add	r7, sp, #0
 519              	.LCFI22:
 520              		.cfi_def_cfa_register 7
 755:.\Generated_Source\PSoC4/EZI2C_EZI2C.c ****     #if(EZI2C_CY_SCBIP_V0)
 756:.\Generated_Source\PSoC4/EZI2C_EZI2C.c **** 
 757:.\Generated_Source\PSoC4/EZI2C_EZI2C.c ****         #if(EZI2C_EZI2C_SCL_STRETCH_ENABLE)
 758:.\Generated_Source\PSoC4/EZI2C_EZI2C.c ****         {
 759:.\Generated_Source\PSoC4/EZI2C_EZI2C.c ****             /* Disable wakeup interrupt on address match */
 760:.\Generated_Source\PSoC4/EZI2C_EZI2C.c ****             EZI2C_SetI2CExtClkInterruptMode(EZI2C_NO_INTR_SOURCES);
 521              		.loc 1 760 0
 522 0004 024B     		ldr	r3, .L30
 523 0006 0022     		mov	r2, #0
 524 0008 1A60     		str	r2, [r3]
 761:.\Generated_Source\PSoC4/EZI2C_EZI2C.c ****         }
 762:.\Generated_Source\PSoC4/EZI2C_EZI2C.c ****         #endif
 763:.\Generated_Source\PSoC4/EZI2C_EZI2C.c **** 
 764:.\Generated_Source\PSoC4/EZI2C_EZI2C.c ****     #else
 765:.\Generated_Source\PSoC4/EZI2C_EZI2C.c **** 
 766:.\Generated_Source\PSoC4/EZI2C_EZI2C.c ****         #if(EZI2C_EZI2C_SCL_STRETCH_ENABLE)
 767:.\Generated_Source\PSoC4/EZI2C_EZI2C.c ****         {
 768:.\Generated_Source\PSoC4/EZI2C_EZI2C.c ****             /* Disables wakeup interrupt source on address match */
 769:.\Generated_Source\PSoC4/EZI2C_EZI2C.c ****             EZI2C_SetI2CExtClkInterruptMode(EZI2C_NO_INTR_SOURCES);
 770:.\Generated_Source\PSoC4/EZI2C_EZI2C.c ****         }
 771:.\Generated_Source\PSoC4/EZI2C_EZI2C.c ****         #else
 772:.\Generated_Source\PSoC4/EZI2C_EZI2C.c ****         {
 773:.\Generated_Source\PSoC4/EZI2C_EZI2C.c ****             /* NACK will be driven on the bus by wakeup or NACK command.
 774:.\Generated_Source\PSoC4/EZI2C_EZI2C.c ****             * It is safe to disable block to restore active mode configuration.
 775:.\Generated_Source\PSoC4/EZI2C_EZI2C.c ****             */
 776:.\Generated_Source\PSoC4/EZI2C_EZI2C.c ****             EZI2C_CTRL_REG &= (uint32) ~EZI2C_CTRL_ENABLED;
 777:.\Generated_Source\PSoC4/EZI2C_EZI2C.c **** 
 778:.\Generated_Source\PSoC4/EZI2C_EZI2C.c ****             /* Restore active mode interrupt sources */
 779:.\Generated_Source\PSoC4/EZI2C_EZI2C.c ****             EZI2C_SetI2CExtClkInterruptMode(EZI2C_NO_INTR_SOURCES);
 780:.\Generated_Source\PSoC4/EZI2C_EZI2C.c ****             EZI2C_SetSlaveInterruptMode(EZI2C_EZI2C_INTR_SLAVE_MASK |
 781:.\Generated_Source\PSoC4/EZI2C_EZI2C.c ****                                                    EZI2C_INTR_SLAVE_I2C_START);
 782:.\Generated_Source\PSoC4/EZI2C_EZI2C.c ****             EZI2C_ClearPendingInt();
 783:.\Generated_Source\PSoC4/EZI2C_EZI2C.c **** 
 784:.\Generated_Source\PSoC4/EZI2C_EZI2C.c ****             EZI2C_CTRL_REG |= (uint32) EZI2C_CTRL_ENABLED;
 785:.\Generated_Source\PSoC4/EZI2C_EZI2C.c ****         }
 786:.\Generated_Source\PSoC4/EZI2C_EZI2C.c ****         #endif
 787:.\Generated_Source\PSoC4/EZI2C_EZI2C.c **** 
ARM GAS  C:\Users\Greg\AppData\Local\Temp\ccXQPDCP.s 			page 24


 788:.\Generated_Source\PSoC4/EZI2C_EZI2C.c ****     #endif /* (EZI2C_CY_SCBIP_V0) */
 789:.\Generated_Source\PSoC4/EZI2C_EZI2C.c ****     }
 525              		.loc 1 789 0
 526 000a BD46     		mov	sp, r7
 527              		@ sp needed for prologue
 528 000c 80BD     		pop	{r7, pc}
 529              	.L31:
 530 000e C046     		.align	2
 531              	.L30:
 532 0010 880E0740 		.word	1074204296
 533              		.cfi_endproc
 534              	.LFE8:
 535              		.size	EZI2C_EzI2CRestoreConfig, .-EZI2C_EzI2CRestoreConfig
 536              		.text
 537              	.Letext0:
 538              		.file 2 "./Generated_Source/PSoC4/cytypes.h"