ARM GAS  C:\Users\Greg\AppData\Local\Temp\ccDa5X8H.s 			page 1


   1              		.cpu cortex-m0
   2              		.fpu softvfp
   3              		.eabi_attribute 20, 1
   4              		.eabi_attribute 21, 1
   5              		.eabi_attribute 23, 3
   6              		.eabi_attribute 24, 1
   7              		.eabi_attribute 25, 1
   8              		.eabi_attribute 26, 1
   9              		.eabi_attribute 30, 6
  10              		.eabi_attribute 34, 0
  11              		.eabi_attribute 18, 4
  12              		.code	16
  13              		.file	"PWM_Fail.c"
  14              		.text
  15              	.Ltext0:
  16              		.cfi_sections	.debug_frame
  17              		.global	PWM_Fail_initVar
  18              		.bss
  19              		.type	PWM_Fail_initVar, %object
  20              		.size	PWM_Fail_initVar, 1
  21              	PWM_Fail_initVar:
  22 0000 00       		.space	1
  23              		.section	.text.PWM_Fail_Init,"ax",%progbits
  24              		.align	2
  25              		.global	PWM_Fail_Init
  26              		.code	16
  27              		.thumb_func
  28              		.type	PWM_Fail_Init, %function
  29              	PWM_Fail_Init:
  30              	.LFB0:
  31              		.file 1 ".\\Generated_Source\\PSoC4\\PWM_Fail.c"
   1:.\Generated_Source\PSoC4/PWM_Fail.c **** /*******************************************************************************
   2:.\Generated_Source\PSoC4/PWM_Fail.c **** * File Name: PWM_Fail.c
   3:.\Generated_Source\PSoC4/PWM_Fail.c **** * Version 1.10
   4:.\Generated_Source\PSoC4/PWM_Fail.c **** *
   5:.\Generated_Source\PSoC4/PWM_Fail.c **** * Description:
   6:.\Generated_Source\PSoC4/PWM_Fail.c **** *  This file provides the source code to the API for the PWM_Fail
   7:.\Generated_Source\PSoC4/PWM_Fail.c **** *  component
   8:.\Generated_Source\PSoC4/PWM_Fail.c **** *
   9:.\Generated_Source\PSoC4/PWM_Fail.c **** * Note:
  10:.\Generated_Source\PSoC4/PWM_Fail.c **** *  None
  11:.\Generated_Source\PSoC4/PWM_Fail.c **** *
  12:.\Generated_Source\PSoC4/PWM_Fail.c **** ********************************************************************************
  13:.\Generated_Source\PSoC4/PWM_Fail.c **** * Copyright 2013-2014, Cypress Semiconductor Corporation.  All rights reserved.
  14:.\Generated_Source\PSoC4/PWM_Fail.c **** * You may use this file only in accordance with the license, terms, conditions,
  15:.\Generated_Source\PSoC4/PWM_Fail.c **** * disclaimers, and limitations in the end user license agreement accompanying
  16:.\Generated_Source\PSoC4/PWM_Fail.c **** * the software package with which this file was provided.
  17:.\Generated_Source\PSoC4/PWM_Fail.c **** *******************************************************************************/
  18:.\Generated_Source\PSoC4/PWM_Fail.c **** 
  19:.\Generated_Source\PSoC4/PWM_Fail.c **** #include "PWM_Fail.h"
  20:.\Generated_Source\PSoC4/PWM_Fail.c **** #include "CyLib.h"
  21:.\Generated_Source\PSoC4/PWM_Fail.c **** 
  22:.\Generated_Source\PSoC4/PWM_Fail.c **** uint8 PWM_Fail_initVar = 0u;
  23:.\Generated_Source\PSoC4/PWM_Fail.c **** 
  24:.\Generated_Source\PSoC4/PWM_Fail.c **** 
  25:.\Generated_Source\PSoC4/PWM_Fail.c **** /*******************************************************************************
  26:.\Generated_Source\PSoC4/PWM_Fail.c **** * Function Name: PWM_Fail_Init
ARM GAS  C:\Users\Greg\AppData\Local\Temp\ccDa5X8H.s 			page 2


  27:.\Generated_Source\PSoC4/PWM_Fail.c **** ********************************************************************************
  28:.\Generated_Source\PSoC4/PWM_Fail.c **** *
  29:.\Generated_Source\PSoC4/PWM_Fail.c **** * Summary:
  30:.\Generated_Source\PSoC4/PWM_Fail.c **** *  Initialize/Restore default PWM_Fail configuration.
  31:.\Generated_Source\PSoC4/PWM_Fail.c **** *
  32:.\Generated_Source\PSoC4/PWM_Fail.c **** * Parameters:
  33:.\Generated_Source\PSoC4/PWM_Fail.c **** *  None
  34:.\Generated_Source\PSoC4/PWM_Fail.c **** *
  35:.\Generated_Source\PSoC4/PWM_Fail.c **** * Return:
  36:.\Generated_Source\PSoC4/PWM_Fail.c **** *  None
  37:.\Generated_Source\PSoC4/PWM_Fail.c **** *
  38:.\Generated_Source\PSoC4/PWM_Fail.c **** *******************************************************************************/
  39:.\Generated_Source\PSoC4/PWM_Fail.c **** void PWM_Fail_Init(void)
  40:.\Generated_Source\PSoC4/PWM_Fail.c **** {
  32              		.loc 1 40 0
  33              		.cfi_startproc
  34 0000 80B5     		push	{r7, lr}
  35              	.LCFI0:
  36              		.cfi_def_cfa_offset 8
  37              		.cfi_offset 7, -8
  38              		.cfi_offset 14, -4
  39 0002 00AF     		add	r7, sp, #0
  40              	.LCFI1:
  41              		.cfi_def_cfa_register 7
  41:.\Generated_Source\PSoC4/PWM_Fail.c **** 
  42:.\Generated_Source\PSoC4/PWM_Fail.c ****     /* Set values from customizer to CTRL */
  43:.\Generated_Source\PSoC4/PWM_Fail.c ****     #if (PWM_Fail__QUAD == PWM_Fail_CONFIG)
  44:.\Generated_Source\PSoC4/PWM_Fail.c ****         PWM_Fail_CONTROL_REG =
  45:.\Generated_Source\PSoC4/PWM_Fail.c ****         (((uint32)(PWM_Fail_QUAD_ENCODING_MODES     << PWM_Fail_QUAD_MODE_SHIFT))       |
  46:.\Generated_Source\PSoC4/PWM_Fail.c ****          ((uint32)(PWM_Fail_CONFIG                  << PWM_Fail_MODE_SHIFT)));
  47:.\Generated_Source\PSoC4/PWM_Fail.c ****     #endif  /* (PWM_Fail__QUAD == PWM_Fail_CONFIG) */
  48:.\Generated_Source\PSoC4/PWM_Fail.c **** 
  49:.\Generated_Source\PSoC4/PWM_Fail.c ****     #if (PWM_Fail__PWM_SEL == PWM_Fail_CONFIG)
  50:.\Generated_Source\PSoC4/PWM_Fail.c ****         PWM_Fail_CONTROL_REG =
  42              		.loc 1 50 0
  43 0004 0E4B     		ldr	r3, .L2
  44 0006 8022     		mov	r2, #128
  45 0008 D204     		lsl	r2, r2, #19
  46 000a 1A60     		str	r2, [r3]
  51:.\Generated_Source\PSoC4/PWM_Fail.c ****         (((uint32)(PWM_Fail_PWM_STOP_EVENT          << PWM_Fail_PWM_STOP_KILL_SHIFT))    |
  52:.\Generated_Source\PSoC4/PWM_Fail.c ****          ((uint32)(PWM_Fail_PWM_OUT_INVERT          << PWM_Fail_INV_OUT_SHIFT))         |
  53:.\Generated_Source\PSoC4/PWM_Fail.c ****          ((uint32)(PWM_Fail_PWM_OUT_N_INVERT        << PWM_Fail_INV_COMPL_OUT_SHIFT))     |
  54:.\Generated_Source\PSoC4/PWM_Fail.c ****          ((uint32)(PWM_Fail_PWM_MODE                << PWM_Fail_MODE_SHIFT)));
  55:.\Generated_Source\PSoC4/PWM_Fail.c **** 
  56:.\Generated_Source\PSoC4/PWM_Fail.c ****         #if (PWM_Fail__PWM_PR == PWM_Fail_PWM_MODE)
  57:.\Generated_Source\PSoC4/PWM_Fail.c ****             PWM_Fail_CONTROL_REG |=
  58:.\Generated_Source\PSoC4/PWM_Fail.c ****             ((uint32)(PWM_Fail_PWM_RUN_MODE         << PWM_Fail_ONESHOT_SHIFT));
  59:.\Generated_Source\PSoC4/PWM_Fail.c **** 
  60:.\Generated_Source\PSoC4/PWM_Fail.c ****             PWM_Fail_WriteCounter(PWM_Fail_PWM_PR_INIT_VALUE);
  61:.\Generated_Source\PSoC4/PWM_Fail.c ****         #else
  62:.\Generated_Source\PSoC4/PWM_Fail.c ****             PWM_Fail_CONTROL_REG |=
  47              		.loc 1 62 0
  48 000c 0C4B     		ldr	r3, .L2
  49 000e 0C4A     		ldr	r2, .L2
  50 0010 1268     		ldr	r2, [r2]
  51 0012 1A60     		str	r2, [r3]
  63:.\Generated_Source\PSoC4/PWM_Fail.c ****             (((uint32)(PWM_Fail_PWM_ALIGN           << PWM_Fail_UPDOWN_SHIFT))          |
ARM GAS  C:\Users\Greg\AppData\Local\Temp\ccDa5X8H.s 			page 3


  64:.\Generated_Source\PSoC4/PWM_Fail.c ****              ((uint32)(PWM_Fail_PWM_KILL_EVENT      << PWM_Fail_PWM_SYNC_KILL_SHIFT)));
  65:.\Generated_Source\PSoC4/PWM_Fail.c ****         #endif  /* (PWM_Fail__PWM_PR == PWM_Fail_PWM_MODE) */
  66:.\Generated_Source\PSoC4/PWM_Fail.c **** 
  67:.\Generated_Source\PSoC4/PWM_Fail.c ****         #if (PWM_Fail__PWM_DT == PWM_Fail_PWM_MODE)
  68:.\Generated_Source\PSoC4/PWM_Fail.c ****             PWM_Fail_CONTROL_REG |=
  69:.\Generated_Source\PSoC4/PWM_Fail.c ****             ((uint32)(PWM_Fail_PWM_DEAD_TIME_CYCLE  << PWM_Fail_PRESCALER_SHIFT));
  70:.\Generated_Source\PSoC4/PWM_Fail.c ****         #endif  /* (PWM_Fail__PWM_DT == PWM_Fail_PWM_MODE) */
  71:.\Generated_Source\PSoC4/PWM_Fail.c **** 
  72:.\Generated_Source\PSoC4/PWM_Fail.c ****         #if (PWM_Fail__PWM == PWM_Fail_PWM_MODE)
  73:.\Generated_Source\PSoC4/PWM_Fail.c ****             PWM_Fail_CONTROL_REG |=
  52              		.loc 1 73 0
  53 0014 0A4B     		ldr	r3, .L2
  54 0016 0A4A     		ldr	r2, .L2
  55 0018 1268     		ldr	r2, [r2]
  56 001a 1A60     		str	r2, [r3]
  74:.\Generated_Source\PSoC4/PWM_Fail.c ****             ((uint32)PWM_Fail_PWM_PRESCALER         << PWM_Fail_PRESCALER_SHIFT);
  75:.\Generated_Source\PSoC4/PWM_Fail.c ****         #endif  /* (PWM_Fail__PWM == PWM_Fail_PWM_MODE) */
  76:.\Generated_Source\PSoC4/PWM_Fail.c ****     #endif  /* (PWM_Fail__PWM_SEL == PWM_Fail_CONFIG) */
  77:.\Generated_Source\PSoC4/PWM_Fail.c **** 
  78:.\Generated_Source\PSoC4/PWM_Fail.c ****     #if (PWM_Fail__TIMER == PWM_Fail_CONFIG)
  79:.\Generated_Source\PSoC4/PWM_Fail.c ****         PWM_Fail_CONTROL_REG =
  80:.\Generated_Source\PSoC4/PWM_Fail.c ****         (((uint32)(PWM_Fail_TC_PRESCALER            << PWM_Fail_PRESCALER_SHIFT))   |
  81:.\Generated_Source\PSoC4/PWM_Fail.c ****          ((uint32)(PWM_Fail_TC_COUNTER_MODE         << PWM_Fail_UPDOWN_SHIFT))      |
  82:.\Generated_Source\PSoC4/PWM_Fail.c ****          ((uint32)(PWM_Fail_TC_RUN_MODE             << PWM_Fail_ONESHOT_SHIFT))     |
  83:.\Generated_Source\PSoC4/PWM_Fail.c ****          ((uint32)(PWM_Fail_TC_COMP_CAP_MODE        << PWM_Fail_MODE_SHIFT)));
  84:.\Generated_Source\PSoC4/PWM_Fail.c ****     #endif  /* (PWM_Fail__TIMER == PWM_Fail_CONFIG) */
  85:.\Generated_Source\PSoC4/PWM_Fail.c **** 
  86:.\Generated_Source\PSoC4/PWM_Fail.c ****     /* Set values from customizer to CTRL1 */
  87:.\Generated_Source\PSoC4/PWM_Fail.c ****     #if (PWM_Fail__QUAD == PWM_Fail_CONFIG)
  88:.\Generated_Source\PSoC4/PWM_Fail.c ****         PWM_Fail_TRIG_CONTROL1_REG  =
  89:.\Generated_Source\PSoC4/PWM_Fail.c ****         (((uint32)(PWM_Fail_QUAD_PHIA_SIGNAL_MODE   << PWM_Fail_COUNT_SHIFT))       |
  90:.\Generated_Source\PSoC4/PWM_Fail.c ****          ((uint32)(PWM_Fail_QUAD_INDEX_SIGNAL_MODE  << PWM_Fail_RELOAD_SHIFT))      |
  91:.\Generated_Source\PSoC4/PWM_Fail.c ****          ((uint32)(PWM_Fail_QUAD_STOP_SIGNAL_MODE   << PWM_Fail_STOP_SHIFT))        |
  92:.\Generated_Source\PSoC4/PWM_Fail.c ****          ((uint32)(PWM_Fail_QUAD_PHIB_SIGNAL_MODE   << PWM_Fail_START_SHIFT)));
  93:.\Generated_Source\PSoC4/PWM_Fail.c ****     #endif  /* (PWM_Fail__QUAD == PWM_Fail_CONFIG) */
  94:.\Generated_Source\PSoC4/PWM_Fail.c **** 
  95:.\Generated_Source\PSoC4/PWM_Fail.c ****     #if (PWM_Fail__PWM_SEL == PWM_Fail_CONFIG)
  96:.\Generated_Source\PSoC4/PWM_Fail.c ****         PWM_Fail_TRIG_CONTROL1_REG  =
  57              		.loc 1 96 0
  58 001c 094B     		ldr	r3, .L2+4
  59 001e 0C22     		mov	r2, #12
  60 0020 1A60     		str	r2, [r3]
  97:.\Generated_Source\PSoC4/PWM_Fail.c ****         (((uint32)(PWM_Fail_PWM_SWITCH_SIGNAL_MODE  << PWM_Fail_CAPTURE_SHIFT))     |
  98:.\Generated_Source\PSoC4/PWM_Fail.c ****          ((uint32)(PWM_Fail_PWM_COUNT_SIGNAL_MODE   << PWM_Fail_COUNT_SHIFT))       |
  99:.\Generated_Source\PSoC4/PWM_Fail.c ****          ((uint32)(PWM_Fail_PWM_RELOAD_SIGNAL_MODE  << PWM_Fail_RELOAD_SHIFT))      |
 100:.\Generated_Source\PSoC4/PWM_Fail.c ****          ((uint32)(PWM_Fail_PWM_STOP_SIGNAL_MODE    << PWM_Fail_STOP_SHIFT))        |
 101:.\Generated_Source\PSoC4/PWM_Fail.c ****          ((uint32)(PWM_Fail_PWM_START_SIGNAL_MODE   << PWM_Fail_START_SHIFT)));
 102:.\Generated_Source\PSoC4/PWM_Fail.c ****     #endif  /* (PWM_Fail__PWM_SEL == PWM_Fail_CONFIG) */
 103:.\Generated_Source\PSoC4/PWM_Fail.c **** 
 104:.\Generated_Source\PSoC4/PWM_Fail.c ****     #if (PWM_Fail__TIMER == PWM_Fail_CONFIG)
 105:.\Generated_Source\PSoC4/PWM_Fail.c ****         PWM_Fail_TRIG_CONTROL1_REG  =
 106:.\Generated_Source\PSoC4/PWM_Fail.c ****         (((uint32)(PWM_Fail_TC_CAPTURE_SIGNAL_MODE  << PWM_Fail_CAPTURE_SHIFT))     |
 107:.\Generated_Source\PSoC4/PWM_Fail.c ****          ((uint32)(PWM_Fail_TC_COUNT_SIGNAL_MODE    << PWM_Fail_COUNT_SHIFT))       |
 108:.\Generated_Source\PSoC4/PWM_Fail.c ****          ((uint32)(PWM_Fail_TC_RELOAD_SIGNAL_MODE   << PWM_Fail_RELOAD_SHIFT))      |
 109:.\Generated_Source\PSoC4/PWM_Fail.c ****          ((uint32)(PWM_Fail_TC_STOP_SIGNAL_MODE     << PWM_Fail_STOP_SHIFT))        |
 110:.\Generated_Source\PSoC4/PWM_Fail.c ****          ((uint32)(PWM_Fail_TC_START_SIGNAL_MODE    << PWM_Fail_START_SHIFT)));
 111:.\Generated_Source\PSoC4/PWM_Fail.c ****     #endif  /* (PWM_Fail__TIMER == PWM_Fail_CONFIG) */
ARM GAS  C:\Users\Greg\AppData\Local\Temp\ccDa5X8H.s 			page 4


 112:.\Generated_Source\PSoC4/PWM_Fail.c **** 
 113:.\Generated_Source\PSoC4/PWM_Fail.c ****     /* Set values from customizer to INTR */
 114:.\Generated_Source\PSoC4/PWM_Fail.c ****     #if (PWM_Fail__QUAD == PWM_Fail_CONFIG)
 115:.\Generated_Source\PSoC4/PWM_Fail.c ****         PWM_Fail_SetInterruptMode(PWM_Fail_QUAD_INTERRUPT_MASK);
 116:.\Generated_Source\PSoC4/PWM_Fail.c ****     #endif  /* (PWM_Fail__QUAD == PWM_Fail_CONFIG) */
 117:.\Generated_Source\PSoC4/PWM_Fail.c **** 
 118:.\Generated_Source\PSoC4/PWM_Fail.c ****     #if (PWM_Fail__PWM_SEL == PWM_Fail_CONFIG)
 119:.\Generated_Source\PSoC4/PWM_Fail.c ****         PWM_Fail_SetInterruptMode(PWM_Fail_PWM_INTERRUPT_MASK);
  61              		.loc 1 119 0
  62 0022 0120     		mov	r0, #1
  63 0024 FFF7FEFF 		bl	PWM_Fail_SetInterruptMode
 120:.\Generated_Source\PSoC4/PWM_Fail.c ****     #endif  /* (PWM_Fail__PWM_SEL == PWM_Fail_CONFIG) */
 121:.\Generated_Source\PSoC4/PWM_Fail.c **** 
 122:.\Generated_Source\PSoC4/PWM_Fail.c ****     #if (PWM_Fail__TIMER == PWM_Fail_CONFIG)
 123:.\Generated_Source\PSoC4/PWM_Fail.c ****         PWM_Fail_SetInterruptMode(PWM_Fail_TC_INTERRUPT_MASK);
 124:.\Generated_Source\PSoC4/PWM_Fail.c ****     #endif  /* (PWM_Fail__TIMER == PWM_Fail_CONFIG) */
 125:.\Generated_Source\PSoC4/PWM_Fail.c **** 
 126:.\Generated_Source\PSoC4/PWM_Fail.c ****     /* Set other values from customizer */
 127:.\Generated_Source\PSoC4/PWM_Fail.c ****     #if (PWM_Fail__TIMER == PWM_Fail_CONFIG)
 128:.\Generated_Source\PSoC4/PWM_Fail.c ****         PWM_Fail_WritePeriod(PWM_Fail_TC_PERIOD_VALUE );
 129:.\Generated_Source\PSoC4/PWM_Fail.c **** 
 130:.\Generated_Source\PSoC4/PWM_Fail.c ****         #if (PWM_Fail__COUNT_DOWN == PWM_Fail_TC_COUNTER_MODE)
 131:.\Generated_Source\PSoC4/PWM_Fail.c ****             PWM_Fail_WriteCounter(PWM_Fail_TC_PERIOD_VALUE );
 132:.\Generated_Source\PSoC4/PWM_Fail.c ****         #endif  /* (PWM_Fail__COUNT_DOWN == PWM_Fail_TC_COUNTER_MODE) */
 133:.\Generated_Source\PSoC4/PWM_Fail.c **** 
 134:.\Generated_Source\PSoC4/PWM_Fail.c ****         #if (PWM_Fail__COMPARE == PWM_Fail_TC_COMP_CAP_MODE)
 135:.\Generated_Source\PSoC4/PWM_Fail.c ****             PWM_Fail_WriteCompare(PWM_Fail_TC_COMPARE_VALUE);
 136:.\Generated_Source\PSoC4/PWM_Fail.c **** 
 137:.\Generated_Source\PSoC4/PWM_Fail.c ****             #if (1u == PWM_Fail_TC_COMPARE_SWAP)
 138:.\Generated_Source\PSoC4/PWM_Fail.c ****                 PWM_Fail_SetCompareSwap(1u);
 139:.\Generated_Source\PSoC4/PWM_Fail.c ****                 PWM_Fail_WriteCompareBuf(PWM_Fail_TC_COMPARE_BUF_VALUE);
 140:.\Generated_Source\PSoC4/PWM_Fail.c ****             #endif  /* (1u == PWM_Fail_TC_COMPARE_SWAP) */
 141:.\Generated_Source\PSoC4/PWM_Fail.c ****         #endif  /* (PWM_Fail__COMPARE == PWM_Fail_TC_COMP_CAP_MODE) */
 142:.\Generated_Source\PSoC4/PWM_Fail.c ****     #endif  /* (PWM_Fail__TIMER == PWM_Fail_CONFIG) */
 143:.\Generated_Source\PSoC4/PWM_Fail.c **** 
 144:.\Generated_Source\PSoC4/PWM_Fail.c ****     #if (PWM_Fail__PWM_SEL == PWM_Fail_CONFIG)
 145:.\Generated_Source\PSoC4/PWM_Fail.c ****         PWM_Fail_WritePeriod(PWM_Fail_PWM_PERIOD_VALUE );
  64              		.loc 1 145 0
  65 0028 1E20     		mov	r0, #30
  66 002a FFF7FEFF 		bl	PWM_Fail_WritePeriod
 146:.\Generated_Source\PSoC4/PWM_Fail.c ****         PWM_Fail_WriteCompare(PWM_Fail_PWM_COMPARE_VALUE);
  67              		.loc 1 146 0
  68 002e 0F20     		mov	r0, #15
  69 0030 FFF7FEFF 		bl	PWM_Fail_WriteCompare
 147:.\Generated_Source\PSoC4/PWM_Fail.c **** 
 148:.\Generated_Source\PSoC4/PWM_Fail.c ****         #if (1u == PWM_Fail_PWM_COMPARE_SWAP)
 149:.\Generated_Source\PSoC4/PWM_Fail.c ****             PWM_Fail_SetCompareSwap(1u);
 150:.\Generated_Source\PSoC4/PWM_Fail.c ****             PWM_Fail_WriteCompareBuf(PWM_Fail_PWM_COMPARE_BUF_VALUE);
 151:.\Generated_Source\PSoC4/PWM_Fail.c ****         #endif  /* (1u == PWM_Fail_PWM_COMPARE_SWAP) */
 152:.\Generated_Source\PSoC4/PWM_Fail.c **** 
 153:.\Generated_Source\PSoC4/PWM_Fail.c ****         #if (1u == PWM_Fail_PWM_PERIOD_SWAP)
 154:.\Generated_Source\PSoC4/PWM_Fail.c ****             PWM_Fail_SetPeriodSwap(1u);
 155:.\Generated_Source\PSoC4/PWM_Fail.c ****             PWM_Fail_WritePeriodBuf(PWM_Fail_PWM_PERIOD_BUF_VALUE);
 156:.\Generated_Source\PSoC4/PWM_Fail.c ****         #endif  /* (1u == PWM_Fail_PWM_PERIOD_SWAP) */
 157:.\Generated_Source\PSoC4/PWM_Fail.c **** 
 158:.\Generated_Source\PSoC4/PWM_Fail.c ****         /* Set values from customizer to CTRL2 */
 159:.\Generated_Source\PSoC4/PWM_Fail.c ****         #if (PWM_Fail__PWM_PR == PWM_Fail_PWM_MODE)
ARM GAS  C:\Users\Greg\AppData\Local\Temp\ccDa5X8H.s 			page 5


 160:.\Generated_Source\PSoC4/PWM_Fail.c ****             PWM_Fail_TRIG_CONTROL2_REG =
 161:.\Generated_Source\PSoC4/PWM_Fail.c ****                     (PWM_Fail_CC_MATCH_NO_CHANGE    |
 162:.\Generated_Source\PSoC4/PWM_Fail.c ****                     PWM_Fail_OVERLOW_NO_CHANGE      |
 163:.\Generated_Source\PSoC4/PWM_Fail.c ****                     PWM_Fail_UNDERFLOW_NO_CHANGE);
 164:.\Generated_Source\PSoC4/PWM_Fail.c ****         #else
 165:.\Generated_Source\PSoC4/PWM_Fail.c ****             #if (PWM_Fail__LEFT == PWM_Fail_PWM_ALIGN)
 166:.\Generated_Source\PSoC4/PWM_Fail.c ****                 PWM_Fail_TRIG_CONTROL2_REG = PWM_Fail_PWM_MODE_LEFT;
  70              		.loc 1 166 0
  71 0034 044B     		ldr	r3, .L2+8
  72 0036 3122     		mov	r2, #49
  73 0038 1A60     		str	r2, [r3]
 167:.\Generated_Source\PSoC4/PWM_Fail.c ****             #endif  /* ( PWM_Fail_PWM_LEFT == PWM_Fail_PWM_ALIGN) */
 168:.\Generated_Source\PSoC4/PWM_Fail.c **** 
 169:.\Generated_Source\PSoC4/PWM_Fail.c ****             #if (PWM_Fail__RIGHT == PWM_Fail_PWM_ALIGN)
 170:.\Generated_Source\PSoC4/PWM_Fail.c ****                 PWM_Fail_WriteCounter(PWM_Fail_PWM_PERIOD_VALUE);
 171:.\Generated_Source\PSoC4/PWM_Fail.c ****                 PWM_Fail_TRIG_CONTROL2_REG = PWM_Fail_PWM_MODE_RIGHT;
 172:.\Generated_Source\PSoC4/PWM_Fail.c ****             #endif  /* ( PWM_Fail_PWM_RIGHT == PWM_Fail_PWM_ALIGN) */
 173:.\Generated_Source\PSoC4/PWM_Fail.c **** 
 174:.\Generated_Source\PSoC4/PWM_Fail.c ****             #if (PWM_Fail__CENTER == PWM_Fail_PWM_ALIGN)
 175:.\Generated_Source\PSoC4/PWM_Fail.c ****                 PWM_Fail_TRIG_CONTROL2_REG = PWM_Fail_PWM_MODE_CENTER;
 176:.\Generated_Source\PSoC4/PWM_Fail.c ****             #endif  /* ( PWM_Fail_PWM_CENTER == PWM_Fail_PWM_ALIGN) */
 177:.\Generated_Source\PSoC4/PWM_Fail.c **** 
 178:.\Generated_Source\PSoC4/PWM_Fail.c ****             #if (PWM_Fail__ASYMMETRIC == PWM_Fail_PWM_ALIGN)
 179:.\Generated_Source\PSoC4/PWM_Fail.c ****                 PWM_Fail_TRIG_CONTROL2_REG = PWM_Fail_PWM_MODE_ASYM;
 180:.\Generated_Source\PSoC4/PWM_Fail.c ****             #endif  /* (PWM_Fail__ASYMMETRIC == PWM_Fail_PWM_ALIGN) */
 181:.\Generated_Source\PSoC4/PWM_Fail.c ****         #endif  /* (PWM_Fail__PWM_PR == PWM_Fail_PWM_MODE) */
 182:.\Generated_Source\PSoC4/PWM_Fail.c ****     #endif  /* (PWM_Fail__PWM_SEL == PWM_Fail_CONFIG) */
 183:.\Generated_Source\PSoC4/PWM_Fail.c **** }
  74              		.loc 1 183 0
  75 003a BD46     		mov	sp, r7
  76              		@ sp needed for prologue
  77 003c 80BD     		pop	{r7, pc}
  78              	.L3:
  79 003e C046     		.align	2
  80              	.L2:
  81 0040 00010540 		.word	1074069760
  82 0044 24010540 		.word	1074069796
  83 0048 28010540 		.word	1074069800
  84              		.cfi_endproc
  85              	.LFE0:
  86              		.size	PWM_Fail_Init, .-PWM_Fail_Init
  87              		.section	.text.PWM_Fail_Enable,"ax",%progbits
  88              		.align	2
  89              		.global	PWM_Fail_Enable
  90              		.code	16
  91              		.thumb_func
  92              		.type	PWM_Fail_Enable, %function
  93              	PWM_Fail_Enable:
  94              	.LFB1:
 184:.\Generated_Source\PSoC4/PWM_Fail.c **** 
 185:.\Generated_Source\PSoC4/PWM_Fail.c **** 
 186:.\Generated_Source\PSoC4/PWM_Fail.c **** /*******************************************************************************
 187:.\Generated_Source\PSoC4/PWM_Fail.c **** * Function Name: PWM_Fail_Enable
 188:.\Generated_Source\PSoC4/PWM_Fail.c **** ********************************************************************************
 189:.\Generated_Source\PSoC4/PWM_Fail.c **** *
 190:.\Generated_Source\PSoC4/PWM_Fail.c **** * Summary:
 191:.\Generated_Source\PSoC4/PWM_Fail.c **** *  Enables the PWM_Fail.
ARM GAS  C:\Users\Greg\AppData\Local\Temp\ccDa5X8H.s 			page 6


 192:.\Generated_Source\PSoC4/PWM_Fail.c **** *
 193:.\Generated_Source\PSoC4/PWM_Fail.c **** * Parameters:
 194:.\Generated_Source\PSoC4/PWM_Fail.c **** *  None
 195:.\Generated_Source\PSoC4/PWM_Fail.c **** *
 196:.\Generated_Source\PSoC4/PWM_Fail.c **** * Return:
 197:.\Generated_Source\PSoC4/PWM_Fail.c **** *  None
 198:.\Generated_Source\PSoC4/PWM_Fail.c **** *
 199:.\Generated_Source\PSoC4/PWM_Fail.c **** *******************************************************************************/
 200:.\Generated_Source\PSoC4/PWM_Fail.c **** void PWM_Fail_Enable(void)
 201:.\Generated_Source\PSoC4/PWM_Fail.c **** {
  95              		.loc 1 201 0
  96              		.cfi_startproc
  97 0000 90B5     		push	{r4, r7, lr}
  98              	.LCFI2:
  99              		.cfi_def_cfa_offset 12
 100              		.cfi_offset 4, -12
 101              		.cfi_offset 7, -8
 102              		.cfi_offset 14, -4
 103 0002 83B0     		sub	sp, sp, #12
 104              	.LCFI3:
 105              		.cfi_def_cfa_offset 24
 106 0004 00AF     		add	r7, sp, #0
 107              	.LCFI4:
 108              		.cfi_def_cfa_register 7
 202:.\Generated_Source\PSoC4/PWM_Fail.c ****     uint8 enableInterrupts;
 203:.\Generated_Source\PSoC4/PWM_Fail.c **** 
 204:.\Generated_Source\PSoC4/PWM_Fail.c ****     enableInterrupts = CyEnterCriticalSection();
 109              		.loc 1 204 0
 110 0006 FC1D     		add	r4, r7, #7
 111 0008 FFF7FEFF 		bl	CyEnterCriticalSection
 112 000c 031C     		mov	r3, r0
 113 000e 2370     		strb	r3, [r4]
 205:.\Generated_Source\PSoC4/PWM_Fail.c ****     PWM_Fail_BLOCK_CONTROL_REG |= PWM_Fail_MASK;
 114              		.loc 1 205 0
 115 0010 084B     		ldr	r3, .L5
 116 0012 084A     		ldr	r2, .L5
 117 0014 1268     		ldr	r2, [r2]
 118 0016 0121     		mov	r1, #1
 119 0018 0A43     		orr	r2, r1
 120 001a 1A60     		str	r2, [r3]
 206:.\Generated_Source\PSoC4/PWM_Fail.c ****     CyExitCriticalSection(enableInterrupts);
 121              		.loc 1 206 0
 122 001c FB1D     		add	r3, r7, #7
 123 001e 1B78     		ldrb	r3, [r3]
 124 0020 181C     		mov	r0, r3
 125 0022 FFF7FEFF 		bl	CyExitCriticalSection
 207:.\Generated_Source\PSoC4/PWM_Fail.c **** 
 208:.\Generated_Source\PSoC4/PWM_Fail.c ****     /* Start Timer or PWM if start input is absent */
 209:.\Generated_Source\PSoC4/PWM_Fail.c ****     #if (PWM_Fail__PWM_SEL == PWM_Fail_CONFIG)
 210:.\Generated_Source\PSoC4/PWM_Fail.c ****         #if (0u == PWM_Fail_PWM_START_SIGNAL_PRESENT)
 211:.\Generated_Source\PSoC4/PWM_Fail.c ****             PWM_Fail_TriggerCommand(PWM_Fail_MASK, PWM_Fail_CMD_START);
 126              		.loc 1 211 0
 127 0026 0120     		mov	r0, #1
 128 0028 1821     		mov	r1, #24
 129 002a FFF7FEFF 		bl	PWM_Fail_TriggerCommand
 212:.\Generated_Source\PSoC4/PWM_Fail.c ****         #endif /* (0u == PWM_Fail_PWM_START_SIGNAL_PRESENT) */
 213:.\Generated_Source\PSoC4/PWM_Fail.c ****     #endif /* (PWM_Fail__PWM_SEL == PWM_Fail_CONFIG) */
ARM GAS  C:\Users\Greg\AppData\Local\Temp\ccDa5X8H.s 			page 7


 214:.\Generated_Source\PSoC4/PWM_Fail.c **** 
 215:.\Generated_Source\PSoC4/PWM_Fail.c ****     #if (PWM_Fail__TIMER == PWM_Fail_CONFIG)
 216:.\Generated_Source\PSoC4/PWM_Fail.c ****         #if (0u == PWM_Fail_TC_START_SIGNAL_PRESENT)
 217:.\Generated_Source\PSoC4/PWM_Fail.c ****             PWM_Fail_TriggerCommand(PWM_Fail_MASK, PWM_Fail_CMD_START);
 218:.\Generated_Source\PSoC4/PWM_Fail.c ****         #endif /* (0u == PWM_Fail_TC_START_SIGNAL_PRESENT) */
 219:.\Generated_Source\PSoC4/PWM_Fail.c ****     #endif /* (PWM_Fail__TIMER == PWM_Fail_CONFIG) */
 220:.\Generated_Source\PSoC4/PWM_Fail.c **** }
 130              		.loc 1 220 0
 131 002e BD46     		mov	sp, r7
 132 0030 03B0     		add	sp, sp, #12
 133              		@ sp needed for prologue
 134 0032 90BD     		pop	{r4, r7, pc}
 135              	.L6:
 136              		.align	2
 137              	.L5:
 138 0034 00000540 		.word	1074069504
 139              		.cfi_endproc
 140              	.LFE1:
 141              		.size	PWM_Fail_Enable, .-PWM_Fail_Enable
 142              		.section	.text.PWM_Fail_Start,"ax",%progbits
 143              		.align	2
 144              		.global	PWM_Fail_Start
 145              		.code	16
 146              		.thumb_func
 147              		.type	PWM_Fail_Start, %function
 148              	PWM_Fail_Start:
 149              	.LFB2:
 221:.\Generated_Source\PSoC4/PWM_Fail.c **** 
 222:.\Generated_Source\PSoC4/PWM_Fail.c **** 
 223:.\Generated_Source\PSoC4/PWM_Fail.c **** /*******************************************************************************
 224:.\Generated_Source\PSoC4/PWM_Fail.c **** * Function Name: PWM_Fail_Start
 225:.\Generated_Source\PSoC4/PWM_Fail.c **** ********************************************************************************
 226:.\Generated_Source\PSoC4/PWM_Fail.c **** *
 227:.\Generated_Source\PSoC4/PWM_Fail.c **** * Summary:
 228:.\Generated_Source\PSoC4/PWM_Fail.c **** *  Initializes the PWM_Fail with default customizer
 229:.\Generated_Source\PSoC4/PWM_Fail.c **** *  values when called the first time and enables the PWM_Fail.
 230:.\Generated_Source\PSoC4/PWM_Fail.c **** *  For subsequent calls the configuration is left unchanged and the component is
 231:.\Generated_Source\PSoC4/PWM_Fail.c **** *  just enabled.
 232:.\Generated_Source\PSoC4/PWM_Fail.c **** *
 233:.\Generated_Source\PSoC4/PWM_Fail.c **** * Parameters:
 234:.\Generated_Source\PSoC4/PWM_Fail.c **** *  None
 235:.\Generated_Source\PSoC4/PWM_Fail.c **** *
 236:.\Generated_Source\PSoC4/PWM_Fail.c **** * Return:
 237:.\Generated_Source\PSoC4/PWM_Fail.c **** *  None
 238:.\Generated_Source\PSoC4/PWM_Fail.c **** *
 239:.\Generated_Source\PSoC4/PWM_Fail.c **** * Global variables:
 240:.\Generated_Source\PSoC4/PWM_Fail.c **** *  PWM_Fail_initVar: global variable is used to indicate initial
 241:.\Generated_Source\PSoC4/PWM_Fail.c **** *  configuration of this component.  The variable is initialized to zero and set
 242:.\Generated_Source\PSoC4/PWM_Fail.c **** *  to 1 the first time PWM_Fail_Start() is called. This allows
 243:.\Generated_Source\PSoC4/PWM_Fail.c **** *  enabling/disabling a component without re-initialization in all subsequent
 244:.\Generated_Source\PSoC4/PWM_Fail.c **** *  calls to the PWM_Fail_Start() routine.
 245:.\Generated_Source\PSoC4/PWM_Fail.c **** *
 246:.\Generated_Source\PSoC4/PWM_Fail.c **** *******************************************************************************/
 247:.\Generated_Source\PSoC4/PWM_Fail.c **** void PWM_Fail_Start(void)
 248:.\Generated_Source\PSoC4/PWM_Fail.c **** {
 150              		.loc 1 248 0
 151              		.cfi_startproc
ARM GAS  C:\Users\Greg\AppData\Local\Temp\ccDa5X8H.s 			page 8


 152 0000 80B5     		push	{r7, lr}
 153              	.LCFI5:
 154              		.cfi_def_cfa_offset 8
 155              		.cfi_offset 7, -8
 156              		.cfi_offset 14, -4
 157 0002 00AF     		add	r7, sp, #0
 158              	.LCFI6:
 159              		.cfi_def_cfa_register 7
 249:.\Generated_Source\PSoC4/PWM_Fail.c ****     if (0u == PWM_Fail_initVar)
 160              		.loc 1 249 0
 161 0004 064B     		ldr	r3, .L9
 162 0006 1B78     		ldrb	r3, [r3]
 163 0008 002B     		cmp	r3, #0
 164 000a 04D1     		bne	.L8
 250:.\Generated_Source\PSoC4/PWM_Fail.c ****     {
 251:.\Generated_Source\PSoC4/PWM_Fail.c ****         PWM_Fail_Init();
 165              		.loc 1 251 0
 166 000c FFF7FEFF 		bl	PWM_Fail_Init
 252:.\Generated_Source\PSoC4/PWM_Fail.c ****         PWM_Fail_initVar = 1u;
 167              		.loc 1 252 0
 168 0010 034B     		ldr	r3, .L9
 169 0012 0122     		mov	r2, #1
 170 0014 1A70     		strb	r2, [r3]
 171              	.L8:
 253:.\Generated_Source\PSoC4/PWM_Fail.c ****     }
 254:.\Generated_Source\PSoC4/PWM_Fail.c **** 
 255:.\Generated_Source\PSoC4/PWM_Fail.c ****     PWM_Fail_Enable();
 172              		.loc 1 255 0
 173 0016 FFF7FEFF 		bl	PWM_Fail_Enable
 256:.\Generated_Source\PSoC4/PWM_Fail.c **** }
 174              		.loc 1 256 0
 175 001a BD46     		mov	sp, r7
 176              		@ sp needed for prologue
 177 001c 80BD     		pop	{r7, pc}
 178              	.L10:
 179 001e C046     		.align	2
 180              	.L9:
 181 0020 00000000 		.word	PWM_Fail_initVar
 182              		.cfi_endproc
 183              	.LFE2:
 184              		.size	PWM_Fail_Start, .-PWM_Fail_Start
 185              		.section	.text.PWM_Fail_Stop,"ax",%progbits
 186              		.align	2
 187              		.global	PWM_Fail_Stop
 188              		.code	16
 189              		.thumb_func
 190              		.type	PWM_Fail_Stop, %function
 191              	PWM_Fail_Stop:
 192              	.LFB3:
 257:.\Generated_Source\PSoC4/PWM_Fail.c **** 
 258:.\Generated_Source\PSoC4/PWM_Fail.c **** 
 259:.\Generated_Source\PSoC4/PWM_Fail.c **** /*******************************************************************************
 260:.\Generated_Source\PSoC4/PWM_Fail.c **** * Function Name: PWM_Fail_Stop
 261:.\Generated_Source\PSoC4/PWM_Fail.c **** ********************************************************************************
 262:.\Generated_Source\PSoC4/PWM_Fail.c **** *
 263:.\Generated_Source\PSoC4/PWM_Fail.c **** * Summary:
 264:.\Generated_Source\PSoC4/PWM_Fail.c **** *  Disables the PWM_Fail.
ARM GAS  C:\Users\Greg\AppData\Local\Temp\ccDa5X8H.s 			page 9


 265:.\Generated_Source\PSoC4/PWM_Fail.c **** *
 266:.\Generated_Source\PSoC4/PWM_Fail.c **** * Parameters:
 267:.\Generated_Source\PSoC4/PWM_Fail.c **** *  None
 268:.\Generated_Source\PSoC4/PWM_Fail.c **** *
 269:.\Generated_Source\PSoC4/PWM_Fail.c **** * Return:
 270:.\Generated_Source\PSoC4/PWM_Fail.c **** *  None
 271:.\Generated_Source\PSoC4/PWM_Fail.c **** *
 272:.\Generated_Source\PSoC4/PWM_Fail.c **** *******************************************************************************/
 273:.\Generated_Source\PSoC4/PWM_Fail.c **** void PWM_Fail_Stop(void)
 274:.\Generated_Source\PSoC4/PWM_Fail.c **** {
 193              		.loc 1 274 0
 194              		.cfi_startproc
 195 0000 90B5     		push	{r4, r7, lr}
 196              	.LCFI7:
 197              		.cfi_def_cfa_offset 12
 198              		.cfi_offset 4, -12
 199              		.cfi_offset 7, -8
 200              		.cfi_offset 14, -4
 201 0002 83B0     		sub	sp, sp, #12
 202              	.LCFI8:
 203              		.cfi_def_cfa_offset 24
 204 0004 00AF     		add	r7, sp, #0
 205              	.LCFI9:
 206              		.cfi_def_cfa_register 7
 275:.\Generated_Source\PSoC4/PWM_Fail.c ****     uint8 enableInterrupts;
 276:.\Generated_Source\PSoC4/PWM_Fail.c **** 
 277:.\Generated_Source\PSoC4/PWM_Fail.c ****     enableInterrupts = CyEnterCriticalSection();
 207              		.loc 1 277 0
 208 0006 FC1D     		add	r4, r7, #7
 209 0008 FFF7FEFF 		bl	CyEnterCriticalSection
 210 000c 031C     		mov	r3, r0
 211 000e 2370     		strb	r3, [r4]
 278:.\Generated_Source\PSoC4/PWM_Fail.c **** 
 279:.\Generated_Source\PSoC4/PWM_Fail.c ****     PWM_Fail_BLOCK_CONTROL_REG &= (uint32)~PWM_Fail_MASK;
 212              		.loc 1 279 0
 213 0010 064B     		ldr	r3, .L12
 214 0012 064A     		ldr	r2, .L12
 215 0014 1268     		ldr	r2, [r2]
 216 0016 0121     		mov	r1, #1
 217 0018 8A43     		bic	r2, r1
 218 001a 1A60     		str	r2, [r3]
 280:.\Generated_Source\PSoC4/PWM_Fail.c **** 
 281:.\Generated_Source\PSoC4/PWM_Fail.c ****     CyExitCriticalSection(enableInterrupts);
 219              		.loc 1 281 0
 220 001c FB1D     		add	r3, r7, #7
 221 001e 1B78     		ldrb	r3, [r3]
 222 0020 181C     		mov	r0, r3
 223 0022 FFF7FEFF 		bl	CyExitCriticalSection
 282:.\Generated_Source\PSoC4/PWM_Fail.c **** }
 224              		.loc 1 282 0
 225 0026 BD46     		mov	sp, r7
 226 0028 03B0     		add	sp, sp, #12
 227              		@ sp needed for prologue
 228 002a 90BD     		pop	{r4, r7, pc}
 229              	.L13:
 230              		.align	2
 231              	.L12:
ARM GAS  C:\Users\Greg\AppData\Local\Temp\ccDa5X8H.s 			page 10


 232 002c 00000540 		.word	1074069504
 233              		.cfi_endproc
 234              	.LFE3:
 235              		.size	PWM_Fail_Stop, .-PWM_Fail_Stop
 236              		.section	.text.PWM_Fail_SetMode,"ax",%progbits
 237              		.align	2
 238              		.global	PWM_Fail_SetMode
 239              		.code	16
 240              		.thumb_func
 241              		.type	PWM_Fail_SetMode, %function
 242              	PWM_Fail_SetMode:
 243              	.LFB4:
 283:.\Generated_Source\PSoC4/PWM_Fail.c **** 
 284:.\Generated_Source\PSoC4/PWM_Fail.c **** 
 285:.\Generated_Source\PSoC4/PWM_Fail.c **** /*******************************************************************************
 286:.\Generated_Source\PSoC4/PWM_Fail.c **** * Function Name: PWM_Fail_SetMode
 287:.\Generated_Source\PSoC4/PWM_Fail.c **** ********************************************************************************
 288:.\Generated_Source\PSoC4/PWM_Fail.c **** *
 289:.\Generated_Source\PSoC4/PWM_Fail.c **** * Summary:
 290:.\Generated_Source\PSoC4/PWM_Fail.c **** *  Sets the operation mode of the PWM_Fail. This function is used when
 291:.\Generated_Source\PSoC4/PWM_Fail.c **** *  configured as a generic PWM_Fail and the actual mode of operation is
 292:.\Generated_Source\PSoC4/PWM_Fail.c **** *  set at runtime. The mode must be set while the component is disabled.
 293:.\Generated_Source\PSoC4/PWM_Fail.c **** *
 294:.\Generated_Source\PSoC4/PWM_Fail.c **** * Parameters:
 295:.\Generated_Source\PSoC4/PWM_Fail.c **** *  mode: Mode for the PWM_Fail to operate in
 296:.\Generated_Source\PSoC4/PWM_Fail.c **** *   Values:
 297:.\Generated_Source\PSoC4/PWM_Fail.c **** *   - PWM_Fail_MODE_TIMER_COMPARE - Timer / Counter with
 298:.\Generated_Source\PSoC4/PWM_Fail.c **** *                                                 compare capability
 299:.\Generated_Source\PSoC4/PWM_Fail.c **** *         - PWM_Fail_MODE_TIMER_CAPTURE - Timer / Counter with
 300:.\Generated_Source\PSoC4/PWM_Fail.c **** *                                                 capture capability
 301:.\Generated_Source\PSoC4/PWM_Fail.c **** *         - PWM_Fail_MODE_QUAD - Quadrature decoder
 302:.\Generated_Source\PSoC4/PWM_Fail.c **** *         - PWM_Fail_MODE_PWM - PWM
 303:.\Generated_Source\PSoC4/PWM_Fail.c **** *         - PWM_Fail_MODE_PWM_DT - PWM with dead time
 304:.\Generated_Source\PSoC4/PWM_Fail.c **** *         - PWM_Fail_MODE_PWM_PR - PWM with pseudo random capability
 305:.\Generated_Source\PSoC4/PWM_Fail.c **** *
 306:.\Generated_Source\PSoC4/PWM_Fail.c **** * Return:
 307:.\Generated_Source\PSoC4/PWM_Fail.c **** *  None
 308:.\Generated_Source\PSoC4/PWM_Fail.c **** *
 309:.\Generated_Source\PSoC4/PWM_Fail.c **** *******************************************************************************/
 310:.\Generated_Source\PSoC4/PWM_Fail.c **** void PWM_Fail_SetMode(uint32 mode)
 311:.\Generated_Source\PSoC4/PWM_Fail.c **** {
 244              		.loc 1 311 0
 245              		.cfi_startproc
 246 0000 90B5     		push	{r4, r7, lr}
 247              	.LCFI10:
 248              		.cfi_def_cfa_offset 12
 249              		.cfi_offset 4, -12
 250              		.cfi_offset 7, -8
 251              		.cfi_offset 14, -4
 252 0002 85B0     		sub	sp, sp, #20
 253              	.LCFI11:
 254              		.cfi_def_cfa_offset 32
 255 0004 00AF     		add	r7, sp, #0
 256              	.LCFI12:
 257              		.cfi_def_cfa_register 7
 258 0006 7860     		str	r0, [r7, #4]
 312:.\Generated_Source\PSoC4/PWM_Fail.c ****     uint8 enableInterrupts;
ARM GAS  C:\Users\Greg\AppData\Local\Temp\ccDa5X8H.s 			page 11


 313:.\Generated_Source\PSoC4/PWM_Fail.c **** 
 314:.\Generated_Source\PSoC4/PWM_Fail.c ****     enableInterrupts = CyEnterCriticalSection();
 259              		.loc 1 314 0
 260 0008 3C1C     		mov	r4, r7
 261 000a 0F34     		add	r4, r4, #15
 262 000c FFF7FEFF 		bl	CyEnterCriticalSection
 263 0010 031C     		mov	r3, r0
 264 0012 2370     		strb	r3, [r4]
 315:.\Generated_Source\PSoC4/PWM_Fail.c **** 
 316:.\Generated_Source\PSoC4/PWM_Fail.c ****     PWM_Fail_CONTROL_REG &= (uint32)~PWM_Fail_MODE_MASK;
 265              		.loc 1 316 0
 266 0014 0A4B     		ldr	r3, .L15
 267 0016 0A4A     		ldr	r2, .L15
 268 0018 1168     		ldr	r1, [r2]
 269 001a 0A4A     		ldr	r2, .L15+4
 270 001c 0A40     		and	r2, r1
 271 001e 1A60     		str	r2, [r3]
 317:.\Generated_Source\PSoC4/PWM_Fail.c ****     PWM_Fail_CONTROL_REG |= mode;
 272              		.loc 1 317 0
 273 0020 074B     		ldr	r3, .L15
 274 0022 074A     		ldr	r2, .L15
 275 0024 1168     		ldr	r1, [r2]
 276 0026 7A68     		ldr	r2, [r7, #4]
 277 0028 0A43     		orr	r2, r1
 278 002a 1A60     		str	r2, [r3]
 318:.\Generated_Source\PSoC4/PWM_Fail.c **** 
 319:.\Generated_Source\PSoC4/PWM_Fail.c ****     CyExitCriticalSection(enableInterrupts);
 279              		.loc 1 319 0
 280 002c 3B1C     		mov	r3, r7
 281 002e 0F33     		add	r3, r3, #15
 282 0030 1B78     		ldrb	r3, [r3]
 283 0032 181C     		mov	r0, r3
 284 0034 FFF7FEFF 		bl	CyExitCriticalSection
 320:.\Generated_Source\PSoC4/PWM_Fail.c **** }
 285              		.loc 1 320 0
 286 0038 BD46     		mov	sp, r7
 287 003a 05B0     		add	sp, sp, #20
 288              		@ sp needed for prologue
 289 003c 90BD     		pop	{r4, r7, pc}
 290              	.L16:
 291 003e C046     		.align	2
 292              	.L15:
 293 0040 00010540 		.word	1074069760
 294 0044 FFFFFFF8 		.word	-117440513
 295              		.cfi_endproc
 296              	.LFE4:
 297              		.size	PWM_Fail_SetMode, .-PWM_Fail_SetMode
 298              		.section	.text.PWM_Fail_SetQDMode,"ax",%progbits
 299              		.align	2
 300              		.global	PWM_Fail_SetQDMode
 301              		.code	16
 302              		.thumb_func
 303              		.type	PWM_Fail_SetQDMode, %function
 304              	PWM_Fail_SetQDMode:
 305              	.LFB5:
 321:.\Generated_Source\PSoC4/PWM_Fail.c **** 
 322:.\Generated_Source\PSoC4/PWM_Fail.c **** 
ARM GAS  C:\Users\Greg\AppData\Local\Temp\ccDa5X8H.s 			page 12


 323:.\Generated_Source\PSoC4/PWM_Fail.c **** /*******************************************************************************
 324:.\Generated_Source\PSoC4/PWM_Fail.c **** * Function Name: PWM_Fail_SetQDMode
 325:.\Generated_Source\PSoC4/PWM_Fail.c **** ********************************************************************************
 326:.\Generated_Source\PSoC4/PWM_Fail.c **** *
 327:.\Generated_Source\PSoC4/PWM_Fail.c **** * Summary:
 328:.\Generated_Source\PSoC4/PWM_Fail.c **** *  Sets the the Quadrature Decoder to one of the 3 supported modes.
 329:.\Generated_Source\PSoC4/PWM_Fail.c **** *  Its functionality is only applicable to Quadrature Decoder operation.
 330:.\Generated_Source\PSoC4/PWM_Fail.c **** *
 331:.\Generated_Source\PSoC4/PWM_Fail.c **** * Parameters:
 332:.\Generated_Source\PSoC4/PWM_Fail.c **** *  qdMode: Quadrature Decoder mode
 333:.\Generated_Source\PSoC4/PWM_Fail.c **** *   Values:
 334:.\Generated_Source\PSoC4/PWM_Fail.c **** *         - PWM_Fail_MODE_X1 - Counts on phi 1 rising
 335:.\Generated_Source\PSoC4/PWM_Fail.c **** *         - PWM_Fail_MODE_X2 - Counts on both edges of phi1 (2x faster)
 336:.\Generated_Source\PSoC4/PWM_Fail.c **** *         - PWM_Fail_MODE_X4 - Counts on both edges of phi1 and phi2
 337:.\Generated_Source\PSoC4/PWM_Fail.c **** *                                        (4x faster)
 338:.\Generated_Source\PSoC4/PWM_Fail.c **** *
 339:.\Generated_Source\PSoC4/PWM_Fail.c **** * Return:
 340:.\Generated_Source\PSoC4/PWM_Fail.c **** *  None
 341:.\Generated_Source\PSoC4/PWM_Fail.c **** *
 342:.\Generated_Source\PSoC4/PWM_Fail.c **** *******************************************************************************/
 343:.\Generated_Source\PSoC4/PWM_Fail.c **** void PWM_Fail_SetQDMode(uint32 qdMode)
 344:.\Generated_Source\PSoC4/PWM_Fail.c **** {
 306              		.loc 1 344 0
 307              		.cfi_startproc
 308 0000 90B5     		push	{r4, r7, lr}
 309              	.LCFI13:
 310              		.cfi_def_cfa_offset 12
 311              		.cfi_offset 4, -12
 312              		.cfi_offset 7, -8
 313              		.cfi_offset 14, -4
 314 0002 85B0     		sub	sp, sp, #20
 315              	.LCFI14:
 316              		.cfi_def_cfa_offset 32
 317 0004 00AF     		add	r7, sp, #0
 318              	.LCFI15:
 319              		.cfi_def_cfa_register 7
 320 0006 7860     		str	r0, [r7, #4]
 345:.\Generated_Source\PSoC4/PWM_Fail.c ****     uint8 enableInterrupts;
 346:.\Generated_Source\PSoC4/PWM_Fail.c **** 
 347:.\Generated_Source\PSoC4/PWM_Fail.c ****     enableInterrupts = CyEnterCriticalSection();
 321              		.loc 1 347 0
 322 0008 3C1C     		mov	r4, r7
 323 000a 0F34     		add	r4, r4, #15
 324 000c FFF7FEFF 		bl	CyEnterCriticalSection
 325 0010 031C     		mov	r3, r0
 326 0012 2370     		strb	r3, [r4]
 348:.\Generated_Source\PSoC4/PWM_Fail.c **** 
 349:.\Generated_Source\PSoC4/PWM_Fail.c ****     PWM_Fail_CONTROL_REG &= (uint32)~PWM_Fail_QUAD_MODE_MASK;
 327              		.loc 1 349 0
 328 0014 0A4B     		ldr	r3, .L18
 329 0016 0A4A     		ldr	r2, .L18
 330 0018 1168     		ldr	r1, [r2]
 331 001a 0A4A     		ldr	r2, .L18+4
 332 001c 0A40     		and	r2, r1
 333 001e 1A60     		str	r2, [r3]
 350:.\Generated_Source\PSoC4/PWM_Fail.c ****     PWM_Fail_CONTROL_REG |= qdMode;
 334              		.loc 1 350 0
ARM GAS  C:\Users\Greg\AppData\Local\Temp\ccDa5X8H.s 			page 13


 335 0020 074B     		ldr	r3, .L18
 336 0022 074A     		ldr	r2, .L18
 337 0024 1168     		ldr	r1, [r2]
 338 0026 7A68     		ldr	r2, [r7, #4]
 339 0028 0A43     		orr	r2, r1
 340 002a 1A60     		str	r2, [r3]
 351:.\Generated_Source\PSoC4/PWM_Fail.c **** 
 352:.\Generated_Source\PSoC4/PWM_Fail.c ****     CyExitCriticalSection(enableInterrupts);
 341              		.loc 1 352 0
 342 002c 3B1C     		mov	r3, r7
 343 002e 0F33     		add	r3, r3, #15
 344 0030 1B78     		ldrb	r3, [r3]
 345 0032 181C     		mov	r0, r3
 346 0034 FFF7FEFF 		bl	CyExitCriticalSection
 353:.\Generated_Source\PSoC4/PWM_Fail.c **** }
 347              		.loc 1 353 0
 348 0038 BD46     		mov	sp, r7
 349 003a 05B0     		add	sp, sp, #20
 350              		@ sp needed for prologue
 351 003c 90BD     		pop	{r4, r7, pc}
 352              	.L19:
 353 003e C046     		.align	2
 354              	.L18:
 355 0040 00010540 		.word	1074069760
 356 0044 FFFF8FFF 		.word	-7340033
 357              		.cfi_endproc
 358              	.LFE5:
 359              		.size	PWM_Fail_SetQDMode, .-PWM_Fail_SetQDMode
 360              		.section	.text.PWM_Fail_SetPrescaler,"ax",%progbits
 361              		.align	2
 362              		.global	PWM_Fail_SetPrescaler
 363              		.code	16
 364              		.thumb_func
 365              		.type	PWM_Fail_SetPrescaler, %function
 366              	PWM_Fail_SetPrescaler:
 367              	.LFB6:
 354:.\Generated_Source\PSoC4/PWM_Fail.c **** 
 355:.\Generated_Source\PSoC4/PWM_Fail.c **** 
 356:.\Generated_Source\PSoC4/PWM_Fail.c **** /*******************************************************************************
 357:.\Generated_Source\PSoC4/PWM_Fail.c **** * Function Name: PWM_Fail_SetPrescaler
 358:.\Generated_Source\PSoC4/PWM_Fail.c **** ********************************************************************************
 359:.\Generated_Source\PSoC4/PWM_Fail.c **** *
 360:.\Generated_Source\PSoC4/PWM_Fail.c **** * Summary:
 361:.\Generated_Source\PSoC4/PWM_Fail.c **** *  Sets the prescaler value that is applied to the clock input.  Not applicable
 362:.\Generated_Source\PSoC4/PWM_Fail.c **** *  to a PWM with the dead time mode or Quadrature Decoder mode.
 363:.\Generated_Source\PSoC4/PWM_Fail.c **** *
 364:.\Generated_Source\PSoC4/PWM_Fail.c **** * Parameters:
 365:.\Generated_Source\PSoC4/PWM_Fail.c **** *  prescaler: Prescaler divider value
 366:.\Generated_Source\PSoC4/PWM_Fail.c **** *   Values:
 367:.\Generated_Source\PSoC4/PWM_Fail.c **** *         - PWM_Fail_PRESCALE_DIVBY1    - Divide by 1 (no prescaling)
 368:.\Generated_Source\PSoC4/PWM_Fail.c **** *         - PWM_Fail_PRESCALE_DIVBY2    - Divide by 2
 369:.\Generated_Source\PSoC4/PWM_Fail.c **** *         - PWM_Fail_PRESCALE_DIVBY4    - Divide by 4
 370:.\Generated_Source\PSoC4/PWM_Fail.c **** *         - PWM_Fail_PRESCALE_DIVBY8    - Divide by 8
 371:.\Generated_Source\PSoC4/PWM_Fail.c **** *         - PWM_Fail_PRESCALE_DIVBY16   - Divide by 16
 372:.\Generated_Source\PSoC4/PWM_Fail.c **** *         - PWM_Fail_PRESCALE_DIVBY32   - Divide by 32
 373:.\Generated_Source\PSoC4/PWM_Fail.c **** *         - PWM_Fail_PRESCALE_DIVBY64   - Divide by 64
 374:.\Generated_Source\PSoC4/PWM_Fail.c **** *         - PWM_Fail_PRESCALE_DIVBY128  - Divide by 128
ARM GAS  C:\Users\Greg\AppData\Local\Temp\ccDa5X8H.s 			page 14


 375:.\Generated_Source\PSoC4/PWM_Fail.c **** *
 376:.\Generated_Source\PSoC4/PWM_Fail.c **** * Return:
 377:.\Generated_Source\PSoC4/PWM_Fail.c **** *  None
 378:.\Generated_Source\PSoC4/PWM_Fail.c **** *
 379:.\Generated_Source\PSoC4/PWM_Fail.c **** *******************************************************************************/
 380:.\Generated_Source\PSoC4/PWM_Fail.c **** void PWM_Fail_SetPrescaler(uint32 prescaler)
 381:.\Generated_Source\PSoC4/PWM_Fail.c **** {
 368              		.loc 1 381 0
 369              		.cfi_startproc
 370 0000 90B5     		push	{r4, r7, lr}
 371              	.LCFI16:
 372              		.cfi_def_cfa_offset 12
 373              		.cfi_offset 4, -12
 374              		.cfi_offset 7, -8
 375              		.cfi_offset 14, -4
 376 0002 85B0     		sub	sp, sp, #20
 377              	.LCFI17:
 378              		.cfi_def_cfa_offset 32
 379 0004 00AF     		add	r7, sp, #0
 380              	.LCFI18:
 381              		.cfi_def_cfa_register 7
 382 0006 7860     		str	r0, [r7, #4]
 382:.\Generated_Source\PSoC4/PWM_Fail.c ****     uint8 enableInterrupts;
 383:.\Generated_Source\PSoC4/PWM_Fail.c **** 
 384:.\Generated_Source\PSoC4/PWM_Fail.c ****     enableInterrupts = CyEnterCriticalSection();
 383              		.loc 1 384 0
 384 0008 3C1C     		mov	r4, r7
 385 000a 0F34     		add	r4, r4, #15
 386 000c FFF7FEFF 		bl	CyEnterCriticalSection
 387 0010 031C     		mov	r3, r0
 388 0012 2370     		strb	r3, [r4]
 385:.\Generated_Source\PSoC4/PWM_Fail.c **** 
 386:.\Generated_Source\PSoC4/PWM_Fail.c ****     PWM_Fail_CONTROL_REG &= (uint32)~PWM_Fail_PRESCALER_MASK;
 389              		.loc 1 386 0
 390 0014 0A4B     		ldr	r3, .L21
 391 0016 0A4A     		ldr	r2, .L21
 392 0018 1168     		ldr	r1, [r2]
 393 001a 0A4A     		ldr	r2, .L21+4
 394 001c 0A40     		and	r2, r1
 395 001e 1A60     		str	r2, [r3]
 387:.\Generated_Source\PSoC4/PWM_Fail.c ****     PWM_Fail_CONTROL_REG |= prescaler;
 396              		.loc 1 387 0
 397 0020 074B     		ldr	r3, .L21
 398 0022 074A     		ldr	r2, .L21
 399 0024 1168     		ldr	r1, [r2]
 400 0026 7A68     		ldr	r2, [r7, #4]
 401 0028 0A43     		orr	r2, r1
 402 002a 1A60     		str	r2, [r3]
 388:.\Generated_Source\PSoC4/PWM_Fail.c **** 
 389:.\Generated_Source\PSoC4/PWM_Fail.c ****     CyExitCriticalSection(enableInterrupts);
 403              		.loc 1 389 0
 404 002c 3B1C     		mov	r3, r7
 405 002e 0F33     		add	r3, r3, #15
 406 0030 1B78     		ldrb	r3, [r3]
 407 0032 181C     		mov	r0, r3
 408 0034 FFF7FEFF 		bl	CyExitCriticalSection
 390:.\Generated_Source\PSoC4/PWM_Fail.c **** }
ARM GAS  C:\Users\Greg\AppData\Local\Temp\ccDa5X8H.s 			page 15


 409              		.loc 1 390 0
 410 0038 BD46     		mov	sp, r7
 411 003a 05B0     		add	sp, sp, #20
 412              		@ sp needed for prologue
 413 003c 90BD     		pop	{r4, r7, pc}
 414              	.L22:
 415 003e C046     		.align	2
 416              	.L21:
 417 0040 00010540 		.word	1074069760
 418 0044 FF00FFFF 		.word	-65281
 419              		.cfi_endproc
 420              	.LFE6:
 421              		.size	PWM_Fail_SetPrescaler, .-PWM_Fail_SetPrescaler
 422              		.section	.text.PWM_Fail_SetOneShot,"ax",%progbits
 423              		.align	2
 424              		.global	PWM_Fail_SetOneShot
 425              		.code	16
 426              		.thumb_func
 427              		.type	PWM_Fail_SetOneShot, %function
 428              	PWM_Fail_SetOneShot:
 429              	.LFB7:
 391:.\Generated_Source\PSoC4/PWM_Fail.c **** 
 392:.\Generated_Source\PSoC4/PWM_Fail.c **** 
 393:.\Generated_Source\PSoC4/PWM_Fail.c **** /*******************************************************************************
 394:.\Generated_Source\PSoC4/PWM_Fail.c **** * Function Name: PWM_Fail_SetOneShot
 395:.\Generated_Source\PSoC4/PWM_Fail.c **** ********************************************************************************
 396:.\Generated_Source\PSoC4/PWM_Fail.c **** *
 397:.\Generated_Source\PSoC4/PWM_Fail.c **** * Summary:
 398:.\Generated_Source\PSoC4/PWM_Fail.c **** *  Writes the register that controls whether the PWM_Fail runs
 399:.\Generated_Source\PSoC4/PWM_Fail.c **** *  continuously or stops when terminal count is reached.  By default the
 400:.\Generated_Source\PSoC4/PWM_Fail.c **** *  PWM_Fail operates in the continuous mode.
 401:.\Generated_Source\PSoC4/PWM_Fail.c **** *
 402:.\Generated_Source\PSoC4/PWM_Fail.c **** * Parameters:
 403:.\Generated_Source\PSoC4/PWM_Fail.c **** *  oneShotEnable
 404:.\Generated_Source\PSoC4/PWM_Fail.c **** *   Values:
 405:.\Generated_Source\PSoC4/PWM_Fail.c **** *     - 0 - Continuous
 406:.\Generated_Source\PSoC4/PWM_Fail.c **** *     - 1 - Enable One Shot
 407:.\Generated_Source\PSoC4/PWM_Fail.c **** *
 408:.\Generated_Source\PSoC4/PWM_Fail.c **** * Return:
 409:.\Generated_Source\PSoC4/PWM_Fail.c **** *  None
 410:.\Generated_Source\PSoC4/PWM_Fail.c **** *
 411:.\Generated_Source\PSoC4/PWM_Fail.c **** *******************************************************************************/
 412:.\Generated_Source\PSoC4/PWM_Fail.c **** void PWM_Fail_SetOneShot(uint32 oneShotEnable)
 413:.\Generated_Source\PSoC4/PWM_Fail.c **** {
 430              		.loc 1 413 0
 431              		.cfi_startproc
 432 0000 90B5     		push	{r4, r7, lr}
 433              	.LCFI19:
 434              		.cfi_def_cfa_offset 12
 435              		.cfi_offset 4, -12
 436              		.cfi_offset 7, -8
 437              		.cfi_offset 14, -4
 438 0002 85B0     		sub	sp, sp, #20
 439              	.LCFI20:
 440              		.cfi_def_cfa_offset 32
 441 0004 00AF     		add	r7, sp, #0
 442              	.LCFI21:
ARM GAS  C:\Users\Greg\AppData\Local\Temp\ccDa5X8H.s 			page 16


 443              		.cfi_def_cfa_register 7
 444 0006 7860     		str	r0, [r7, #4]
 414:.\Generated_Source\PSoC4/PWM_Fail.c ****     uint8 enableInterrupts;
 415:.\Generated_Source\PSoC4/PWM_Fail.c **** 
 416:.\Generated_Source\PSoC4/PWM_Fail.c ****     enableInterrupts = CyEnterCriticalSection();
 445              		.loc 1 416 0
 446 0008 3C1C     		mov	r4, r7
 447 000a 0F34     		add	r4, r4, #15
 448 000c FFF7FEFF 		bl	CyEnterCriticalSection
 449 0010 031C     		mov	r3, r0
 450 0012 2370     		strb	r3, [r4]
 417:.\Generated_Source\PSoC4/PWM_Fail.c **** 
 418:.\Generated_Source\PSoC4/PWM_Fail.c ****     PWM_Fail_CONTROL_REG &= (uint32)~PWM_Fail_ONESHOT_MASK;
 451              		.loc 1 418 0
 452 0014 0B4B     		ldr	r3, .L24
 453 0016 0B4A     		ldr	r2, .L24
 454 0018 1168     		ldr	r1, [r2]
 455 001a 0B4A     		ldr	r2, .L24+4
 456 001c 0A40     		and	r2, r1
 457 001e 1A60     		str	r2, [r3]
 419:.\Generated_Source\PSoC4/PWM_Fail.c ****     PWM_Fail_CONTROL_REG |= ((uint32)((oneShotEnable & PWM_Fail_1BIT_MASK) <<
 458              		.loc 1 419 0
 459 0020 084B     		ldr	r3, .L24
 460 0022 084A     		ldr	r2, .L24
 461 0024 1168     		ldr	r1, [r2]
 462 0026 7868     		ldr	r0, [r7, #4]
 463 0028 0122     		mov	r2, #1
 464 002a 0240     		and	r2, r0
 465 002c 9204     		lsl	r2, r2, #18
 466 002e 0A43     		orr	r2, r1
 467 0030 1A60     		str	r2, [r3]
 420:.\Generated_Source\PSoC4/PWM_Fail.c ****                                                                PWM_Fail_ONESHOT_SHIFT));
 421:.\Generated_Source\PSoC4/PWM_Fail.c **** 
 422:.\Generated_Source\PSoC4/PWM_Fail.c ****     CyExitCriticalSection(enableInterrupts);
 468              		.loc 1 422 0
 469 0032 3B1C     		mov	r3, r7
 470 0034 0F33     		add	r3, r3, #15
 471 0036 1B78     		ldrb	r3, [r3]
 472 0038 181C     		mov	r0, r3
 473 003a FFF7FEFF 		bl	CyExitCriticalSection
 423:.\Generated_Source\PSoC4/PWM_Fail.c **** }
 474              		.loc 1 423 0
 475 003e BD46     		mov	sp, r7
 476 0040 05B0     		add	sp, sp, #20
 477              		@ sp needed for prologue
 478 0042 90BD     		pop	{r4, r7, pc}
 479              	.L25:
 480              		.align	2
 481              	.L24:
 482 0044 00010540 		.word	1074069760
 483 0048 FFFFFBFF 		.word	-262145
 484              		.cfi_endproc
 485              	.LFE7:
 486              		.size	PWM_Fail_SetOneShot, .-PWM_Fail_SetOneShot
 487              		.section	.text.PWM_Fail_SetPWMMode,"ax",%progbits
 488              		.align	2
 489              		.global	PWM_Fail_SetPWMMode
ARM GAS  C:\Users\Greg\AppData\Local\Temp\ccDa5X8H.s 			page 17


 490              		.code	16
 491              		.thumb_func
 492              		.type	PWM_Fail_SetPWMMode, %function
 493              	PWM_Fail_SetPWMMode:
 494              	.LFB8:
 424:.\Generated_Source\PSoC4/PWM_Fail.c **** 
 425:.\Generated_Source\PSoC4/PWM_Fail.c **** 
 426:.\Generated_Source\PSoC4/PWM_Fail.c **** /*******************************************************************************
 427:.\Generated_Source\PSoC4/PWM_Fail.c **** * Function Name: PWM_Fail_SetPWMMode
 428:.\Generated_Source\PSoC4/PWM_Fail.c **** ********************************************************************************
 429:.\Generated_Source\PSoC4/PWM_Fail.c **** *
 430:.\Generated_Source\PSoC4/PWM_Fail.c **** * Summary:
 431:.\Generated_Source\PSoC4/PWM_Fail.c **** *  Writes the control register that determines what mode of operation the PWM
 432:.\Generated_Source\PSoC4/PWM_Fail.c **** *  output lines are driven in.  There is a setting for what to do on a
 433:.\Generated_Source\PSoC4/PWM_Fail.c **** *  comparison match (CC_MATCH), on an overflow (OVERFLOW) and on an underflow
 434:.\Generated_Source\PSoC4/PWM_Fail.c **** *  (UNDERFLOW).  The value for each of the three must be ORed together to form
 435:.\Generated_Source\PSoC4/PWM_Fail.c **** *  the mode.
 436:.\Generated_Source\PSoC4/PWM_Fail.c **** *
 437:.\Generated_Source\PSoC4/PWM_Fail.c **** * Parameters:
 438:.\Generated_Source\PSoC4/PWM_Fail.c **** *  modeMask: A combination of three mode settings.  Mask must include a value
 439:.\Generated_Source\PSoC4/PWM_Fail.c **** *  for each of the three or use one of the preconfigured PWM settings.
 440:.\Generated_Source\PSoC4/PWM_Fail.c **** *   Values:
 441:.\Generated_Source\PSoC4/PWM_Fail.c **** *     - CC_MATCH_SET        - Set on comparison match
 442:.\Generated_Source\PSoC4/PWM_Fail.c **** *     - CC_MATCH_CLEAR      - Clear on comparison match
 443:.\Generated_Source\PSoC4/PWM_Fail.c **** *     - CC_MATCH_INVERT     - Invert on comparison match
 444:.\Generated_Source\PSoC4/PWM_Fail.c **** *     - CC_MATCH_NO_CHANGE  - No change on comparison match
 445:.\Generated_Source\PSoC4/PWM_Fail.c **** *     - OVERLOW_SET         - Set on overflow
 446:.\Generated_Source\PSoC4/PWM_Fail.c **** *     - OVERLOW_CLEAR       - Clear on  overflow
 447:.\Generated_Source\PSoC4/PWM_Fail.c **** *     - OVERLOW_INVERT      - Invert on overflow
 448:.\Generated_Source\PSoC4/PWM_Fail.c **** *     - OVERLOW_NO_CHANGE   - No change on overflow
 449:.\Generated_Source\PSoC4/PWM_Fail.c **** *     - UNDERFLOW_SET       - Set on underflow
 450:.\Generated_Source\PSoC4/PWM_Fail.c **** *     - UNDERFLOW_CLEAR     - Clear on underflow
 451:.\Generated_Source\PSoC4/PWM_Fail.c **** *     - UNDERFLOW_INVERT    - Invert on underflow
 452:.\Generated_Source\PSoC4/PWM_Fail.c **** *     - UNDERFLOW_NO_CHANGE - No change on underflow
 453:.\Generated_Source\PSoC4/PWM_Fail.c **** *     - PWM_MODE_LEFT       - Setting for left aligned PWM.  Should be combined
 454:.\Generated_Source\PSoC4/PWM_Fail.c **** *                             with up counting mode
 455:.\Generated_Source\PSoC4/PWM_Fail.c **** *     - PWM_MODE_RIGHT      - Setting for right aligned PWM.  Should be combined
 456:.\Generated_Source\PSoC4/PWM_Fail.c **** *                             with down counting mode
 457:.\Generated_Source\PSoC4/PWM_Fail.c **** *     - PWM_MODE_CENTER     - Setting for center aligned PWM.  Should be
 458:.\Generated_Source\PSoC4/PWM_Fail.c **** *                             combined with up/down 0 mode
 459:.\Generated_Source\PSoC4/PWM_Fail.c **** *     - PWM_MODE_ASYM       - Setting for asymmetric PWM.  Should be combined
 460:.\Generated_Source\PSoC4/PWM_Fail.c **** *                             with up/down 1 mode
 461:.\Generated_Source\PSoC4/PWM_Fail.c **** *
 462:.\Generated_Source\PSoC4/PWM_Fail.c **** * Return:
 463:.\Generated_Source\PSoC4/PWM_Fail.c **** *  None
 464:.\Generated_Source\PSoC4/PWM_Fail.c **** *
 465:.\Generated_Source\PSoC4/PWM_Fail.c **** *******************************************************************************/
 466:.\Generated_Source\PSoC4/PWM_Fail.c **** void PWM_Fail_SetPWMMode(uint32 modeMask)
 467:.\Generated_Source\PSoC4/PWM_Fail.c **** {
 495              		.loc 1 467 0
 496              		.cfi_startproc
 497 0000 80B5     		push	{r7, lr}
 498              	.LCFI22:
 499              		.cfi_def_cfa_offset 8
 500              		.cfi_offset 7, -8
 501              		.cfi_offset 14, -4
 502 0002 82B0     		sub	sp, sp, #8
ARM GAS  C:\Users\Greg\AppData\Local\Temp\ccDa5X8H.s 			page 18


 503              	.LCFI23:
 504              		.cfi_def_cfa_offset 16
 505 0004 00AF     		add	r7, sp, #0
 506              	.LCFI24:
 507              		.cfi_def_cfa_register 7
 508 0006 7860     		str	r0, [r7, #4]
 468:.\Generated_Source\PSoC4/PWM_Fail.c ****     PWM_Fail_TRIG_CONTROL2_REG = (modeMask & PWM_Fail_6BIT_MASK);
 509              		.loc 1 468 0
 510 0008 034B     		ldr	r3, .L27
 511 000a 7968     		ldr	r1, [r7, #4]
 512 000c 3F22     		mov	r2, #63
 513 000e 0A40     		and	r2, r1
 514 0010 1A60     		str	r2, [r3]
 469:.\Generated_Source\PSoC4/PWM_Fail.c **** }
 515              		.loc 1 469 0
 516 0012 BD46     		mov	sp, r7
 517 0014 02B0     		add	sp, sp, #8
 518              		@ sp needed for prologue
 519 0016 80BD     		pop	{r7, pc}
 520              	.L28:
 521              		.align	2
 522              	.L27:
 523 0018 28010540 		.word	1074069800
 524              		.cfi_endproc
 525              	.LFE8:
 526              		.size	PWM_Fail_SetPWMMode, .-PWM_Fail_SetPWMMode
 527              		.section	.text.PWM_Fail_SetPWMSyncKill,"ax",%progbits
 528              		.align	2
 529              		.global	PWM_Fail_SetPWMSyncKill
 530              		.code	16
 531              		.thumb_func
 532              		.type	PWM_Fail_SetPWMSyncKill, %function
 533              	PWM_Fail_SetPWMSyncKill:
 534              	.LFB9:
 470:.\Generated_Source\PSoC4/PWM_Fail.c **** 
 471:.\Generated_Source\PSoC4/PWM_Fail.c **** 
 472:.\Generated_Source\PSoC4/PWM_Fail.c **** 
 473:.\Generated_Source\PSoC4/PWM_Fail.c **** /*******************************************************************************
 474:.\Generated_Source\PSoC4/PWM_Fail.c **** * Function Name: PWM_Fail_SetPWMSyncKill
 475:.\Generated_Source\PSoC4/PWM_Fail.c **** ********************************************************************************
 476:.\Generated_Source\PSoC4/PWM_Fail.c **** *
 477:.\Generated_Source\PSoC4/PWM_Fail.c **** * Summary:
 478:.\Generated_Source\PSoC4/PWM_Fail.c **** *  Writes the register that controls whether the PWM kill signal (stop input)
 479:.\Generated_Source\PSoC4/PWM_Fail.c **** *  causes asynchronous or synchronous kill operation.  By default the kill
 480:.\Generated_Source\PSoC4/PWM_Fail.c **** *  operation is asynchronous.  This functionality is only applicable to the PWM
 481:.\Generated_Source\PSoC4/PWM_Fail.c **** *  and PWM with dead time modes.
 482:.\Generated_Source\PSoC4/PWM_Fail.c **** *
 483:.\Generated_Source\PSoC4/PWM_Fail.c **** *  For Synchronous mode the kill signal disables both the line and line_n
 484:.\Generated_Source\PSoC4/PWM_Fail.c **** *  signals until the next terminal count.
 485:.\Generated_Source\PSoC4/PWM_Fail.c **** *
 486:.\Generated_Source\PSoC4/PWM_Fail.c **** *  For Asynchronous mode the kill signal disables both the line and line_n
 487:.\Generated_Source\PSoC4/PWM_Fail.c **** *  signals when the kill signal is present.  This mode should only be used
 488:.\Generated_Source\PSoC4/PWM_Fail.c **** *  when the kill signal (stop input) is configured in the pass through mode
 489:.\Generated_Source\PSoC4/PWM_Fail.c **** *  (Level sensitive signal).
 490:.\Generated_Source\PSoC4/PWM_Fail.c **** 
 491:.\Generated_Source\PSoC4/PWM_Fail.c **** *
 492:.\Generated_Source\PSoC4/PWM_Fail.c **** * Parameters:
ARM GAS  C:\Users\Greg\AppData\Local\Temp\ccDa5X8H.s 			page 19


 493:.\Generated_Source\PSoC4/PWM_Fail.c **** *  syncKillEnable
 494:.\Generated_Source\PSoC4/PWM_Fail.c **** *   Values:
 495:.\Generated_Source\PSoC4/PWM_Fail.c **** *     - 0 - Asynchronous
 496:.\Generated_Source\PSoC4/PWM_Fail.c **** *     - 1 - Synchronous
 497:.\Generated_Source\PSoC4/PWM_Fail.c **** *
 498:.\Generated_Source\PSoC4/PWM_Fail.c **** * Return:
 499:.\Generated_Source\PSoC4/PWM_Fail.c **** *  None
 500:.\Generated_Source\PSoC4/PWM_Fail.c **** *
 501:.\Generated_Source\PSoC4/PWM_Fail.c **** *******************************************************************************/
 502:.\Generated_Source\PSoC4/PWM_Fail.c **** void PWM_Fail_SetPWMSyncKill(uint32 syncKillEnable)
 503:.\Generated_Source\PSoC4/PWM_Fail.c **** {
 535              		.loc 1 503 0
 536              		.cfi_startproc
 537 0000 90B5     		push	{r4, r7, lr}
 538              	.LCFI25:
 539              		.cfi_def_cfa_offset 12
 540              		.cfi_offset 4, -12
 541              		.cfi_offset 7, -8
 542              		.cfi_offset 14, -4
 543 0002 85B0     		sub	sp, sp, #20
 544              	.LCFI26:
 545              		.cfi_def_cfa_offset 32
 546 0004 00AF     		add	r7, sp, #0
 547              	.LCFI27:
 548              		.cfi_def_cfa_register 7
 549 0006 7860     		str	r0, [r7, #4]
 504:.\Generated_Source\PSoC4/PWM_Fail.c ****     uint8 enableInterrupts;
 505:.\Generated_Source\PSoC4/PWM_Fail.c **** 
 506:.\Generated_Source\PSoC4/PWM_Fail.c ****     enableInterrupts = CyEnterCriticalSection();
 550              		.loc 1 506 0
 551 0008 3C1C     		mov	r4, r7
 552 000a 0F34     		add	r4, r4, #15
 553 000c FFF7FEFF 		bl	CyEnterCriticalSection
 554 0010 031C     		mov	r3, r0
 555 0012 2370     		strb	r3, [r4]
 507:.\Generated_Source\PSoC4/PWM_Fail.c **** 
 508:.\Generated_Source\PSoC4/PWM_Fail.c ****     PWM_Fail_CONTROL_REG &= (uint32)~PWM_Fail_PWM_SYNC_KILL_MASK;
 556              		.loc 1 508 0
 557 0014 0B4B     		ldr	r3, .L30
 558 0016 0B4A     		ldr	r2, .L30
 559 0018 1268     		ldr	r2, [r2]
 560 001a 0421     		mov	r1, #4
 561 001c 8A43     		bic	r2, r1
 562 001e 1A60     		str	r2, [r3]
 509:.\Generated_Source\PSoC4/PWM_Fail.c ****     PWM_Fail_CONTROL_REG |= ((uint32)((syncKillEnable & PWM_Fail_1BIT_MASK)  <<
 563              		.loc 1 509 0
 564 0020 084B     		ldr	r3, .L30
 565 0022 084A     		ldr	r2, .L30
 566 0024 1168     		ldr	r1, [r2]
 567 0026 7868     		ldr	r0, [r7, #4]
 568 0028 0122     		mov	r2, #1
 569 002a 0240     		and	r2, r0
 570 002c 9200     		lsl	r2, r2, #2
 571 002e 0A43     		orr	r2, r1
 572 0030 1A60     		str	r2, [r3]
 510:.\Generated_Source\PSoC4/PWM_Fail.c ****                                                PWM_Fail_PWM_SYNC_KILL_SHIFT));
 511:.\Generated_Source\PSoC4/PWM_Fail.c **** 
ARM GAS  C:\Users\Greg\AppData\Local\Temp\ccDa5X8H.s 			page 20


 512:.\Generated_Source\PSoC4/PWM_Fail.c ****     CyExitCriticalSection(enableInterrupts);
 573              		.loc 1 512 0
 574 0032 3B1C     		mov	r3, r7
 575 0034 0F33     		add	r3, r3, #15
 576 0036 1B78     		ldrb	r3, [r3]
 577 0038 181C     		mov	r0, r3
 578 003a FFF7FEFF 		bl	CyExitCriticalSection
 513:.\Generated_Source\PSoC4/PWM_Fail.c **** }
 579              		.loc 1 513 0
 580 003e BD46     		mov	sp, r7
 581 0040 05B0     		add	sp, sp, #20
 582              		@ sp needed for prologue
 583 0042 90BD     		pop	{r4, r7, pc}
 584              	.L31:
 585              		.align	2
 586              	.L30:
 587 0044 00010540 		.word	1074069760
 588              		.cfi_endproc
 589              	.LFE9:
 590              		.size	PWM_Fail_SetPWMSyncKill, .-PWM_Fail_SetPWMSyncKill
 591              		.section	.text.PWM_Fail_SetPWMStopOnKill,"ax",%progbits
 592              		.align	2
 593              		.global	PWM_Fail_SetPWMStopOnKill
 594              		.code	16
 595              		.thumb_func
 596              		.type	PWM_Fail_SetPWMStopOnKill, %function
 597              	PWM_Fail_SetPWMStopOnKill:
 598              	.LFB10:
 514:.\Generated_Source\PSoC4/PWM_Fail.c **** 
 515:.\Generated_Source\PSoC4/PWM_Fail.c **** 
 516:.\Generated_Source\PSoC4/PWM_Fail.c **** /*******************************************************************************
 517:.\Generated_Source\PSoC4/PWM_Fail.c **** * Function Name: PWM_Fail_SetPWMStopOnKill
 518:.\Generated_Source\PSoC4/PWM_Fail.c **** ********************************************************************************
 519:.\Generated_Source\PSoC4/PWM_Fail.c **** *
 520:.\Generated_Source\PSoC4/PWM_Fail.c **** * Summary:
 521:.\Generated_Source\PSoC4/PWM_Fail.c **** *  Writes the register that controls whether the PWM kill signal (stop input)
 522:.\Generated_Source\PSoC4/PWM_Fail.c **** *  causes the PWM counter to stop.  By default the kill operation does not stop
 523:.\Generated_Source\PSoC4/PWM_Fail.c **** *  the counter.  This functionality is only applicable to the three PWM modes.
 524:.\Generated_Source\PSoC4/PWM_Fail.c **** *
 525:.\Generated_Source\PSoC4/PWM_Fail.c **** *
 526:.\Generated_Source\PSoC4/PWM_Fail.c **** * Parameters:
 527:.\Generated_Source\PSoC4/PWM_Fail.c **** *  stopOnKillEnable
 528:.\Generated_Source\PSoC4/PWM_Fail.c **** *   Values:
 529:.\Generated_Source\PSoC4/PWM_Fail.c **** *     - 0 - Don't stop
 530:.\Generated_Source\PSoC4/PWM_Fail.c **** *     - 1 - Stop
 531:.\Generated_Source\PSoC4/PWM_Fail.c **** *
 532:.\Generated_Source\PSoC4/PWM_Fail.c **** * Return:
 533:.\Generated_Source\PSoC4/PWM_Fail.c **** *  None
 534:.\Generated_Source\PSoC4/PWM_Fail.c **** *
 535:.\Generated_Source\PSoC4/PWM_Fail.c **** *******************************************************************************/
 536:.\Generated_Source\PSoC4/PWM_Fail.c **** void PWM_Fail_SetPWMStopOnKill(uint32 stopOnKillEnable)
 537:.\Generated_Source\PSoC4/PWM_Fail.c **** {
 599              		.loc 1 537 0
 600              		.cfi_startproc
 601 0000 90B5     		push	{r4, r7, lr}
 602              	.LCFI28:
 603              		.cfi_def_cfa_offset 12
ARM GAS  C:\Users\Greg\AppData\Local\Temp\ccDa5X8H.s 			page 21


 604              		.cfi_offset 4, -12
 605              		.cfi_offset 7, -8
 606              		.cfi_offset 14, -4
 607 0002 85B0     		sub	sp, sp, #20
 608              	.LCFI29:
 609              		.cfi_def_cfa_offset 32
 610 0004 00AF     		add	r7, sp, #0
 611              	.LCFI30:
 612              		.cfi_def_cfa_register 7
 613 0006 7860     		str	r0, [r7, #4]
 538:.\Generated_Source\PSoC4/PWM_Fail.c ****     uint8 enableInterrupts;
 539:.\Generated_Source\PSoC4/PWM_Fail.c **** 
 540:.\Generated_Source\PSoC4/PWM_Fail.c ****     enableInterrupts = CyEnterCriticalSection();
 614              		.loc 1 540 0
 615 0008 3C1C     		mov	r4, r7
 616 000a 0F34     		add	r4, r4, #15
 617 000c FFF7FEFF 		bl	CyEnterCriticalSection
 618 0010 031C     		mov	r3, r0
 619 0012 2370     		strb	r3, [r4]
 541:.\Generated_Source\PSoC4/PWM_Fail.c **** 
 542:.\Generated_Source\PSoC4/PWM_Fail.c ****     PWM_Fail_CONTROL_REG &= (uint32)~PWM_Fail_PWM_STOP_KILL_MASK;
 620              		.loc 1 542 0
 621 0014 0B4B     		ldr	r3, .L33
 622 0016 0B4A     		ldr	r2, .L33
 623 0018 1268     		ldr	r2, [r2]
 624 001a 0821     		mov	r1, #8
 625 001c 8A43     		bic	r2, r1
 626 001e 1A60     		str	r2, [r3]
 543:.\Generated_Source\PSoC4/PWM_Fail.c ****     PWM_Fail_CONTROL_REG |= ((uint32)((stopOnKillEnable & PWM_Fail_1BIT_MASK)  <<
 627              		.loc 1 543 0
 628 0020 084B     		ldr	r3, .L33
 629 0022 084A     		ldr	r2, .L33
 630 0024 1168     		ldr	r1, [r2]
 631 0026 7868     		ldr	r0, [r7, #4]
 632 0028 0122     		mov	r2, #1
 633 002a 0240     		and	r2, r0
 634 002c D200     		lsl	r2, r2, #3
 635 002e 0A43     		orr	r2, r1
 636 0030 1A60     		str	r2, [r3]
 544:.\Generated_Source\PSoC4/PWM_Fail.c ****                                                          PWM_Fail_PWM_STOP_KILL_SHIFT));
 545:.\Generated_Source\PSoC4/PWM_Fail.c **** 
 546:.\Generated_Source\PSoC4/PWM_Fail.c ****     CyExitCriticalSection(enableInterrupts);
 637              		.loc 1 546 0
 638 0032 3B1C     		mov	r3, r7
 639 0034 0F33     		add	r3, r3, #15
 640 0036 1B78     		ldrb	r3, [r3]
 641 0038 181C     		mov	r0, r3
 642 003a FFF7FEFF 		bl	CyExitCriticalSection
 547:.\Generated_Source\PSoC4/PWM_Fail.c **** }
 643              		.loc 1 547 0
 644 003e BD46     		mov	sp, r7
 645 0040 05B0     		add	sp, sp, #20
 646              		@ sp needed for prologue
 647 0042 90BD     		pop	{r4, r7, pc}
 648              	.L34:
 649              		.align	2
 650              	.L33:
ARM GAS  C:\Users\Greg\AppData\Local\Temp\ccDa5X8H.s 			page 22


 651 0044 00010540 		.word	1074069760
 652              		.cfi_endproc
 653              	.LFE10:
 654              		.size	PWM_Fail_SetPWMStopOnKill, .-PWM_Fail_SetPWMStopOnKill
 655              		.section	.text.PWM_Fail_SetPWMDeadTime,"ax",%progbits
 656              		.align	2
 657              		.global	PWM_Fail_SetPWMDeadTime
 658              		.code	16
 659              		.thumb_func
 660              		.type	PWM_Fail_SetPWMDeadTime, %function
 661              	PWM_Fail_SetPWMDeadTime:
 662              	.LFB11:
 548:.\Generated_Source\PSoC4/PWM_Fail.c **** 
 549:.\Generated_Source\PSoC4/PWM_Fail.c **** 
 550:.\Generated_Source\PSoC4/PWM_Fail.c **** /*******************************************************************************
 551:.\Generated_Source\PSoC4/PWM_Fail.c **** * Function Name: PWM_Fail_SetPWMDeadTime
 552:.\Generated_Source\PSoC4/PWM_Fail.c **** ********************************************************************************
 553:.\Generated_Source\PSoC4/PWM_Fail.c **** *
 554:.\Generated_Source\PSoC4/PWM_Fail.c **** * Summary:
 555:.\Generated_Source\PSoC4/PWM_Fail.c **** *  Writes the dead time control value.  This value delays the rising edge of
 556:.\Generated_Source\PSoC4/PWM_Fail.c **** *  both the line and line_n signals the designated number of cycles resulting
 557:.\Generated_Source\PSoC4/PWM_Fail.c **** *  in both signals being inactive for that many cycles.  This functionality is
 558:.\Generated_Source\PSoC4/PWM_Fail.c **** *  only applicable to the PWM in the dead time mode.
 559:.\Generated_Source\PSoC4/PWM_Fail.c **** 
 560:.\Generated_Source\PSoC4/PWM_Fail.c **** *
 561:.\Generated_Source\PSoC4/PWM_Fail.c **** * Parameters:
 562:.\Generated_Source\PSoC4/PWM_Fail.c **** *  Dead time to insert
 563:.\Generated_Source\PSoC4/PWM_Fail.c **** *   Values: 0 to 255
 564:.\Generated_Source\PSoC4/PWM_Fail.c **** *
 565:.\Generated_Source\PSoC4/PWM_Fail.c **** * Return:
 566:.\Generated_Source\PSoC4/PWM_Fail.c **** *  None
 567:.\Generated_Source\PSoC4/PWM_Fail.c **** *
 568:.\Generated_Source\PSoC4/PWM_Fail.c **** *******************************************************************************/
 569:.\Generated_Source\PSoC4/PWM_Fail.c **** void PWM_Fail_SetPWMDeadTime(uint32 deadTime)
 570:.\Generated_Source\PSoC4/PWM_Fail.c **** {
 663              		.loc 1 570 0
 664              		.cfi_startproc
 665 0000 90B5     		push	{r4, r7, lr}
 666              	.LCFI31:
 667              		.cfi_def_cfa_offset 12
 668              		.cfi_offset 4, -12
 669              		.cfi_offset 7, -8
 670              		.cfi_offset 14, -4
 671 0002 85B0     		sub	sp, sp, #20
 672              	.LCFI32:
 673              		.cfi_def_cfa_offset 32
 674 0004 00AF     		add	r7, sp, #0
 675              	.LCFI33:
 676              		.cfi_def_cfa_register 7
 677 0006 7860     		str	r0, [r7, #4]
 571:.\Generated_Source\PSoC4/PWM_Fail.c ****     uint8 enableInterrupts;
 572:.\Generated_Source\PSoC4/PWM_Fail.c **** 
 573:.\Generated_Source\PSoC4/PWM_Fail.c ****     enableInterrupts = CyEnterCriticalSection();
 678              		.loc 1 573 0
 679 0008 3C1C     		mov	r4, r7
 680 000a 0F34     		add	r4, r4, #15
 681 000c FFF7FEFF 		bl	CyEnterCriticalSection
ARM GAS  C:\Users\Greg\AppData\Local\Temp\ccDa5X8H.s 			page 23


 682 0010 031C     		mov	r3, r0
 683 0012 2370     		strb	r3, [r4]
 574:.\Generated_Source\PSoC4/PWM_Fail.c **** 
 575:.\Generated_Source\PSoC4/PWM_Fail.c ****     PWM_Fail_CONTROL_REG &= (uint32)~PWM_Fail_PRESCALER_MASK;
 684              		.loc 1 575 0
 685 0014 0B4B     		ldr	r3, .L36
 686 0016 0B4A     		ldr	r2, .L36
 687 0018 1168     		ldr	r1, [r2]
 688 001a 0B4A     		ldr	r2, .L36+4
 689 001c 0A40     		and	r2, r1
 690 001e 1A60     		str	r2, [r3]
 576:.\Generated_Source\PSoC4/PWM_Fail.c ****     PWM_Fail_CONTROL_REG |= ((uint32)((deadTime & PWM_Fail_8BIT_MASK) <<
 691              		.loc 1 576 0
 692 0020 084B     		ldr	r3, .L36
 693 0022 084A     		ldr	r2, .L36
 694 0024 1168     		ldr	r1, [r2]
 695 0026 7A68     		ldr	r2, [r7, #4]
 696 0028 1202     		lsl	r2, r2, #8
 697 002a 1204     		lsl	r2, r2, #16
 698 002c 120C     		lsr	r2, r2, #16
 699 002e 0A43     		orr	r2, r1
 700 0030 1A60     		str	r2, [r3]
 577:.\Generated_Source\PSoC4/PWM_Fail.c ****                                                           PWM_Fail_PRESCALER_SHIFT));
 578:.\Generated_Source\PSoC4/PWM_Fail.c **** 
 579:.\Generated_Source\PSoC4/PWM_Fail.c ****     CyExitCriticalSection(enableInterrupts);
 701              		.loc 1 579 0
 702 0032 3B1C     		mov	r3, r7
 703 0034 0F33     		add	r3, r3, #15
 704 0036 1B78     		ldrb	r3, [r3]
 705 0038 181C     		mov	r0, r3
 706 003a FFF7FEFF 		bl	CyExitCriticalSection
 580:.\Generated_Source\PSoC4/PWM_Fail.c **** }
 707              		.loc 1 580 0
 708 003e BD46     		mov	sp, r7
 709 0040 05B0     		add	sp, sp, #20
 710              		@ sp needed for prologue
 711 0042 90BD     		pop	{r4, r7, pc}
 712              	.L37:
 713              		.align	2
 714              	.L36:
 715 0044 00010540 		.word	1074069760
 716 0048 FF00FFFF 		.word	-65281
 717              		.cfi_endproc
 718              	.LFE11:
 719              		.size	PWM_Fail_SetPWMDeadTime, .-PWM_Fail_SetPWMDeadTime
 720              		.section	.text.PWM_Fail_SetPWMInvert,"ax",%progbits
 721              		.align	2
 722              		.global	PWM_Fail_SetPWMInvert
 723              		.code	16
 724              		.thumb_func
 725              		.type	PWM_Fail_SetPWMInvert, %function
 726              	PWM_Fail_SetPWMInvert:
 727              	.LFB12:
 581:.\Generated_Source\PSoC4/PWM_Fail.c **** 
 582:.\Generated_Source\PSoC4/PWM_Fail.c **** 
 583:.\Generated_Source\PSoC4/PWM_Fail.c **** /*******************************************************************************
 584:.\Generated_Source\PSoC4/PWM_Fail.c **** * Function Name: PWM_Fail_SetPWMInvert
ARM GAS  C:\Users\Greg\AppData\Local\Temp\ccDa5X8H.s 			page 24


 585:.\Generated_Source\PSoC4/PWM_Fail.c **** ********************************************************************************
 586:.\Generated_Source\PSoC4/PWM_Fail.c **** *
 587:.\Generated_Source\PSoC4/PWM_Fail.c **** * Summary:
 588:.\Generated_Source\PSoC4/PWM_Fail.c **** *  Writes the bits that control whether the line and line_n outputs are
 589:.\Generated_Source\PSoC4/PWM_Fail.c **** *  inverted from their normal output values.  This functionality is only
 590:.\Generated_Source\PSoC4/PWM_Fail.c **** *  applicable to the three PWM modes.
 591:.\Generated_Source\PSoC4/PWM_Fail.c **** *
 592:.\Generated_Source\PSoC4/PWM_Fail.c **** * Parameters:
 593:.\Generated_Source\PSoC4/PWM_Fail.c **** *  mask: Mask of outputs to invert.
 594:.\Generated_Source\PSoC4/PWM_Fail.c **** *   Values:
 595:.\Generated_Source\PSoC4/PWM_Fail.c **** *         - PWM_Fail_INVERT_LINE   - Inverts the line output
 596:.\Generated_Source\PSoC4/PWM_Fail.c **** *         - PWM_Fail_INVERT_LINE_N - Inverts the line_n output
 597:.\Generated_Source\PSoC4/PWM_Fail.c **** *
 598:.\Generated_Source\PSoC4/PWM_Fail.c **** * Return:
 599:.\Generated_Source\PSoC4/PWM_Fail.c **** *  None
 600:.\Generated_Source\PSoC4/PWM_Fail.c **** *
 601:.\Generated_Source\PSoC4/PWM_Fail.c **** *******************************************************************************/
 602:.\Generated_Source\PSoC4/PWM_Fail.c **** void PWM_Fail_SetPWMInvert(uint32 mask)
 603:.\Generated_Source\PSoC4/PWM_Fail.c **** {
 728              		.loc 1 603 0
 729              		.cfi_startproc
 730 0000 90B5     		push	{r4, r7, lr}
 731              	.LCFI34:
 732              		.cfi_def_cfa_offset 12
 733              		.cfi_offset 4, -12
 734              		.cfi_offset 7, -8
 735              		.cfi_offset 14, -4
 736 0002 85B0     		sub	sp, sp, #20
 737              	.LCFI35:
 738              		.cfi_def_cfa_offset 32
 739 0004 00AF     		add	r7, sp, #0
 740              	.LCFI36:
 741              		.cfi_def_cfa_register 7
 742 0006 7860     		str	r0, [r7, #4]
 604:.\Generated_Source\PSoC4/PWM_Fail.c ****     uint8 enableInterrupts;
 605:.\Generated_Source\PSoC4/PWM_Fail.c **** 
 606:.\Generated_Source\PSoC4/PWM_Fail.c ****     enableInterrupts = CyEnterCriticalSection();
 743              		.loc 1 606 0
 744 0008 3C1C     		mov	r4, r7
 745 000a 0F34     		add	r4, r4, #15
 746 000c FFF7FEFF 		bl	CyEnterCriticalSection
 747 0010 031C     		mov	r3, r0
 748 0012 2370     		strb	r3, [r4]
 607:.\Generated_Source\PSoC4/PWM_Fail.c **** 
 608:.\Generated_Source\PSoC4/PWM_Fail.c ****     PWM_Fail_CONTROL_REG &= (uint32)~PWM_Fail_INV_OUT_MASK;
 749              		.loc 1 608 0
 750 0014 0A4B     		ldr	r3, .L39
 751 0016 0A4A     		ldr	r2, .L39
 752 0018 1168     		ldr	r1, [r2]
 753 001a 0A4A     		ldr	r2, .L39+4
 754 001c 0A40     		and	r2, r1
 755 001e 1A60     		str	r2, [r3]
 609:.\Generated_Source\PSoC4/PWM_Fail.c ****     PWM_Fail_CONTROL_REG |= mask;
 756              		.loc 1 609 0
 757 0020 074B     		ldr	r3, .L39
 758 0022 074A     		ldr	r2, .L39
 759 0024 1168     		ldr	r1, [r2]
ARM GAS  C:\Users\Greg\AppData\Local\Temp\ccDa5X8H.s 			page 25


 760 0026 7A68     		ldr	r2, [r7, #4]
 761 0028 0A43     		orr	r2, r1
 762 002a 1A60     		str	r2, [r3]
 610:.\Generated_Source\PSoC4/PWM_Fail.c **** 
 611:.\Generated_Source\PSoC4/PWM_Fail.c ****     CyExitCriticalSection(enableInterrupts);
 763              		.loc 1 611 0
 764 002c 3B1C     		mov	r3, r7
 765 002e 0F33     		add	r3, r3, #15
 766 0030 1B78     		ldrb	r3, [r3]
 767 0032 181C     		mov	r0, r3
 768 0034 FFF7FEFF 		bl	CyExitCriticalSection
 612:.\Generated_Source\PSoC4/PWM_Fail.c **** }
 769              		.loc 1 612 0
 770 0038 BD46     		mov	sp, r7
 771 003a 05B0     		add	sp, sp, #20
 772              		@ sp needed for prologue
 773 003c 90BD     		pop	{r4, r7, pc}
 774              	.L40:
 775 003e C046     		.align	2
 776              	.L39:
 777 0040 00010540 		.word	1074069760
 778 0044 FFFFCFFF 		.word	-3145729
 779              		.cfi_endproc
 780              	.LFE12:
 781              		.size	PWM_Fail_SetPWMInvert, .-PWM_Fail_SetPWMInvert
 782              		.section	.text.PWM_Fail_WriteCounter,"ax",%progbits
 783              		.align	2
 784              		.global	PWM_Fail_WriteCounter
 785              		.code	16
 786              		.thumb_func
 787              		.type	PWM_Fail_WriteCounter, %function
 788              	PWM_Fail_WriteCounter:
 789              	.LFB13:
 613:.\Generated_Source\PSoC4/PWM_Fail.c **** 
 614:.\Generated_Source\PSoC4/PWM_Fail.c **** 
 615:.\Generated_Source\PSoC4/PWM_Fail.c **** 
 616:.\Generated_Source\PSoC4/PWM_Fail.c **** /*******************************************************************************
 617:.\Generated_Source\PSoC4/PWM_Fail.c **** * Function Name: PWM_Fail_WriteCounter
 618:.\Generated_Source\PSoC4/PWM_Fail.c **** ********************************************************************************
 619:.\Generated_Source\PSoC4/PWM_Fail.c **** *
 620:.\Generated_Source\PSoC4/PWM_Fail.c **** * Summary:
 621:.\Generated_Source\PSoC4/PWM_Fail.c **** *  Writes a new 16bit counter value directly into the counter register, thus
 622:.\Generated_Source\PSoC4/PWM_Fail.c **** *  setting the counter (not the period) to the value written. It is not
 623:.\Generated_Source\PSoC4/PWM_Fail.c **** *  advised to write to this field when the counter is running.
 624:.\Generated_Source\PSoC4/PWM_Fail.c **** *
 625:.\Generated_Source\PSoC4/PWM_Fail.c **** * Parameters:
 626:.\Generated_Source\PSoC4/PWM_Fail.c **** *  count: value to write
 627:.\Generated_Source\PSoC4/PWM_Fail.c **** *
 628:.\Generated_Source\PSoC4/PWM_Fail.c **** * Return:
 629:.\Generated_Source\PSoC4/PWM_Fail.c **** *  None
 630:.\Generated_Source\PSoC4/PWM_Fail.c **** *
 631:.\Generated_Source\PSoC4/PWM_Fail.c **** *******************************************************************************/
 632:.\Generated_Source\PSoC4/PWM_Fail.c **** void PWM_Fail_WriteCounter(uint32 count)
 633:.\Generated_Source\PSoC4/PWM_Fail.c **** {
 790              		.loc 1 633 0
 791              		.cfi_startproc
 792 0000 80B5     		push	{r7, lr}
ARM GAS  C:\Users\Greg\AppData\Local\Temp\ccDa5X8H.s 			page 26


 793              	.LCFI37:
 794              		.cfi_def_cfa_offset 8
 795              		.cfi_offset 7, -8
 796              		.cfi_offset 14, -4
 797 0002 82B0     		sub	sp, sp, #8
 798              	.LCFI38:
 799              		.cfi_def_cfa_offset 16
 800 0004 00AF     		add	r7, sp, #0
 801              	.LCFI39:
 802              		.cfi_def_cfa_register 7
 803 0006 7860     		str	r0, [r7, #4]
 634:.\Generated_Source\PSoC4/PWM_Fail.c ****     PWM_Fail_COUNTER_REG = (count & PWM_Fail_16BIT_MASK);
 804              		.loc 1 634 0
 805 0008 034B     		ldr	r3, .L42
 806 000a 7A68     		ldr	r2, [r7, #4]
 807 000c 1204     		lsl	r2, r2, #16
 808 000e 120C     		lsr	r2, r2, #16
 809 0010 1A60     		str	r2, [r3]
 635:.\Generated_Source\PSoC4/PWM_Fail.c **** }
 810              		.loc 1 635 0
 811 0012 BD46     		mov	sp, r7
 812 0014 02B0     		add	sp, sp, #8
 813              		@ sp needed for prologue
 814 0016 80BD     		pop	{r7, pc}
 815              	.L43:
 816              		.align	2
 817              	.L42:
 818 0018 08010540 		.word	1074069768
 819              		.cfi_endproc
 820              	.LFE13:
 821              		.size	PWM_Fail_WriteCounter, .-PWM_Fail_WriteCounter
 822              		.section	.text.PWM_Fail_ReadCounter,"ax",%progbits
 823              		.align	2
 824              		.global	PWM_Fail_ReadCounter
 825              		.code	16
 826              		.thumb_func
 827              		.type	PWM_Fail_ReadCounter, %function
 828              	PWM_Fail_ReadCounter:
 829              	.LFB14:
 636:.\Generated_Source\PSoC4/PWM_Fail.c **** 
 637:.\Generated_Source\PSoC4/PWM_Fail.c **** 
 638:.\Generated_Source\PSoC4/PWM_Fail.c **** /*******************************************************************************
 639:.\Generated_Source\PSoC4/PWM_Fail.c **** * Function Name: PWM_Fail_ReadCounter
 640:.\Generated_Source\PSoC4/PWM_Fail.c **** ********************************************************************************
 641:.\Generated_Source\PSoC4/PWM_Fail.c **** *
 642:.\Generated_Source\PSoC4/PWM_Fail.c **** * Summary:
 643:.\Generated_Source\PSoC4/PWM_Fail.c **** *  Reads the current counter value.
 644:.\Generated_Source\PSoC4/PWM_Fail.c **** *
 645:.\Generated_Source\PSoC4/PWM_Fail.c **** * Parameters:
 646:.\Generated_Source\PSoC4/PWM_Fail.c **** *  None
 647:.\Generated_Source\PSoC4/PWM_Fail.c **** *
 648:.\Generated_Source\PSoC4/PWM_Fail.c **** * Return:
 649:.\Generated_Source\PSoC4/PWM_Fail.c **** *  Current counter value
 650:.\Generated_Source\PSoC4/PWM_Fail.c **** *
 651:.\Generated_Source\PSoC4/PWM_Fail.c **** *******************************************************************************/
 652:.\Generated_Source\PSoC4/PWM_Fail.c **** uint32 PWM_Fail_ReadCounter(void)
 653:.\Generated_Source\PSoC4/PWM_Fail.c **** {
ARM GAS  C:\Users\Greg\AppData\Local\Temp\ccDa5X8H.s 			page 27


 830              		.loc 1 653 0
 831              		.cfi_startproc
 832 0000 80B5     		push	{r7, lr}
 833              	.LCFI40:
 834              		.cfi_def_cfa_offset 8
 835              		.cfi_offset 7, -8
 836              		.cfi_offset 14, -4
 837 0002 00AF     		add	r7, sp, #0
 838              	.LCFI41:
 839              		.cfi_def_cfa_register 7
 654:.\Generated_Source\PSoC4/PWM_Fail.c ****     return (PWM_Fail_COUNTER_REG & PWM_Fail_16BIT_MASK);
 840              		.loc 1 654 0
 841 0004 034B     		ldr	r3, .L46
 842 0006 1B68     		ldr	r3, [r3]
 843 0008 1B04     		lsl	r3, r3, #16
 844 000a 1B0C     		lsr	r3, r3, #16
 655:.\Generated_Source\PSoC4/PWM_Fail.c **** }
 845              		.loc 1 655 0
 846 000c 181C     		mov	r0, r3
 847 000e BD46     		mov	sp, r7
 848              		@ sp needed for prologue
 849 0010 80BD     		pop	{r7, pc}
 850              	.L47:
 851 0012 C046     		.align	2
 852              	.L46:
 853 0014 08010540 		.word	1074069768
 854              		.cfi_endproc
 855              	.LFE14:
 856              		.size	PWM_Fail_ReadCounter, .-PWM_Fail_ReadCounter
 857              		.section	.text.PWM_Fail_SetCounterMode,"ax",%progbits
 858              		.align	2
 859              		.global	PWM_Fail_SetCounterMode
 860              		.code	16
 861              		.thumb_func
 862              		.type	PWM_Fail_SetCounterMode, %function
 863              	PWM_Fail_SetCounterMode:
 864              	.LFB15:
 656:.\Generated_Source\PSoC4/PWM_Fail.c **** 
 657:.\Generated_Source\PSoC4/PWM_Fail.c **** 
 658:.\Generated_Source\PSoC4/PWM_Fail.c **** /*******************************************************************************
 659:.\Generated_Source\PSoC4/PWM_Fail.c **** * Function Name: PWM_Fail_SetCounterMode
 660:.\Generated_Source\PSoC4/PWM_Fail.c **** ********************************************************************************
 661:.\Generated_Source\PSoC4/PWM_Fail.c **** *
 662:.\Generated_Source\PSoC4/PWM_Fail.c **** * Summary:
 663:.\Generated_Source\PSoC4/PWM_Fail.c **** *  Sets the counter mode.  Applicable to all modes except Quadrature Decoder
 664:.\Generated_Source\PSoC4/PWM_Fail.c **** *  and the PWM with a pseudo random output.
 665:.\Generated_Source\PSoC4/PWM_Fail.c **** *
 666:.\Generated_Source\PSoC4/PWM_Fail.c **** * Parameters:
 667:.\Generated_Source\PSoC4/PWM_Fail.c **** *  counterMode: Enumerated counter type values
 668:.\Generated_Source\PSoC4/PWM_Fail.c **** *   Values:
 669:.\Generated_Source\PSoC4/PWM_Fail.c **** *     - PWM_Fail_COUNT_UP       - Counts up
 670:.\Generated_Source\PSoC4/PWM_Fail.c **** *     - PWM_Fail_COUNT_DOWN     - Counts down
 671:.\Generated_Source\PSoC4/PWM_Fail.c **** *     - PWM_Fail_COUNT_UPDOWN0  - Counts up and down. Terminal count
 672:.\Generated_Source\PSoC4/PWM_Fail.c **** *                                         generated when counter reaches 0
 673:.\Generated_Source\PSoC4/PWM_Fail.c **** *     - PWM_Fail_COUNT_UPDOWN1  - Counts up and down. Terminal count
 674:.\Generated_Source\PSoC4/PWM_Fail.c **** *                                         generated both when counter reaches 0
 675:.\Generated_Source\PSoC4/PWM_Fail.c **** *                                         and period
ARM GAS  C:\Users\Greg\AppData\Local\Temp\ccDa5X8H.s 			page 28


 676:.\Generated_Source\PSoC4/PWM_Fail.c **** *
 677:.\Generated_Source\PSoC4/PWM_Fail.c **** * Return:
 678:.\Generated_Source\PSoC4/PWM_Fail.c **** *  None
 679:.\Generated_Source\PSoC4/PWM_Fail.c **** *
 680:.\Generated_Source\PSoC4/PWM_Fail.c **** *******************************************************************************/
 681:.\Generated_Source\PSoC4/PWM_Fail.c **** void PWM_Fail_SetCounterMode(uint32 counterMode)
 682:.\Generated_Source\PSoC4/PWM_Fail.c **** {
 865              		.loc 1 682 0
 866              		.cfi_startproc
 867 0000 90B5     		push	{r4, r7, lr}
 868              	.LCFI42:
 869              		.cfi_def_cfa_offset 12
 870              		.cfi_offset 4, -12
 871              		.cfi_offset 7, -8
 872              		.cfi_offset 14, -4
 873 0002 85B0     		sub	sp, sp, #20
 874              	.LCFI43:
 875              		.cfi_def_cfa_offset 32
 876 0004 00AF     		add	r7, sp, #0
 877              	.LCFI44:
 878              		.cfi_def_cfa_register 7
 879 0006 7860     		str	r0, [r7, #4]
 683:.\Generated_Source\PSoC4/PWM_Fail.c ****     uint8 enableInterrupts;
 684:.\Generated_Source\PSoC4/PWM_Fail.c **** 
 685:.\Generated_Source\PSoC4/PWM_Fail.c ****     enableInterrupts = CyEnterCriticalSection();
 880              		.loc 1 685 0
 881 0008 3C1C     		mov	r4, r7
 882 000a 0F34     		add	r4, r4, #15
 883 000c FFF7FEFF 		bl	CyEnterCriticalSection
 884 0010 031C     		mov	r3, r0
 885 0012 2370     		strb	r3, [r4]
 686:.\Generated_Source\PSoC4/PWM_Fail.c **** 
 687:.\Generated_Source\PSoC4/PWM_Fail.c ****     PWM_Fail_CONTROL_REG &= (uint32)~PWM_Fail_UPDOWN_MASK;
 886              		.loc 1 687 0
 887 0014 0A4B     		ldr	r3, .L49
 888 0016 0A4A     		ldr	r2, .L49
 889 0018 1168     		ldr	r1, [r2]
 890 001a 0A4A     		ldr	r2, .L49+4
 891 001c 0A40     		and	r2, r1
 892 001e 1A60     		str	r2, [r3]
 688:.\Generated_Source\PSoC4/PWM_Fail.c ****     PWM_Fail_CONTROL_REG |= counterMode;
 893              		.loc 1 688 0
 894 0020 074B     		ldr	r3, .L49
 895 0022 074A     		ldr	r2, .L49
 896 0024 1168     		ldr	r1, [r2]
 897 0026 7A68     		ldr	r2, [r7, #4]
 898 0028 0A43     		orr	r2, r1
 899 002a 1A60     		str	r2, [r3]
 689:.\Generated_Source\PSoC4/PWM_Fail.c **** 
 690:.\Generated_Source\PSoC4/PWM_Fail.c ****     CyExitCriticalSection(enableInterrupts);
 900              		.loc 1 690 0
 901 002c 3B1C     		mov	r3, r7
 902 002e 0F33     		add	r3, r3, #15
 903 0030 1B78     		ldrb	r3, [r3]
 904 0032 181C     		mov	r0, r3
 905 0034 FFF7FEFF 		bl	CyExitCriticalSection
 691:.\Generated_Source\PSoC4/PWM_Fail.c **** }
ARM GAS  C:\Users\Greg\AppData\Local\Temp\ccDa5X8H.s 			page 29


 906              		.loc 1 691 0
 907 0038 BD46     		mov	sp, r7
 908 003a 05B0     		add	sp, sp, #20
 909              		@ sp needed for prologue
 910 003c 90BD     		pop	{r4, r7, pc}
 911              	.L50:
 912 003e C046     		.align	2
 913              	.L49:
 914 0040 00010540 		.word	1074069760
 915 0044 FFFFFCFF 		.word	-196609
 916              		.cfi_endproc
 917              	.LFE15:
 918              		.size	PWM_Fail_SetCounterMode, .-PWM_Fail_SetCounterMode
 919              		.section	.text.PWM_Fail_WritePeriod,"ax",%progbits
 920              		.align	2
 921              		.global	PWM_Fail_WritePeriod
 922              		.code	16
 923              		.thumb_func
 924              		.type	PWM_Fail_WritePeriod, %function
 925              	PWM_Fail_WritePeriod:
 926              	.LFB16:
 692:.\Generated_Source\PSoC4/PWM_Fail.c **** 
 693:.\Generated_Source\PSoC4/PWM_Fail.c **** 
 694:.\Generated_Source\PSoC4/PWM_Fail.c **** /*******************************************************************************
 695:.\Generated_Source\PSoC4/PWM_Fail.c **** * Function Name: PWM_Fail_WritePeriod
 696:.\Generated_Source\PSoC4/PWM_Fail.c **** ********************************************************************************
 697:.\Generated_Source\PSoC4/PWM_Fail.c **** *
 698:.\Generated_Source\PSoC4/PWM_Fail.c **** * Summary:
 699:.\Generated_Source\PSoC4/PWM_Fail.c **** *  Writes the 16 bit period register with the new period value.
 700:.\Generated_Source\PSoC4/PWM_Fail.c **** *  To cause the counter to count for N cycles this register should be written
 701:.\Generated_Source\PSoC4/PWM_Fail.c **** *  with N-1 (counts from 0 to period inclusive).
 702:.\Generated_Source\PSoC4/PWM_Fail.c **** *
 703:.\Generated_Source\PSoC4/PWM_Fail.c **** * Parameters:
 704:.\Generated_Source\PSoC4/PWM_Fail.c **** *  period: Period value
 705:.\Generated_Source\PSoC4/PWM_Fail.c **** *
 706:.\Generated_Source\PSoC4/PWM_Fail.c **** * Return:
 707:.\Generated_Source\PSoC4/PWM_Fail.c **** *  None
 708:.\Generated_Source\PSoC4/PWM_Fail.c **** *
 709:.\Generated_Source\PSoC4/PWM_Fail.c **** *******************************************************************************/
 710:.\Generated_Source\PSoC4/PWM_Fail.c **** void PWM_Fail_WritePeriod(uint32 period)
 711:.\Generated_Source\PSoC4/PWM_Fail.c **** {
 927              		.loc 1 711 0
 928              		.cfi_startproc
 929 0000 80B5     		push	{r7, lr}
 930              	.LCFI45:
 931              		.cfi_def_cfa_offset 8
 932              		.cfi_offset 7, -8
 933              		.cfi_offset 14, -4
 934 0002 82B0     		sub	sp, sp, #8
 935              	.LCFI46:
 936              		.cfi_def_cfa_offset 16
 937 0004 00AF     		add	r7, sp, #0
 938              	.LCFI47:
 939              		.cfi_def_cfa_register 7
 940 0006 7860     		str	r0, [r7, #4]
 712:.\Generated_Source\PSoC4/PWM_Fail.c ****     PWM_Fail_PERIOD_REG = (period & PWM_Fail_16BIT_MASK);
 941              		.loc 1 712 0
ARM GAS  C:\Users\Greg\AppData\Local\Temp\ccDa5X8H.s 			page 30


 942 0008 034B     		ldr	r3, .L52
 943 000a 7A68     		ldr	r2, [r7, #4]
 944 000c 1204     		lsl	r2, r2, #16
 945 000e 120C     		lsr	r2, r2, #16
 946 0010 1A60     		str	r2, [r3]
 713:.\Generated_Source\PSoC4/PWM_Fail.c **** }
 947              		.loc 1 713 0
 948 0012 BD46     		mov	sp, r7
 949 0014 02B0     		add	sp, sp, #8
 950              		@ sp needed for prologue
 951 0016 80BD     		pop	{r7, pc}
 952              	.L53:
 953              		.align	2
 954              	.L52:
 955 0018 14010540 		.word	1074069780
 956              		.cfi_endproc
 957              	.LFE16:
 958              		.size	PWM_Fail_WritePeriod, .-PWM_Fail_WritePeriod
 959              		.section	.text.PWM_Fail_ReadPeriod,"ax",%progbits
 960              		.align	2
 961              		.global	PWM_Fail_ReadPeriod
 962              		.code	16
 963              		.thumb_func
 964              		.type	PWM_Fail_ReadPeriod, %function
 965              	PWM_Fail_ReadPeriod:
 966              	.LFB17:
 714:.\Generated_Source\PSoC4/PWM_Fail.c **** 
 715:.\Generated_Source\PSoC4/PWM_Fail.c **** 
 716:.\Generated_Source\PSoC4/PWM_Fail.c **** /*******************************************************************************
 717:.\Generated_Source\PSoC4/PWM_Fail.c **** * Function Name: PWM_Fail_ReadPeriod
 718:.\Generated_Source\PSoC4/PWM_Fail.c **** ********************************************************************************
 719:.\Generated_Source\PSoC4/PWM_Fail.c **** *
 720:.\Generated_Source\PSoC4/PWM_Fail.c **** * Summary:
 721:.\Generated_Source\PSoC4/PWM_Fail.c **** *  Reads the 16 bit period register.
 722:.\Generated_Source\PSoC4/PWM_Fail.c **** *
 723:.\Generated_Source\PSoC4/PWM_Fail.c **** * Parameters:
 724:.\Generated_Source\PSoC4/PWM_Fail.c **** *  None
 725:.\Generated_Source\PSoC4/PWM_Fail.c **** *
 726:.\Generated_Source\PSoC4/PWM_Fail.c **** * Return:
 727:.\Generated_Source\PSoC4/PWM_Fail.c **** *  Period value
 728:.\Generated_Source\PSoC4/PWM_Fail.c **** *
 729:.\Generated_Source\PSoC4/PWM_Fail.c **** *******************************************************************************/
 730:.\Generated_Source\PSoC4/PWM_Fail.c **** uint32 PWM_Fail_ReadPeriod(void)
 731:.\Generated_Source\PSoC4/PWM_Fail.c **** {
 967              		.loc 1 731 0
 968              		.cfi_startproc
 969 0000 80B5     		push	{r7, lr}
 970              	.LCFI48:
 971              		.cfi_def_cfa_offset 8
 972              		.cfi_offset 7, -8
 973              		.cfi_offset 14, -4
 974 0002 00AF     		add	r7, sp, #0
 975              	.LCFI49:
 976              		.cfi_def_cfa_register 7
 732:.\Generated_Source\PSoC4/PWM_Fail.c ****     return (PWM_Fail_PERIOD_REG & PWM_Fail_16BIT_MASK);
 977              		.loc 1 732 0
 978 0004 034B     		ldr	r3, .L56
ARM GAS  C:\Users\Greg\AppData\Local\Temp\ccDa5X8H.s 			page 31


 979 0006 1B68     		ldr	r3, [r3]
 980 0008 1B04     		lsl	r3, r3, #16
 981 000a 1B0C     		lsr	r3, r3, #16
 733:.\Generated_Source\PSoC4/PWM_Fail.c **** }
 982              		.loc 1 733 0
 983 000c 181C     		mov	r0, r3
 984 000e BD46     		mov	sp, r7
 985              		@ sp needed for prologue
 986 0010 80BD     		pop	{r7, pc}
 987              	.L57:
 988 0012 C046     		.align	2
 989              	.L56:
 990 0014 14010540 		.word	1074069780
 991              		.cfi_endproc
 992              	.LFE17:
 993              		.size	PWM_Fail_ReadPeriod, .-PWM_Fail_ReadPeriod
 994              		.section	.text.PWM_Fail_SetCompareSwap,"ax",%progbits
 995              		.align	2
 996              		.global	PWM_Fail_SetCompareSwap
 997              		.code	16
 998              		.thumb_func
 999              		.type	PWM_Fail_SetCompareSwap, %function
 1000              	PWM_Fail_SetCompareSwap:
 1001              	.LFB18:
 734:.\Generated_Source\PSoC4/PWM_Fail.c **** 
 735:.\Generated_Source\PSoC4/PWM_Fail.c **** 
 736:.\Generated_Source\PSoC4/PWM_Fail.c **** /*******************************************************************************
 737:.\Generated_Source\PSoC4/PWM_Fail.c **** * Function Name: PWM_Fail_SetCompareSwap
 738:.\Generated_Source\PSoC4/PWM_Fail.c **** ********************************************************************************
 739:.\Generated_Source\PSoC4/PWM_Fail.c **** *
 740:.\Generated_Source\PSoC4/PWM_Fail.c **** * Summary:
 741:.\Generated_Source\PSoC4/PWM_Fail.c **** *  Writes the register that controls whether the compare registers are
 742:.\Generated_Source\PSoC4/PWM_Fail.c **** *  swapped. When enabled in the Timer/Counter mode(without capture) the swap
 743:.\Generated_Source\PSoC4/PWM_Fail.c **** *  occurs at a TC event. In the PWM mode the swap occurs at the next TC event
 744:.\Generated_Source\PSoC4/PWM_Fail.c **** *  following a hardware switch event.
 745:.\Generated_Source\PSoC4/PWM_Fail.c **** *
 746:.\Generated_Source\PSoC4/PWM_Fail.c **** * Parameters:
 747:.\Generated_Source\PSoC4/PWM_Fail.c **** *  swapEnable
 748:.\Generated_Source\PSoC4/PWM_Fail.c **** *   Values:
 749:.\Generated_Source\PSoC4/PWM_Fail.c **** *     - 0 - Disable swap
 750:.\Generated_Source\PSoC4/PWM_Fail.c **** *     - 1 - Enable swap
 751:.\Generated_Source\PSoC4/PWM_Fail.c **** *
 752:.\Generated_Source\PSoC4/PWM_Fail.c **** * Return:
 753:.\Generated_Source\PSoC4/PWM_Fail.c **** *  None
 754:.\Generated_Source\PSoC4/PWM_Fail.c **** *
 755:.\Generated_Source\PSoC4/PWM_Fail.c **** *******************************************************************************/
 756:.\Generated_Source\PSoC4/PWM_Fail.c **** void PWM_Fail_SetCompareSwap(uint32 swapEnable)
 757:.\Generated_Source\PSoC4/PWM_Fail.c **** {
 1002              		.loc 1 757 0
 1003              		.cfi_startproc
 1004 0000 90B5     		push	{r4, r7, lr}
 1005              	.LCFI50:
 1006              		.cfi_def_cfa_offset 12
 1007              		.cfi_offset 4, -12
 1008              		.cfi_offset 7, -8
 1009              		.cfi_offset 14, -4
 1010 0002 85B0     		sub	sp, sp, #20
ARM GAS  C:\Users\Greg\AppData\Local\Temp\ccDa5X8H.s 			page 32


 1011              	.LCFI51:
 1012              		.cfi_def_cfa_offset 32
 1013 0004 00AF     		add	r7, sp, #0
 1014              	.LCFI52:
 1015              		.cfi_def_cfa_register 7
 1016 0006 7860     		str	r0, [r7, #4]
 758:.\Generated_Source\PSoC4/PWM_Fail.c ****     uint8 enableInterrupts;
 759:.\Generated_Source\PSoC4/PWM_Fail.c **** 
 760:.\Generated_Source\PSoC4/PWM_Fail.c ****     enableInterrupts = CyEnterCriticalSection();
 1017              		.loc 1 760 0
 1018 0008 3C1C     		mov	r4, r7
 1019 000a 0F34     		add	r4, r4, #15
 1020 000c FFF7FEFF 		bl	CyEnterCriticalSection
 1021 0010 031C     		mov	r3, r0
 1022 0012 2370     		strb	r3, [r4]
 761:.\Generated_Source\PSoC4/PWM_Fail.c **** 
 762:.\Generated_Source\PSoC4/PWM_Fail.c ****     PWM_Fail_CONTROL_REG &= (uint32)~PWM_Fail_RELOAD_CC_MASK;
 1023              		.loc 1 762 0
 1024 0014 0B4B     		ldr	r3, .L59
 1025 0016 0B4A     		ldr	r2, .L59
 1026 0018 1268     		ldr	r2, [r2]
 1027 001a 0121     		mov	r1, #1
 1028 001c 8A43     		bic	r2, r1
 1029 001e 1A60     		str	r2, [r3]
 763:.\Generated_Source\PSoC4/PWM_Fail.c ****     PWM_Fail_CONTROL_REG |= (swapEnable & PWM_Fail_1BIT_MASK);
 1030              		.loc 1 763 0
 1031 0020 084B     		ldr	r3, .L59
 1032 0022 084A     		ldr	r2, .L59
 1033 0024 1168     		ldr	r1, [r2]
 1034 0026 7868     		ldr	r0, [r7, #4]
 1035 0028 0122     		mov	r2, #1
 1036 002a 0240     		and	r2, r0
 1037 002c 0A43     		orr	r2, r1
 1038 002e 1A60     		str	r2, [r3]
 764:.\Generated_Source\PSoC4/PWM_Fail.c **** 
 765:.\Generated_Source\PSoC4/PWM_Fail.c ****     CyExitCriticalSection(enableInterrupts);
 1039              		.loc 1 765 0
 1040 0030 3B1C     		mov	r3, r7
 1041 0032 0F33     		add	r3, r3, #15
 1042 0034 1B78     		ldrb	r3, [r3]
 1043 0036 181C     		mov	r0, r3
 1044 0038 FFF7FEFF 		bl	CyExitCriticalSection
 766:.\Generated_Source\PSoC4/PWM_Fail.c **** }
 1045              		.loc 1 766 0
 1046 003c BD46     		mov	sp, r7
 1047 003e 05B0     		add	sp, sp, #20
 1048              		@ sp needed for prologue
 1049 0040 90BD     		pop	{r4, r7, pc}
 1050              	.L60:
 1051 0042 C046     		.align	2
 1052              	.L59:
 1053 0044 00010540 		.word	1074069760
 1054              		.cfi_endproc
 1055              	.LFE18:
 1056              		.size	PWM_Fail_SetCompareSwap, .-PWM_Fail_SetCompareSwap
 1057              		.section	.text.PWM_Fail_WritePeriodBuf,"ax",%progbits
 1058              		.align	2
ARM GAS  C:\Users\Greg\AppData\Local\Temp\ccDa5X8H.s 			page 33


 1059              		.global	PWM_Fail_WritePeriodBuf
 1060              		.code	16
 1061              		.thumb_func
 1062              		.type	PWM_Fail_WritePeriodBuf, %function
 1063              	PWM_Fail_WritePeriodBuf:
 1064              	.LFB19:
 767:.\Generated_Source\PSoC4/PWM_Fail.c **** 
 768:.\Generated_Source\PSoC4/PWM_Fail.c **** 
 769:.\Generated_Source\PSoC4/PWM_Fail.c **** /*******************************************************************************
 770:.\Generated_Source\PSoC4/PWM_Fail.c **** * Function Name: PWM_Fail_WritePeriodBuf
 771:.\Generated_Source\PSoC4/PWM_Fail.c **** ********************************************************************************
 772:.\Generated_Source\PSoC4/PWM_Fail.c **** *
 773:.\Generated_Source\PSoC4/PWM_Fail.c **** * Summary:
 774:.\Generated_Source\PSoC4/PWM_Fail.c **** *  Writes the 16 bit period buf register with the new period value.
 775:.\Generated_Source\PSoC4/PWM_Fail.c **** *
 776:.\Generated_Source\PSoC4/PWM_Fail.c **** * Parameters:
 777:.\Generated_Source\PSoC4/PWM_Fail.c **** *  periodBuf: Period value
 778:.\Generated_Source\PSoC4/PWM_Fail.c **** *
 779:.\Generated_Source\PSoC4/PWM_Fail.c **** * Return:
 780:.\Generated_Source\PSoC4/PWM_Fail.c **** *  None
 781:.\Generated_Source\PSoC4/PWM_Fail.c **** *
 782:.\Generated_Source\PSoC4/PWM_Fail.c **** *******************************************************************************/
 783:.\Generated_Source\PSoC4/PWM_Fail.c **** void PWM_Fail_WritePeriodBuf(uint32 periodBuf)
 784:.\Generated_Source\PSoC4/PWM_Fail.c **** {
 1065              		.loc 1 784 0
 1066              		.cfi_startproc
 1067 0000 80B5     		push	{r7, lr}
 1068              	.LCFI53:
 1069              		.cfi_def_cfa_offset 8
 1070              		.cfi_offset 7, -8
 1071              		.cfi_offset 14, -4
 1072 0002 82B0     		sub	sp, sp, #8
 1073              	.LCFI54:
 1074              		.cfi_def_cfa_offset 16
 1075 0004 00AF     		add	r7, sp, #0
 1076              	.LCFI55:
 1077              		.cfi_def_cfa_register 7
 1078 0006 7860     		str	r0, [r7, #4]
 785:.\Generated_Source\PSoC4/PWM_Fail.c ****     PWM_Fail_PERIOD_BUF_REG = (periodBuf & PWM_Fail_16BIT_MASK);
 1079              		.loc 1 785 0
 1080 0008 034B     		ldr	r3, .L62
 1081 000a 7A68     		ldr	r2, [r7, #4]
 1082 000c 1204     		lsl	r2, r2, #16
 1083 000e 120C     		lsr	r2, r2, #16
 1084 0010 1A60     		str	r2, [r3]
 786:.\Generated_Source\PSoC4/PWM_Fail.c **** }
 1085              		.loc 1 786 0
 1086 0012 BD46     		mov	sp, r7
 1087 0014 02B0     		add	sp, sp, #8
 1088              		@ sp needed for prologue
 1089 0016 80BD     		pop	{r7, pc}
 1090              	.L63:
 1091              		.align	2
 1092              	.L62:
 1093 0018 18010540 		.word	1074069784
 1094              		.cfi_endproc
 1095              	.LFE19:
ARM GAS  C:\Users\Greg\AppData\Local\Temp\ccDa5X8H.s 			page 34


 1096              		.size	PWM_Fail_WritePeriodBuf, .-PWM_Fail_WritePeriodBuf
 1097              		.section	.text.PWM_Fail_ReadPeriodBuf,"ax",%progbits
 1098              		.align	2
 1099              		.global	PWM_Fail_ReadPeriodBuf
 1100              		.code	16
 1101              		.thumb_func
 1102              		.type	PWM_Fail_ReadPeriodBuf, %function
 1103              	PWM_Fail_ReadPeriodBuf:
 1104              	.LFB20:
 787:.\Generated_Source\PSoC4/PWM_Fail.c **** 
 788:.\Generated_Source\PSoC4/PWM_Fail.c **** 
 789:.\Generated_Source\PSoC4/PWM_Fail.c **** /*******************************************************************************
 790:.\Generated_Source\PSoC4/PWM_Fail.c **** * Function Name: PWM_Fail_ReadPeriodBuf
 791:.\Generated_Source\PSoC4/PWM_Fail.c **** ********************************************************************************
 792:.\Generated_Source\PSoC4/PWM_Fail.c **** *
 793:.\Generated_Source\PSoC4/PWM_Fail.c **** * Summary:
 794:.\Generated_Source\PSoC4/PWM_Fail.c **** *  Reads the 16 bit period buf register.
 795:.\Generated_Source\PSoC4/PWM_Fail.c **** *
 796:.\Generated_Source\PSoC4/PWM_Fail.c **** * Parameters:
 797:.\Generated_Source\PSoC4/PWM_Fail.c **** *  None
 798:.\Generated_Source\PSoC4/PWM_Fail.c **** *
 799:.\Generated_Source\PSoC4/PWM_Fail.c **** * Return:
 800:.\Generated_Source\PSoC4/PWM_Fail.c **** *  Period value
 801:.\Generated_Source\PSoC4/PWM_Fail.c **** *
 802:.\Generated_Source\PSoC4/PWM_Fail.c **** *******************************************************************************/
 803:.\Generated_Source\PSoC4/PWM_Fail.c **** uint32 PWM_Fail_ReadPeriodBuf(void)
 804:.\Generated_Source\PSoC4/PWM_Fail.c **** {
 1105              		.loc 1 804 0
 1106              		.cfi_startproc
 1107 0000 80B5     		push	{r7, lr}
 1108              	.LCFI56:
 1109              		.cfi_def_cfa_offset 8
 1110              		.cfi_offset 7, -8
 1111              		.cfi_offset 14, -4
 1112 0002 00AF     		add	r7, sp, #0
 1113              	.LCFI57:
 1114              		.cfi_def_cfa_register 7
 805:.\Generated_Source\PSoC4/PWM_Fail.c ****     return (PWM_Fail_PERIOD_BUF_REG & PWM_Fail_16BIT_MASK);
 1115              		.loc 1 805 0
 1116 0004 034B     		ldr	r3, .L66
 1117 0006 1B68     		ldr	r3, [r3]
 1118 0008 1B04     		lsl	r3, r3, #16
 1119 000a 1B0C     		lsr	r3, r3, #16
 806:.\Generated_Source\PSoC4/PWM_Fail.c **** }
 1120              		.loc 1 806 0
 1121 000c 181C     		mov	r0, r3
 1122 000e BD46     		mov	sp, r7
 1123              		@ sp needed for prologue
 1124 0010 80BD     		pop	{r7, pc}
 1125              	.L67:
 1126 0012 C046     		.align	2
 1127              	.L66:
 1128 0014 18010540 		.word	1074069784
 1129              		.cfi_endproc
 1130              	.LFE20:
 1131              		.size	PWM_Fail_ReadPeriodBuf, .-PWM_Fail_ReadPeriodBuf
 1132              		.section	.text.PWM_Fail_SetPeriodSwap,"ax",%progbits
ARM GAS  C:\Users\Greg\AppData\Local\Temp\ccDa5X8H.s 			page 35


 1133              		.align	2
 1134              		.global	PWM_Fail_SetPeriodSwap
 1135              		.code	16
 1136              		.thumb_func
 1137              		.type	PWM_Fail_SetPeriodSwap, %function
 1138              	PWM_Fail_SetPeriodSwap:
 1139              	.LFB21:
 807:.\Generated_Source\PSoC4/PWM_Fail.c **** 
 808:.\Generated_Source\PSoC4/PWM_Fail.c **** 
 809:.\Generated_Source\PSoC4/PWM_Fail.c **** /*******************************************************************************
 810:.\Generated_Source\PSoC4/PWM_Fail.c **** * Function Name: PWM_Fail_SetPeriodSwap
 811:.\Generated_Source\PSoC4/PWM_Fail.c **** ********************************************************************************
 812:.\Generated_Source\PSoC4/PWM_Fail.c **** *
 813:.\Generated_Source\PSoC4/PWM_Fail.c **** * Summary:
 814:.\Generated_Source\PSoC4/PWM_Fail.c **** *  Writes the register that controls whether the period registers are
 815:.\Generated_Source\PSoC4/PWM_Fail.c **** *  swapped. When enabled in Timer/Counter mode the swap occurs at a TC event.
 816:.\Generated_Source\PSoC4/PWM_Fail.c **** *  In the PWM mode the swap occurs at the next TC event following a hardware
 817:.\Generated_Source\PSoC4/PWM_Fail.c **** *  switch event.
 818:.\Generated_Source\PSoC4/PWM_Fail.c **** *
 819:.\Generated_Source\PSoC4/PWM_Fail.c **** * Parameters:
 820:.\Generated_Source\PSoC4/PWM_Fail.c **** *  swapEnable
 821:.\Generated_Source\PSoC4/PWM_Fail.c **** *   Values:
 822:.\Generated_Source\PSoC4/PWM_Fail.c **** *     - 0 - Disable swap
 823:.\Generated_Source\PSoC4/PWM_Fail.c **** *     - 1 - Enable swap
 824:.\Generated_Source\PSoC4/PWM_Fail.c **** *
 825:.\Generated_Source\PSoC4/PWM_Fail.c **** * Return:
 826:.\Generated_Source\PSoC4/PWM_Fail.c **** *  None
 827:.\Generated_Source\PSoC4/PWM_Fail.c **** *
 828:.\Generated_Source\PSoC4/PWM_Fail.c **** *******************************************************************************/
 829:.\Generated_Source\PSoC4/PWM_Fail.c **** void PWM_Fail_SetPeriodSwap(uint32 swapEnable)
 830:.\Generated_Source\PSoC4/PWM_Fail.c **** {
 1140              		.loc 1 830 0
 1141              		.cfi_startproc
 1142 0000 90B5     		push	{r4, r7, lr}
 1143              	.LCFI58:
 1144              		.cfi_def_cfa_offset 12
 1145              		.cfi_offset 4, -12
 1146              		.cfi_offset 7, -8
 1147              		.cfi_offset 14, -4
 1148 0002 85B0     		sub	sp, sp, #20
 1149              	.LCFI59:
 1150              		.cfi_def_cfa_offset 32
 1151 0004 00AF     		add	r7, sp, #0
 1152              	.LCFI60:
 1153              		.cfi_def_cfa_register 7
 1154 0006 7860     		str	r0, [r7, #4]
 831:.\Generated_Source\PSoC4/PWM_Fail.c ****     uint8 enableInterrupts;
 832:.\Generated_Source\PSoC4/PWM_Fail.c **** 
 833:.\Generated_Source\PSoC4/PWM_Fail.c ****     enableInterrupts = CyEnterCriticalSection();
 1155              		.loc 1 833 0
 1156 0008 3C1C     		mov	r4, r7
 1157 000a 0F34     		add	r4, r4, #15
 1158 000c FFF7FEFF 		bl	CyEnterCriticalSection
 1159 0010 031C     		mov	r3, r0
 1160 0012 2370     		strb	r3, [r4]
 834:.\Generated_Source\PSoC4/PWM_Fail.c **** 
 835:.\Generated_Source\PSoC4/PWM_Fail.c ****     PWM_Fail_CONTROL_REG &= (uint32)~PWM_Fail_RELOAD_PERIOD_MASK;
ARM GAS  C:\Users\Greg\AppData\Local\Temp\ccDa5X8H.s 			page 36


 1161              		.loc 1 835 0
 1162 0014 0B4B     		ldr	r3, .L69
 1163 0016 0B4A     		ldr	r2, .L69
 1164 0018 1268     		ldr	r2, [r2]
 1165 001a 0221     		mov	r1, #2
 1166 001c 8A43     		bic	r2, r1
 1167 001e 1A60     		str	r2, [r3]
 836:.\Generated_Source\PSoC4/PWM_Fail.c ****     PWM_Fail_CONTROL_REG |= ((uint32)((swapEnable & PWM_Fail_1BIT_MASK) <<
 1168              		.loc 1 836 0
 1169 0020 084B     		ldr	r3, .L69
 1170 0022 084A     		ldr	r2, .L69
 1171 0024 1168     		ldr	r1, [r2]
 1172 0026 7868     		ldr	r0, [r7, #4]
 1173 0028 0122     		mov	r2, #1
 1174 002a 0240     		and	r2, r0
 1175 002c 5200     		lsl	r2, r2, #1
 1176 002e 0A43     		orr	r2, r1
 1177 0030 1A60     		str	r2, [r3]
 837:.\Generated_Source\PSoC4/PWM_Fail.c ****                                                             PWM_Fail_RELOAD_PERIOD_SHIFT));
 838:.\Generated_Source\PSoC4/PWM_Fail.c **** 
 839:.\Generated_Source\PSoC4/PWM_Fail.c ****     CyExitCriticalSection(enableInterrupts);
 1178              		.loc 1 839 0
 1179 0032 3B1C     		mov	r3, r7
 1180 0034 0F33     		add	r3, r3, #15
 1181 0036 1B78     		ldrb	r3, [r3]
 1182 0038 181C     		mov	r0, r3
 1183 003a FFF7FEFF 		bl	CyExitCriticalSection
 840:.\Generated_Source\PSoC4/PWM_Fail.c **** }
 1184              		.loc 1 840 0
 1185 003e BD46     		mov	sp, r7
 1186 0040 05B0     		add	sp, sp, #20
 1187              		@ sp needed for prologue
 1188 0042 90BD     		pop	{r4, r7, pc}
 1189              	.L70:
 1190              		.align	2
 1191              	.L69:
 1192 0044 00010540 		.word	1074069760
 1193              		.cfi_endproc
 1194              	.LFE21:
 1195              		.size	PWM_Fail_SetPeriodSwap, .-PWM_Fail_SetPeriodSwap
 1196              		.section	.text.PWM_Fail_WriteCompare,"ax",%progbits
 1197              		.align	2
 1198              		.global	PWM_Fail_WriteCompare
 1199              		.code	16
 1200              		.thumb_func
 1201              		.type	PWM_Fail_WriteCompare, %function
 1202              	PWM_Fail_WriteCompare:
 1203              	.LFB22:
 841:.\Generated_Source\PSoC4/PWM_Fail.c **** 
 842:.\Generated_Source\PSoC4/PWM_Fail.c **** 
 843:.\Generated_Source\PSoC4/PWM_Fail.c **** /*******************************************************************************
 844:.\Generated_Source\PSoC4/PWM_Fail.c **** * Function Name: PWM_Fail_WriteCompare
 845:.\Generated_Source\PSoC4/PWM_Fail.c **** ********************************************************************************
 846:.\Generated_Source\PSoC4/PWM_Fail.c **** *
 847:.\Generated_Source\PSoC4/PWM_Fail.c **** * Summary:
 848:.\Generated_Source\PSoC4/PWM_Fail.c **** *  Writes the 16 bit compare register with the new compare value. Not
 849:.\Generated_Source\PSoC4/PWM_Fail.c **** *  applicable for Timer/Counter with Capture or in Quadrature Decoder modes.
ARM GAS  C:\Users\Greg\AppData\Local\Temp\ccDa5X8H.s 			page 37


 850:.\Generated_Source\PSoC4/PWM_Fail.c **** *
 851:.\Generated_Source\PSoC4/PWM_Fail.c **** * Parameters:
 852:.\Generated_Source\PSoC4/PWM_Fail.c **** *  compare: Compare value
 853:.\Generated_Source\PSoC4/PWM_Fail.c **** *
 854:.\Generated_Source\PSoC4/PWM_Fail.c **** * Return:
 855:.\Generated_Source\PSoC4/PWM_Fail.c **** *  None
 856:.\Generated_Source\PSoC4/PWM_Fail.c **** *
 857:.\Generated_Source\PSoC4/PWM_Fail.c **** *******************************************************************************/
 858:.\Generated_Source\PSoC4/PWM_Fail.c **** void PWM_Fail_WriteCompare(uint32 compare)
 859:.\Generated_Source\PSoC4/PWM_Fail.c **** {
 1204              		.loc 1 859 0
 1205              		.cfi_startproc
 1206 0000 80B5     		push	{r7, lr}
 1207              	.LCFI61:
 1208              		.cfi_def_cfa_offset 8
 1209              		.cfi_offset 7, -8
 1210              		.cfi_offset 14, -4
 1211 0002 82B0     		sub	sp, sp, #8
 1212              	.LCFI62:
 1213              		.cfi_def_cfa_offset 16
 1214 0004 00AF     		add	r7, sp, #0
 1215              	.LCFI63:
 1216              		.cfi_def_cfa_register 7
 1217 0006 7860     		str	r0, [r7, #4]
 860:.\Generated_Source\PSoC4/PWM_Fail.c ****     #if (PWM_Fail_CY_TCPWM_V2)
 861:.\Generated_Source\PSoC4/PWM_Fail.c ****         uint32 currentMode;
 862:.\Generated_Source\PSoC4/PWM_Fail.c ****     #endif /* (PWM_Fail_CY_TCPWM_V2) */
 863:.\Generated_Source\PSoC4/PWM_Fail.c **** 
 864:.\Generated_Source\PSoC4/PWM_Fail.c ****     #if (PWM_Fail_CY_TCPWM_V2)
 865:.\Generated_Source\PSoC4/PWM_Fail.c ****         currentMode = ((PWM_Fail_CONTROL_REG & PWM_Fail_UPDOWN_MASK) >> PWM_Fail_UPDOWN_SHIFT);
 866:.\Generated_Source\PSoC4/PWM_Fail.c **** 
 867:.\Generated_Source\PSoC4/PWM_Fail.c ****         if (PWM_Fail__COUNT_DOWN == currentMode)
 868:.\Generated_Source\PSoC4/PWM_Fail.c ****         {
 869:.\Generated_Source\PSoC4/PWM_Fail.c ****             PWM_Fail_COMP_CAP_REG = ((compare + 1u) & PWM_Fail_16BIT_MASK);
 870:.\Generated_Source\PSoC4/PWM_Fail.c ****         }
 871:.\Generated_Source\PSoC4/PWM_Fail.c ****         else if (PWM_Fail__COUNT_UP == currentMode)
 872:.\Generated_Source\PSoC4/PWM_Fail.c ****         {
 873:.\Generated_Source\PSoC4/PWM_Fail.c ****             PWM_Fail_COMP_CAP_REG = ((compare - 1u) & PWM_Fail_16BIT_MASK);
 874:.\Generated_Source\PSoC4/PWM_Fail.c ****         }
 875:.\Generated_Source\PSoC4/PWM_Fail.c ****         else
 876:.\Generated_Source\PSoC4/PWM_Fail.c ****         {
 877:.\Generated_Source\PSoC4/PWM_Fail.c ****             PWM_Fail_COMP_CAP_REG = (compare & PWM_Fail_16BIT_MASK);
 878:.\Generated_Source\PSoC4/PWM_Fail.c ****         }
 879:.\Generated_Source\PSoC4/PWM_Fail.c ****     #else
 880:.\Generated_Source\PSoC4/PWM_Fail.c ****         PWM_Fail_COMP_CAP_REG = (compare & PWM_Fail_16BIT_MASK);
 1218              		.loc 1 880 0
 1219 0008 034B     		ldr	r3, .L72
 1220 000a 7A68     		ldr	r2, [r7, #4]
 1221 000c 1204     		lsl	r2, r2, #16
 1222 000e 120C     		lsr	r2, r2, #16
 1223 0010 1A60     		str	r2, [r3]
 881:.\Generated_Source\PSoC4/PWM_Fail.c ****     #endif /* (PWM_Fail_CY_TCPWM_V2) */
 882:.\Generated_Source\PSoC4/PWM_Fail.c **** }
 1224              		.loc 1 882 0
 1225 0012 BD46     		mov	sp, r7
 1226 0014 02B0     		add	sp, sp, #8
 1227              		@ sp needed for prologue
ARM GAS  C:\Users\Greg\AppData\Local\Temp\ccDa5X8H.s 			page 38


 1228 0016 80BD     		pop	{r7, pc}
 1229              	.L73:
 1230              		.align	2
 1231              	.L72:
 1232 0018 0C010540 		.word	1074069772
 1233              		.cfi_endproc
 1234              	.LFE22:
 1235              		.size	PWM_Fail_WriteCompare, .-PWM_Fail_WriteCompare
 1236              		.section	.text.PWM_Fail_ReadCompare,"ax",%progbits
 1237              		.align	2
 1238              		.global	PWM_Fail_ReadCompare
 1239              		.code	16
 1240              		.thumb_func
 1241              		.type	PWM_Fail_ReadCompare, %function
 1242              	PWM_Fail_ReadCompare:
 1243              	.LFB23:
 883:.\Generated_Source\PSoC4/PWM_Fail.c **** 
 884:.\Generated_Source\PSoC4/PWM_Fail.c **** 
 885:.\Generated_Source\PSoC4/PWM_Fail.c **** /*******************************************************************************
 886:.\Generated_Source\PSoC4/PWM_Fail.c **** * Function Name: PWM_Fail_ReadCompare
 887:.\Generated_Source\PSoC4/PWM_Fail.c **** ********************************************************************************
 888:.\Generated_Source\PSoC4/PWM_Fail.c **** *
 889:.\Generated_Source\PSoC4/PWM_Fail.c **** * Summary:
 890:.\Generated_Source\PSoC4/PWM_Fail.c **** *  Reads the compare register. Not applicable for Timer/Counter with Capture
 891:.\Generated_Source\PSoC4/PWM_Fail.c **** *  or in Quadrature Decoder modes.
 892:.\Generated_Source\PSoC4/PWM_Fail.c **** *
 893:.\Generated_Source\PSoC4/PWM_Fail.c **** * Parameters:
 894:.\Generated_Source\PSoC4/PWM_Fail.c **** *  None
 895:.\Generated_Source\PSoC4/PWM_Fail.c **** *
 896:.\Generated_Source\PSoC4/PWM_Fail.c **** * Return:
 897:.\Generated_Source\PSoC4/PWM_Fail.c **** *  Compare value
 898:.\Generated_Source\PSoC4/PWM_Fail.c **** *
 899:.\Generated_Source\PSoC4/PWM_Fail.c **** *******************************************************************************/
 900:.\Generated_Source\PSoC4/PWM_Fail.c **** uint32 PWM_Fail_ReadCompare(void)
 901:.\Generated_Source\PSoC4/PWM_Fail.c **** {
 1244              		.loc 1 901 0
 1245              		.cfi_startproc
 1246 0000 80B5     		push	{r7, lr}
 1247              	.LCFI64:
 1248              		.cfi_def_cfa_offset 8
 1249              		.cfi_offset 7, -8
 1250              		.cfi_offset 14, -4
 1251 0002 00AF     		add	r7, sp, #0
 1252              	.LCFI65:
 1253              		.cfi_def_cfa_register 7
 902:.\Generated_Source\PSoC4/PWM_Fail.c ****     #if (PWM_Fail_CY_TCPWM_V2)
 903:.\Generated_Source\PSoC4/PWM_Fail.c ****         uint32 currentMode;
 904:.\Generated_Source\PSoC4/PWM_Fail.c ****         uint32 regVal;
 905:.\Generated_Source\PSoC4/PWM_Fail.c ****     #endif /* (PWM_Fail_CY_TCPWM_V2) */
 906:.\Generated_Source\PSoC4/PWM_Fail.c **** 
 907:.\Generated_Source\PSoC4/PWM_Fail.c ****     #if (PWM_Fail_CY_TCPWM_V2)
 908:.\Generated_Source\PSoC4/PWM_Fail.c ****         currentMode = ((PWM_Fail_CONTROL_REG & PWM_Fail_UPDOWN_MASK) >> PWM_Fail_UPDOWN_SHIFT);
 909:.\Generated_Source\PSoC4/PWM_Fail.c **** 
 910:.\Generated_Source\PSoC4/PWM_Fail.c ****         if (PWM_Fail__COUNT_DOWN == currentMode)
 911:.\Generated_Source\PSoC4/PWM_Fail.c ****         {
 912:.\Generated_Source\PSoC4/PWM_Fail.c ****             regVal = ((PWM_Fail_COMP_CAP_REG - 1u) & PWM_Fail_16BIT_MASK);
 913:.\Generated_Source\PSoC4/PWM_Fail.c ****         }
ARM GAS  C:\Users\Greg\AppData\Local\Temp\ccDa5X8H.s 			page 39


 914:.\Generated_Source\PSoC4/PWM_Fail.c ****         else if (PWM_Fail__COUNT_UP == currentMode)
 915:.\Generated_Source\PSoC4/PWM_Fail.c ****         {
 916:.\Generated_Source\PSoC4/PWM_Fail.c ****             regVal = ((PWM_Fail_COMP_CAP_REG + 1u) & PWM_Fail_16BIT_MASK);
 917:.\Generated_Source\PSoC4/PWM_Fail.c ****         }
 918:.\Generated_Source\PSoC4/PWM_Fail.c ****         else
 919:.\Generated_Source\PSoC4/PWM_Fail.c ****         {
 920:.\Generated_Source\PSoC4/PWM_Fail.c ****             regVal = (PWM_Fail_COMP_CAP_REG & PWM_Fail_16BIT_MASK);
 921:.\Generated_Source\PSoC4/PWM_Fail.c ****         }
 922:.\Generated_Source\PSoC4/PWM_Fail.c ****         return (regVal);
 923:.\Generated_Source\PSoC4/PWM_Fail.c ****     #else
 924:.\Generated_Source\PSoC4/PWM_Fail.c ****         return (PWM_Fail_COMP_CAP_REG & PWM_Fail_16BIT_MASK);
 1254              		.loc 1 924 0
 1255 0004 034B     		ldr	r3, .L76
 1256 0006 1B68     		ldr	r3, [r3]
 1257 0008 1B04     		lsl	r3, r3, #16
 1258 000a 1B0C     		lsr	r3, r3, #16
 925:.\Generated_Source\PSoC4/PWM_Fail.c ****     #endif /* (PWM_Fail_CY_TCPWM_V2) */
 926:.\Generated_Source\PSoC4/PWM_Fail.c **** }
 1259              		.loc 1 926 0
 1260 000c 181C     		mov	r0, r3
 1261 000e BD46     		mov	sp, r7
 1262              		@ sp needed for prologue
 1263 0010 80BD     		pop	{r7, pc}
 1264              	.L77:
 1265 0012 C046     		.align	2
 1266              	.L76:
 1267 0014 0C010540 		.word	1074069772
 1268              		.cfi_endproc
 1269              	.LFE23:
 1270              		.size	PWM_Fail_ReadCompare, .-PWM_Fail_ReadCompare
 1271              		.section	.text.PWM_Fail_WriteCompareBuf,"ax",%progbits
 1272              		.align	2
 1273              		.global	PWM_Fail_WriteCompareBuf
 1274              		.code	16
 1275              		.thumb_func
 1276              		.type	PWM_Fail_WriteCompareBuf, %function
 1277              	PWM_Fail_WriteCompareBuf:
 1278              	.LFB24:
 927:.\Generated_Source\PSoC4/PWM_Fail.c **** 
 928:.\Generated_Source\PSoC4/PWM_Fail.c **** 
 929:.\Generated_Source\PSoC4/PWM_Fail.c **** /*******************************************************************************
 930:.\Generated_Source\PSoC4/PWM_Fail.c **** * Function Name: PWM_Fail_WriteCompareBuf
 931:.\Generated_Source\PSoC4/PWM_Fail.c **** ********************************************************************************
 932:.\Generated_Source\PSoC4/PWM_Fail.c **** *
 933:.\Generated_Source\PSoC4/PWM_Fail.c **** * Summary:
 934:.\Generated_Source\PSoC4/PWM_Fail.c **** *  Writes the 16 bit compare buffer register with the new compare value. Not
 935:.\Generated_Source\PSoC4/PWM_Fail.c **** *  applicable for Timer/Counter with Capture or in Quadrature Decoder modes.
 936:.\Generated_Source\PSoC4/PWM_Fail.c **** *
 937:.\Generated_Source\PSoC4/PWM_Fail.c **** * Parameters:
 938:.\Generated_Source\PSoC4/PWM_Fail.c **** *  compareBuf: Compare value
 939:.\Generated_Source\PSoC4/PWM_Fail.c **** *
 940:.\Generated_Source\PSoC4/PWM_Fail.c **** * Return:
 941:.\Generated_Source\PSoC4/PWM_Fail.c **** *  None
 942:.\Generated_Source\PSoC4/PWM_Fail.c **** *
 943:.\Generated_Source\PSoC4/PWM_Fail.c **** *******************************************************************************/
 944:.\Generated_Source\PSoC4/PWM_Fail.c **** void PWM_Fail_WriteCompareBuf(uint32 compareBuf)
 945:.\Generated_Source\PSoC4/PWM_Fail.c **** {
ARM GAS  C:\Users\Greg\AppData\Local\Temp\ccDa5X8H.s 			page 40


 1279              		.loc 1 945 0
 1280              		.cfi_startproc
 1281 0000 80B5     		push	{r7, lr}
 1282              	.LCFI66:
 1283              		.cfi_def_cfa_offset 8
 1284              		.cfi_offset 7, -8
 1285              		.cfi_offset 14, -4
 1286 0002 82B0     		sub	sp, sp, #8
 1287              	.LCFI67:
 1288              		.cfi_def_cfa_offset 16
 1289 0004 00AF     		add	r7, sp, #0
 1290              	.LCFI68:
 1291              		.cfi_def_cfa_register 7
 1292 0006 7860     		str	r0, [r7, #4]
 946:.\Generated_Source\PSoC4/PWM_Fail.c ****     #if (PWM_Fail_CY_TCPWM_V2)
 947:.\Generated_Source\PSoC4/PWM_Fail.c ****         uint32 currentMode;
 948:.\Generated_Source\PSoC4/PWM_Fail.c ****     #endif /* (PWM_Fail_CY_TCPWM_V2) */
 949:.\Generated_Source\PSoC4/PWM_Fail.c **** 
 950:.\Generated_Source\PSoC4/PWM_Fail.c ****     #if (PWM_Fail_CY_TCPWM_V2)
 951:.\Generated_Source\PSoC4/PWM_Fail.c ****         currentMode = ((PWM_Fail_CONTROL_REG & PWM_Fail_UPDOWN_MASK) >> PWM_Fail_UPDOWN_SHIFT);
 952:.\Generated_Source\PSoC4/PWM_Fail.c **** 
 953:.\Generated_Source\PSoC4/PWM_Fail.c ****         if (PWM_Fail__COUNT_DOWN == currentMode)
 954:.\Generated_Source\PSoC4/PWM_Fail.c ****         {
 955:.\Generated_Source\PSoC4/PWM_Fail.c ****             PWM_Fail_COMP_CAP_BUF_REG = ((compareBuf + 1u) & PWM_Fail_16BIT_MASK);
 956:.\Generated_Source\PSoC4/PWM_Fail.c ****         }
 957:.\Generated_Source\PSoC4/PWM_Fail.c ****         else if (PWM_Fail__COUNT_UP == currentMode)
 958:.\Generated_Source\PSoC4/PWM_Fail.c ****         {
 959:.\Generated_Source\PSoC4/PWM_Fail.c ****             PWM_Fail_COMP_CAP_BUF_REG = ((compareBuf - 1u) & PWM_Fail_16BIT_MASK);
 960:.\Generated_Source\PSoC4/PWM_Fail.c ****         }
 961:.\Generated_Source\PSoC4/PWM_Fail.c ****         else
 962:.\Generated_Source\PSoC4/PWM_Fail.c ****         {
 963:.\Generated_Source\PSoC4/PWM_Fail.c ****             PWM_Fail_COMP_CAP_BUF_REG = (compareBuf & PWM_Fail_16BIT_MASK);
 964:.\Generated_Source\PSoC4/PWM_Fail.c ****         }
 965:.\Generated_Source\PSoC4/PWM_Fail.c ****     #else
 966:.\Generated_Source\PSoC4/PWM_Fail.c ****         PWM_Fail_COMP_CAP_BUF_REG = (compareBuf & PWM_Fail_16BIT_MASK);
 1293              		.loc 1 966 0
 1294 0008 034B     		ldr	r3, .L79
 1295 000a 7A68     		ldr	r2, [r7, #4]
 1296 000c 1204     		lsl	r2, r2, #16
 1297 000e 120C     		lsr	r2, r2, #16
 1298 0010 1A60     		str	r2, [r3]
 967:.\Generated_Source\PSoC4/PWM_Fail.c ****     #endif /* (PWM_Fail_CY_TCPWM_V2) */
 968:.\Generated_Source\PSoC4/PWM_Fail.c **** }
 1299              		.loc 1 968 0
 1300 0012 BD46     		mov	sp, r7
 1301 0014 02B0     		add	sp, sp, #8
 1302              		@ sp needed for prologue
 1303 0016 80BD     		pop	{r7, pc}
 1304              	.L80:
 1305              		.align	2
 1306              	.L79:
 1307 0018 10010540 		.word	1074069776
 1308              		.cfi_endproc
 1309              	.LFE24:
 1310              		.size	PWM_Fail_WriteCompareBuf, .-PWM_Fail_WriteCompareBuf
 1311              		.section	.text.PWM_Fail_ReadCompareBuf,"ax",%progbits
 1312              		.align	2
ARM GAS  C:\Users\Greg\AppData\Local\Temp\ccDa5X8H.s 			page 41


 1313              		.global	PWM_Fail_ReadCompareBuf
 1314              		.code	16
 1315              		.thumb_func
 1316              		.type	PWM_Fail_ReadCompareBuf, %function
 1317              	PWM_Fail_ReadCompareBuf:
 1318              	.LFB25:
 969:.\Generated_Source\PSoC4/PWM_Fail.c **** 
 970:.\Generated_Source\PSoC4/PWM_Fail.c **** 
 971:.\Generated_Source\PSoC4/PWM_Fail.c **** /*******************************************************************************
 972:.\Generated_Source\PSoC4/PWM_Fail.c **** * Function Name: PWM_Fail_ReadCompareBuf
 973:.\Generated_Source\PSoC4/PWM_Fail.c **** ********************************************************************************
 974:.\Generated_Source\PSoC4/PWM_Fail.c **** *
 975:.\Generated_Source\PSoC4/PWM_Fail.c **** * Summary:
 976:.\Generated_Source\PSoC4/PWM_Fail.c **** *  Reads the compare buffer register. Not applicable for Timer/Counter with
 977:.\Generated_Source\PSoC4/PWM_Fail.c **** *  Capture or in Quadrature Decoder modes.
 978:.\Generated_Source\PSoC4/PWM_Fail.c **** *
 979:.\Generated_Source\PSoC4/PWM_Fail.c **** * Parameters:
 980:.\Generated_Source\PSoC4/PWM_Fail.c **** *  None
 981:.\Generated_Source\PSoC4/PWM_Fail.c **** *
 982:.\Generated_Source\PSoC4/PWM_Fail.c **** * Return:
 983:.\Generated_Source\PSoC4/PWM_Fail.c **** *  Compare buffer value
 984:.\Generated_Source\PSoC4/PWM_Fail.c **** *
 985:.\Generated_Source\PSoC4/PWM_Fail.c **** *******************************************************************************/
 986:.\Generated_Source\PSoC4/PWM_Fail.c **** uint32 PWM_Fail_ReadCompareBuf(void)
 987:.\Generated_Source\PSoC4/PWM_Fail.c **** {
 1319              		.loc 1 987 0
 1320              		.cfi_startproc
 1321 0000 80B5     		push	{r7, lr}
 1322              	.LCFI69:
 1323              		.cfi_def_cfa_offset 8
 1324              		.cfi_offset 7, -8
 1325              		.cfi_offset 14, -4
 1326 0002 00AF     		add	r7, sp, #0
 1327              	.LCFI70:
 1328              		.cfi_def_cfa_register 7
 988:.\Generated_Source\PSoC4/PWM_Fail.c ****     #if (PWM_Fail_CY_TCPWM_V2)
 989:.\Generated_Source\PSoC4/PWM_Fail.c ****         uint32 currentMode;
 990:.\Generated_Source\PSoC4/PWM_Fail.c ****         uint32 regVal;
 991:.\Generated_Source\PSoC4/PWM_Fail.c ****     #endif /* (PWM_Fail_CY_TCPWM_V2) */
 992:.\Generated_Source\PSoC4/PWM_Fail.c **** 
 993:.\Generated_Source\PSoC4/PWM_Fail.c ****     #if (PWM_Fail_CY_TCPWM_V2)
 994:.\Generated_Source\PSoC4/PWM_Fail.c ****         currentMode = ((PWM_Fail_CONTROL_REG & PWM_Fail_UPDOWN_MASK) >> PWM_Fail_UPDOWN_SHIFT);
 995:.\Generated_Source\PSoC4/PWM_Fail.c **** 
 996:.\Generated_Source\PSoC4/PWM_Fail.c ****         if (PWM_Fail__COUNT_DOWN == currentMode)
 997:.\Generated_Source\PSoC4/PWM_Fail.c ****         {
 998:.\Generated_Source\PSoC4/PWM_Fail.c ****             regVal = ((PWM_Fail_COMP_CAP_BUF_REG - 1u) & PWM_Fail_16BIT_MASK);
 999:.\Generated_Source\PSoC4/PWM_Fail.c ****         }
1000:.\Generated_Source\PSoC4/PWM_Fail.c ****         else if (PWM_Fail__COUNT_UP == currentMode)
1001:.\Generated_Source\PSoC4/PWM_Fail.c ****         {
1002:.\Generated_Source\PSoC4/PWM_Fail.c ****             regVal = ((PWM_Fail_COMP_CAP_BUF_REG + 1u) & PWM_Fail_16BIT_MASK);
1003:.\Generated_Source\PSoC4/PWM_Fail.c ****         }
1004:.\Generated_Source\PSoC4/PWM_Fail.c ****         else
1005:.\Generated_Source\PSoC4/PWM_Fail.c ****         {
1006:.\Generated_Source\PSoC4/PWM_Fail.c ****             regVal = (PWM_Fail_COMP_CAP_BUF_REG & PWM_Fail_16BIT_MASK);
1007:.\Generated_Source\PSoC4/PWM_Fail.c ****         }
1008:.\Generated_Source\PSoC4/PWM_Fail.c ****         return (regVal);
1009:.\Generated_Source\PSoC4/PWM_Fail.c ****     #else
ARM GAS  C:\Users\Greg\AppData\Local\Temp\ccDa5X8H.s 			page 42


1010:.\Generated_Source\PSoC4/PWM_Fail.c ****         return (PWM_Fail_COMP_CAP_BUF_REG & PWM_Fail_16BIT_MASK);
 1329              		.loc 1 1010 0
 1330 0004 034B     		ldr	r3, .L83
 1331 0006 1B68     		ldr	r3, [r3]
 1332 0008 1B04     		lsl	r3, r3, #16
 1333 000a 1B0C     		lsr	r3, r3, #16
1011:.\Generated_Source\PSoC4/PWM_Fail.c ****     #endif /* (PWM_Fail_CY_TCPWM_V2) */
1012:.\Generated_Source\PSoC4/PWM_Fail.c **** }
 1334              		.loc 1 1012 0
 1335 000c 181C     		mov	r0, r3
 1336 000e BD46     		mov	sp, r7
 1337              		@ sp needed for prologue
 1338 0010 80BD     		pop	{r7, pc}
 1339              	.L84:
 1340 0012 C046     		.align	2
 1341              	.L83:
 1342 0014 10010540 		.word	1074069776
 1343              		.cfi_endproc
 1344              	.LFE25:
 1345              		.size	PWM_Fail_ReadCompareBuf, .-PWM_Fail_ReadCompareBuf
 1346              		.section	.text.PWM_Fail_ReadCapture,"ax",%progbits
 1347              		.align	2
 1348              		.global	PWM_Fail_ReadCapture
 1349              		.code	16
 1350              		.thumb_func
 1351              		.type	PWM_Fail_ReadCapture, %function
 1352              	PWM_Fail_ReadCapture:
 1353              	.LFB26:
1013:.\Generated_Source\PSoC4/PWM_Fail.c **** 
1014:.\Generated_Source\PSoC4/PWM_Fail.c **** 
1015:.\Generated_Source\PSoC4/PWM_Fail.c **** /*******************************************************************************
1016:.\Generated_Source\PSoC4/PWM_Fail.c **** * Function Name: PWM_Fail_ReadCapture
1017:.\Generated_Source\PSoC4/PWM_Fail.c **** ********************************************************************************
1018:.\Generated_Source\PSoC4/PWM_Fail.c **** *
1019:.\Generated_Source\PSoC4/PWM_Fail.c **** * Summary:
1020:.\Generated_Source\PSoC4/PWM_Fail.c **** *  Reads the captured counter value. This API is applicable only for
1021:.\Generated_Source\PSoC4/PWM_Fail.c **** *  Timer/Counter with the capture mode and Quadrature Decoder modes.
1022:.\Generated_Source\PSoC4/PWM_Fail.c **** *
1023:.\Generated_Source\PSoC4/PWM_Fail.c **** * Parameters:
1024:.\Generated_Source\PSoC4/PWM_Fail.c **** *  None
1025:.\Generated_Source\PSoC4/PWM_Fail.c **** *
1026:.\Generated_Source\PSoC4/PWM_Fail.c **** * Return:
1027:.\Generated_Source\PSoC4/PWM_Fail.c **** *  Capture value
1028:.\Generated_Source\PSoC4/PWM_Fail.c **** *
1029:.\Generated_Source\PSoC4/PWM_Fail.c **** *******************************************************************************/
1030:.\Generated_Source\PSoC4/PWM_Fail.c **** uint32 PWM_Fail_ReadCapture(void)
1031:.\Generated_Source\PSoC4/PWM_Fail.c **** {
 1354              		.loc 1 1031 0
 1355              		.cfi_startproc
 1356 0000 80B5     		push	{r7, lr}
 1357              	.LCFI71:
 1358              		.cfi_def_cfa_offset 8
 1359              		.cfi_offset 7, -8
 1360              		.cfi_offset 14, -4
 1361 0002 00AF     		add	r7, sp, #0
 1362              	.LCFI72:
 1363              		.cfi_def_cfa_register 7
ARM GAS  C:\Users\Greg\AppData\Local\Temp\ccDa5X8H.s 			page 43


1032:.\Generated_Source\PSoC4/PWM_Fail.c ****     return (PWM_Fail_COMP_CAP_REG & PWM_Fail_16BIT_MASK);
 1364              		.loc 1 1032 0
 1365 0004 034B     		ldr	r3, .L87
 1366 0006 1B68     		ldr	r3, [r3]
 1367 0008 1B04     		lsl	r3, r3, #16
 1368 000a 1B0C     		lsr	r3, r3, #16
1033:.\Generated_Source\PSoC4/PWM_Fail.c **** }
 1369              		.loc 1 1033 0
 1370 000c 181C     		mov	r0, r3
 1371 000e BD46     		mov	sp, r7
 1372              		@ sp needed for prologue
 1373 0010 80BD     		pop	{r7, pc}
 1374              	.L88:
 1375 0012 C046     		.align	2
 1376              	.L87:
 1377 0014 0C010540 		.word	1074069772
 1378              		.cfi_endproc
 1379              	.LFE26:
 1380              		.size	PWM_Fail_ReadCapture, .-PWM_Fail_ReadCapture
 1381              		.section	.text.PWM_Fail_ReadCaptureBuf,"ax",%progbits
 1382              		.align	2
 1383              		.global	PWM_Fail_ReadCaptureBuf
 1384              		.code	16
 1385              		.thumb_func
 1386              		.type	PWM_Fail_ReadCaptureBuf, %function
 1387              	PWM_Fail_ReadCaptureBuf:
 1388              	.LFB27:
1034:.\Generated_Source\PSoC4/PWM_Fail.c **** 
1035:.\Generated_Source\PSoC4/PWM_Fail.c **** 
1036:.\Generated_Source\PSoC4/PWM_Fail.c **** /*******************************************************************************
1037:.\Generated_Source\PSoC4/PWM_Fail.c **** * Function Name: PWM_Fail_ReadCaptureBuf
1038:.\Generated_Source\PSoC4/PWM_Fail.c **** ********************************************************************************
1039:.\Generated_Source\PSoC4/PWM_Fail.c **** *
1040:.\Generated_Source\PSoC4/PWM_Fail.c **** * Summary:
1041:.\Generated_Source\PSoC4/PWM_Fail.c **** *  Reads the capture buffer register. This API is applicable only for
1042:.\Generated_Source\PSoC4/PWM_Fail.c **** *  Timer/Counter with the capture mode and Quadrature Decoder modes.
1043:.\Generated_Source\PSoC4/PWM_Fail.c **** *
1044:.\Generated_Source\PSoC4/PWM_Fail.c **** * Parameters:
1045:.\Generated_Source\PSoC4/PWM_Fail.c **** *  None
1046:.\Generated_Source\PSoC4/PWM_Fail.c **** *
1047:.\Generated_Source\PSoC4/PWM_Fail.c **** * Return:
1048:.\Generated_Source\PSoC4/PWM_Fail.c **** *  Capture buffer value
1049:.\Generated_Source\PSoC4/PWM_Fail.c **** *
1050:.\Generated_Source\PSoC4/PWM_Fail.c **** *******************************************************************************/
1051:.\Generated_Source\PSoC4/PWM_Fail.c **** uint32 PWM_Fail_ReadCaptureBuf(void)
1052:.\Generated_Source\PSoC4/PWM_Fail.c **** {
 1389              		.loc 1 1052 0
 1390              		.cfi_startproc
 1391 0000 80B5     		push	{r7, lr}
 1392              	.LCFI73:
 1393              		.cfi_def_cfa_offset 8
 1394              		.cfi_offset 7, -8
 1395              		.cfi_offset 14, -4
 1396 0002 00AF     		add	r7, sp, #0
 1397              	.LCFI74:
 1398              		.cfi_def_cfa_register 7
1053:.\Generated_Source\PSoC4/PWM_Fail.c ****     return (PWM_Fail_COMP_CAP_BUF_REG & PWM_Fail_16BIT_MASK);
ARM GAS  C:\Users\Greg\AppData\Local\Temp\ccDa5X8H.s 			page 44


 1399              		.loc 1 1053 0
 1400 0004 034B     		ldr	r3, .L91
 1401 0006 1B68     		ldr	r3, [r3]
 1402 0008 1B04     		lsl	r3, r3, #16
 1403 000a 1B0C     		lsr	r3, r3, #16
1054:.\Generated_Source\PSoC4/PWM_Fail.c **** }
 1404              		.loc 1 1054 0
 1405 000c 181C     		mov	r0, r3
 1406 000e BD46     		mov	sp, r7
 1407              		@ sp needed for prologue
 1408 0010 80BD     		pop	{r7, pc}
 1409              	.L92:
 1410 0012 C046     		.align	2
 1411              	.L91:
 1412 0014 10010540 		.word	1074069776
 1413              		.cfi_endproc
 1414              	.LFE27:
 1415              		.size	PWM_Fail_ReadCaptureBuf, .-PWM_Fail_ReadCaptureBuf
 1416              		.section	.text.PWM_Fail_SetCaptureMode,"ax",%progbits
 1417              		.align	2
 1418              		.global	PWM_Fail_SetCaptureMode
 1419              		.code	16
 1420              		.thumb_func
 1421              		.type	PWM_Fail_SetCaptureMode, %function
 1422              	PWM_Fail_SetCaptureMode:
 1423              	.LFB28:
1055:.\Generated_Source\PSoC4/PWM_Fail.c **** 
1056:.\Generated_Source\PSoC4/PWM_Fail.c **** 
1057:.\Generated_Source\PSoC4/PWM_Fail.c **** /*******************************************************************************
1058:.\Generated_Source\PSoC4/PWM_Fail.c **** * Function Name: PWM_Fail_SetCaptureMode
1059:.\Generated_Source\PSoC4/PWM_Fail.c **** ********************************************************************************
1060:.\Generated_Source\PSoC4/PWM_Fail.c **** *
1061:.\Generated_Source\PSoC4/PWM_Fail.c **** * Summary:
1062:.\Generated_Source\PSoC4/PWM_Fail.c **** *  Sets the capture trigger mode. For PWM mode this is the switch input.
1063:.\Generated_Source\PSoC4/PWM_Fail.c **** *  This input is not applicable to the Timer/Counter without Capture and
1064:.\Generated_Source\PSoC4/PWM_Fail.c **** *  Quadrature Decoder modes.
1065:.\Generated_Source\PSoC4/PWM_Fail.c **** *
1066:.\Generated_Source\PSoC4/PWM_Fail.c **** * Parameters:
1067:.\Generated_Source\PSoC4/PWM_Fail.c **** *  triggerMode: Enumerated trigger mode value
1068:.\Generated_Source\PSoC4/PWM_Fail.c **** *   Values:
1069:.\Generated_Source\PSoC4/PWM_Fail.c **** *     - PWM_Fail_TRIG_LEVEL     - Level
1070:.\Generated_Source\PSoC4/PWM_Fail.c **** *     - PWM_Fail_TRIG_RISING    - Rising edge
1071:.\Generated_Source\PSoC4/PWM_Fail.c **** *     - PWM_Fail_TRIG_FALLING   - Falling edge
1072:.\Generated_Source\PSoC4/PWM_Fail.c **** *     - PWM_Fail_TRIG_BOTH      - Both rising and falling edge
1073:.\Generated_Source\PSoC4/PWM_Fail.c **** *
1074:.\Generated_Source\PSoC4/PWM_Fail.c **** * Return:
1075:.\Generated_Source\PSoC4/PWM_Fail.c **** *  None
1076:.\Generated_Source\PSoC4/PWM_Fail.c **** *
1077:.\Generated_Source\PSoC4/PWM_Fail.c **** *******************************************************************************/
1078:.\Generated_Source\PSoC4/PWM_Fail.c **** void PWM_Fail_SetCaptureMode(uint32 triggerMode)
1079:.\Generated_Source\PSoC4/PWM_Fail.c **** {
 1424              		.loc 1 1079 0
 1425              		.cfi_startproc
 1426 0000 90B5     		push	{r4, r7, lr}
 1427              	.LCFI75:
 1428              		.cfi_def_cfa_offset 12
 1429              		.cfi_offset 4, -12
ARM GAS  C:\Users\Greg\AppData\Local\Temp\ccDa5X8H.s 			page 45


 1430              		.cfi_offset 7, -8
 1431              		.cfi_offset 14, -4
 1432 0002 85B0     		sub	sp, sp, #20
 1433              	.LCFI76:
 1434              		.cfi_def_cfa_offset 32
 1435 0004 00AF     		add	r7, sp, #0
 1436              	.LCFI77:
 1437              		.cfi_def_cfa_register 7
 1438 0006 7860     		str	r0, [r7, #4]
1080:.\Generated_Source\PSoC4/PWM_Fail.c ****     uint8 enableInterrupts;
1081:.\Generated_Source\PSoC4/PWM_Fail.c **** 
1082:.\Generated_Source\PSoC4/PWM_Fail.c ****     enableInterrupts = CyEnterCriticalSection();
 1439              		.loc 1 1082 0
 1440 0008 3C1C     		mov	r4, r7
 1441 000a 0F34     		add	r4, r4, #15
 1442 000c FFF7FEFF 		bl	CyEnterCriticalSection
 1443 0010 031C     		mov	r3, r0
 1444 0012 2370     		strb	r3, [r4]
1083:.\Generated_Source\PSoC4/PWM_Fail.c **** 
1084:.\Generated_Source\PSoC4/PWM_Fail.c ****     PWM_Fail_TRIG_CONTROL1_REG &= (uint32)~PWM_Fail_CAPTURE_MASK;
 1445              		.loc 1 1084 0
 1446 0014 0A4B     		ldr	r3, .L94
 1447 0016 0A4A     		ldr	r2, .L94
 1448 0018 1268     		ldr	r2, [r2]
 1449 001a 0321     		mov	r1, #3
 1450 001c 8A43     		bic	r2, r1
 1451 001e 1A60     		str	r2, [r3]
1085:.\Generated_Source\PSoC4/PWM_Fail.c ****     PWM_Fail_TRIG_CONTROL1_REG |= triggerMode;
 1452              		.loc 1 1085 0
 1453 0020 074B     		ldr	r3, .L94
 1454 0022 074A     		ldr	r2, .L94
 1455 0024 1168     		ldr	r1, [r2]
 1456 0026 7A68     		ldr	r2, [r7, #4]
 1457 0028 0A43     		orr	r2, r1
 1458 002a 1A60     		str	r2, [r3]
1086:.\Generated_Source\PSoC4/PWM_Fail.c **** 
1087:.\Generated_Source\PSoC4/PWM_Fail.c ****     CyExitCriticalSection(enableInterrupts);
 1459              		.loc 1 1087 0
 1460 002c 3B1C     		mov	r3, r7
 1461 002e 0F33     		add	r3, r3, #15
 1462 0030 1B78     		ldrb	r3, [r3]
 1463 0032 181C     		mov	r0, r3
 1464 0034 FFF7FEFF 		bl	CyExitCriticalSection
1088:.\Generated_Source\PSoC4/PWM_Fail.c **** }
 1465              		.loc 1 1088 0
 1466 0038 BD46     		mov	sp, r7
 1467 003a 05B0     		add	sp, sp, #20
 1468              		@ sp needed for prologue
 1469 003c 90BD     		pop	{r4, r7, pc}
 1470              	.L95:
 1471 003e C046     		.align	2
 1472              	.L94:
 1473 0040 24010540 		.word	1074069796
 1474              		.cfi_endproc
 1475              	.LFE28:
 1476              		.size	PWM_Fail_SetCaptureMode, .-PWM_Fail_SetCaptureMode
 1477              		.section	.text.PWM_Fail_SetReloadMode,"ax",%progbits
ARM GAS  C:\Users\Greg\AppData\Local\Temp\ccDa5X8H.s 			page 46


 1478              		.align	2
 1479              		.global	PWM_Fail_SetReloadMode
 1480              		.code	16
 1481              		.thumb_func
 1482              		.type	PWM_Fail_SetReloadMode, %function
 1483              	PWM_Fail_SetReloadMode:
 1484              	.LFB29:
1089:.\Generated_Source\PSoC4/PWM_Fail.c **** 
1090:.\Generated_Source\PSoC4/PWM_Fail.c **** 
1091:.\Generated_Source\PSoC4/PWM_Fail.c **** /*******************************************************************************
1092:.\Generated_Source\PSoC4/PWM_Fail.c **** * Function Name: PWM_Fail_SetReloadMode
1093:.\Generated_Source\PSoC4/PWM_Fail.c **** ********************************************************************************
1094:.\Generated_Source\PSoC4/PWM_Fail.c **** *
1095:.\Generated_Source\PSoC4/PWM_Fail.c **** * Summary:
1096:.\Generated_Source\PSoC4/PWM_Fail.c **** *  Sets the reload trigger mode. For Quadrature Decoder mode this is the index
1097:.\Generated_Source\PSoC4/PWM_Fail.c **** *  input.
1098:.\Generated_Source\PSoC4/PWM_Fail.c **** *
1099:.\Generated_Source\PSoC4/PWM_Fail.c **** * Parameters:
1100:.\Generated_Source\PSoC4/PWM_Fail.c **** *  triggerMode: Enumerated trigger mode value
1101:.\Generated_Source\PSoC4/PWM_Fail.c **** *   Values:
1102:.\Generated_Source\PSoC4/PWM_Fail.c **** *     - PWM_Fail_TRIG_LEVEL     - Level
1103:.\Generated_Source\PSoC4/PWM_Fail.c **** *     - PWM_Fail_TRIG_RISING    - Rising edge
1104:.\Generated_Source\PSoC4/PWM_Fail.c **** *     - PWM_Fail_TRIG_FALLING   - Falling edge
1105:.\Generated_Source\PSoC4/PWM_Fail.c **** *     - PWM_Fail_TRIG_BOTH      - Both rising and falling edge
1106:.\Generated_Source\PSoC4/PWM_Fail.c **** *
1107:.\Generated_Source\PSoC4/PWM_Fail.c **** * Return:
1108:.\Generated_Source\PSoC4/PWM_Fail.c **** *  None
1109:.\Generated_Source\PSoC4/PWM_Fail.c **** *
1110:.\Generated_Source\PSoC4/PWM_Fail.c **** *******************************************************************************/
1111:.\Generated_Source\PSoC4/PWM_Fail.c **** void PWM_Fail_SetReloadMode(uint32 triggerMode)
1112:.\Generated_Source\PSoC4/PWM_Fail.c **** {
 1485              		.loc 1 1112 0
 1486              		.cfi_startproc
 1487 0000 90B5     		push	{r4, r7, lr}
 1488              	.LCFI78:
 1489              		.cfi_def_cfa_offset 12
 1490              		.cfi_offset 4, -12
 1491              		.cfi_offset 7, -8
 1492              		.cfi_offset 14, -4
 1493 0002 85B0     		sub	sp, sp, #20
 1494              	.LCFI79:
 1495              		.cfi_def_cfa_offset 32
 1496 0004 00AF     		add	r7, sp, #0
 1497              	.LCFI80:
 1498              		.cfi_def_cfa_register 7
 1499 0006 7860     		str	r0, [r7, #4]
1113:.\Generated_Source\PSoC4/PWM_Fail.c ****     uint8 enableInterrupts;
1114:.\Generated_Source\PSoC4/PWM_Fail.c **** 
1115:.\Generated_Source\PSoC4/PWM_Fail.c ****     enableInterrupts = CyEnterCriticalSection();
 1500              		.loc 1 1115 0
 1501 0008 3C1C     		mov	r4, r7
 1502 000a 0F34     		add	r4, r4, #15
 1503 000c FFF7FEFF 		bl	CyEnterCriticalSection
 1504 0010 031C     		mov	r3, r0
 1505 0012 2370     		strb	r3, [r4]
1116:.\Generated_Source\PSoC4/PWM_Fail.c **** 
1117:.\Generated_Source\PSoC4/PWM_Fail.c ****     PWM_Fail_TRIG_CONTROL1_REG &= (uint32)~PWM_Fail_RELOAD_MASK;
ARM GAS  C:\Users\Greg\AppData\Local\Temp\ccDa5X8H.s 			page 47


 1506              		.loc 1 1117 0
 1507 0014 0A4B     		ldr	r3, .L97
 1508 0016 0A4A     		ldr	r2, .L97
 1509 0018 1268     		ldr	r2, [r2]
 1510 001a 3021     		mov	r1, #48
 1511 001c 8A43     		bic	r2, r1
 1512 001e 1A60     		str	r2, [r3]
1118:.\Generated_Source\PSoC4/PWM_Fail.c ****     PWM_Fail_TRIG_CONTROL1_REG |= ((uint32)(triggerMode << PWM_Fail_RELOAD_SHIFT));
 1513              		.loc 1 1118 0
 1514 0020 074B     		ldr	r3, .L97
 1515 0022 074A     		ldr	r2, .L97
 1516 0024 1168     		ldr	r1, [r2]
 1517 0026 7A68     		ldr	r2, [r7, #4]
 1518 0028 1201     		lsl	r2, r2, #4
 1519 002a 0A43     		orr	r2, r1
 1520 002c 1A60     		str	r2, [r3]
1119:.\Generated_Source\PSoC4/PWM_Fail.c **** 
1120:.\Generated_Source\PSoC4/PWM_Fail.c ****     CyExitCriticalSection(enableInterrupts);
 1521              		.loc 1 1120 0
 1522 002e 3B1C     		mov	r3, r7
 1523 0030 0F33     		add	r3, r3, #15
 1524 0032 1B78     		ldrb	r3, [r3]
 1525 0034 181C     		mov	r0, r3
 1526 0036 FFF7FEFF 		bl	CyExitCriticalSection
1121:.\Generated_Source\PSoC4/PWM_Fail.c **** }
 1527              		.loc 1 1121 0
 1528 003a BD46     		mov	sp, r7
 1529 003c 05B0     		add	sp, sp, #20
 1530              		@ sp needed for prologue
 1531 003e 90BD     		pop	{r4, r7, pc}
 1532              	.L98:
 1533              		.align	2
 1534              	.L97:
 1535 0040 24010540 		.word	1074069796
 1536              		.cfi_endproc
 1537              	.LFE29:
 1538              		.size	PWM_Fail_SetReloadMode, .-PWM_Fail_SetReloadMode
 1539              		.section	.text.PWM_Fail_SetStartMode,"ax",%progbits
 1540              		.align	2
 1541              		.global	PWM_Fail_SetStartMode
 1542              		.code	16
 1543              		.thumb_func
 1544              		.type	PWM_Fail_SetStartMode, %function
 1545              	PWM_Fail_SetStartMode:
 1546              	.LFB30:
1122:.\Generated_Source\PSoC4/PWM_Fail.c **** 
1123:.\Generated_Source\PSoC4/PWM_Fail.c **** 
1124:.\Generated_Source\PSoC4/PWM_Fail.c **** /*******************************************************************************
1125:.\Generated_Source\PSoC4/PWM_Fail.c **** * Function Name: PWM_Fail_SetStartMode
1126:.\Generated_Source\PSoC4/PWM_Fail.c **** ********************************************************************************
1127:.\Generated_Source\PSoC4/PWM_Fail.c **** *
1128:.\Generated_Source\PSoC4/PWM_Fail.c **** * Summary:
1129:.\Generated_Source\PSoC4/PWM_Fail.c **** *  Sets the start trigger mode. For Quadrature Decoder mode this is the
1130:.\Generated_Source\PSoC4/PWM_Fail.c **** *  phiB input.
1131:.\Generated_Source\PSoC4/PWM_Fail.c **** *
1132:.\Generated_Source\PSoC4/PWM_Fail.c **** * Parameters:
1133:.\Generated_Source\PSoC4/PWM_Fail.c **** *  triggerMode: Enumerated trigger mode value
ARM GAS  C:\Users\Greg\AppData\Local\Temp\ccDa5X8H.s 			page 48


1134:.\Generated_Source\PSoC4/PWM_Fail.c **** *   Values:
1135:.\Generated_Source\PSoC4/PWM_Fail.c **** *     - PWM_Fail_TRIG_LEVEL     - Level
1136:.\Generated_Source\PSoC4/PWM_Fail.c **** *     - PWM_Fail_TRIG_RISING    - Rising edge
1137:.\Generated_Source\PSoC4/PWM_Fail.c **** *     - PWM_Fail_TRIG_FALLING   - Falling edge
1138:.\Generated_Source\PSoC4/PWM_Fail.c **** *     - PWM_Fail_TRIG_BOTH      - Both rising and falling edge
1139:.\Generated_Source\PSoC4/PWM_Fail.c **** *
1140:.\Generated_Source\PSoC4/PWM_Fail.c **** * Return:
1141:.\Generated_Source\PSoC4/PWM_Fail.c **** *  None
1142:.\Generated_Source\PSoC4/PWM_Fail.c **** *
1143:.\Generated_Source\PSoC4/PWM_Fail.c **** *******************************************************************************/
1144:.\Generated_Source\PSoC4/PWM_Fail.c **** void PWM_Fail_SetStartMode(uint32 triggerMode)
1145:.\Generated_Source\PSoC4/PWM_Fail.c **** {
 1547              		.loc 1 1145 0
 1548              		.cfi_startproc
 1549 0000 90B5     		push	{r4, r7, lr}
 1550              	.LCFI81:
 1551              		.cfi_def_cfa_offset 12
 1552              		.cfi_offset 4, -12
 1553              		.cfi_offset 7, -8
 1554              		.cfi_offset 14, -4
 1555 0002 85B0     		sub	sp, sp, #20
 1556              	.LCFI82:
 1557              		.cfi_def_cfa_offset 32
 1558 0004 00AF     		add	r7, sp, #0
 1559              	.LCFI83:
 1560              		.cfi_def_cfa_register 7
 1561 0006 7860     		str	r0, [r7, #4]
1146:.\Generated_Source\PSoC4/PWM_Fail.c ****     uint8 enableInterrupts;
1147:.\Generated_Source\PSoC4/PWM_Fail.c **** 
1148:.\Generated_Source\PSoC4/PWM_Fail.c ****     enableInterrupts = CyEnterCriticalSection();
 1562              		.loc 1 1148 0
 1563 0008 3C1C     		mov	r4, r7
 1564 000a 0F34     		add	r4, r4, #15
 1565 000c FFF7FEFF 		bl	CyEnterCriticalSection
 1566 0010 031C     		mov	r3, r0
 1567 0012 2370     		strb	r3, [r4]
1149:.\Generated_Source\PSoC4/PWM_Fail.c **** 
1150:.\Generated_Source\PSoC4/PWM_Fail.c ****     PWM_Fail_TRIG_CONTROL1_REG &= (uint32)~PWM_Fail_START_MASK;
 1568              		.loc 1 1150 0
 1569 0014 0A4B     		ldr	r3, .L100
 1570 0016 0A4A     		ldr	r2, .L100
 1571 0018 1168     		ldr	r1, [r2]
 1572 001a 0A4A     		ldr	r2, .L100+4
 1573 001c 0A40     		and	r2, r1
 1574 001e 1A60     		str	r2, [r3]
1151:.\Generated_Source\PSoC4/PWM_Fail.c ****     PWM_Fail_TRIG_CONTROL1_REG |= ((uint32)(triggerMode << PWM_Fail_START_SHIFT));
 1575              		.loc 1 1151 0
 1576 0020 074B     		ldr	r3, .L100
 1577 0022 074A     		ldr	r2, .L100
 1578 0024 1168     		ldr	r1, [r2]
 1579 0026 7A68     		ldr	r2, [r7, #4]
 1580 0028 1202     		lsl	r2, r2, #8
 1581 002a 0A43     		orr	r2, r1
 1582 002c 1A60     		str	r2, [r3]
1152:.\Generated_Source\PSoC4/PWM_Fail.c **** 
1153:.\Generated_Source\PSoC4/PWM_Fail.c ****     CyExitCriticalSection(enableInterrupts);
 1583              		.loc 1 1153 0
ARM GAS  C:\Users\Greg\AppData\Local\Temp\ccDa5X8H.s 			page 49


 1584 002e 3B1C     		mov	r3, r7
 1585 0030 0F33     		add	r3, r3, #15
 1586 0032 1B78     		ldrb	r3, [r3]
 1587 0034 181C     		mov	r0, r3
 1588 0036 FFF7FEFF 		bl	CyExitCriticalSection
1154:.\Generated_Source\PSoC4/PWM_Fail.c **** }
 1589              		.loc 1 1154 0
 1590 003a BD46     		mov	sp, r7
 1591 003c 05B0     		add	sp, sp, #20
 1592              		@ sp needed for prologue
 1593 003e 90BD     		pop	{r4, r7, pc}
 1594              	.L101:
 1595              		.align	2
 1596              	.L100:
 1597 0040 24010540 		.word	1074069796
 1598 0044 FFFCFFFF 		.word	-769
 1599              		.cfi_endproc
 1600              	.LFE30:
 1601              		.size	PWM_Fail_SetStartMode, .-PWM_Fail_SetStartMode
 1602              		.section	.text.PWM_Fail_SetStopMode,"ax",%progbits
 1603              		.align	2
 1604              		.global	PWM_Fail_SetStopMode
 1605              		.code	16
 1606              		.thumb_func
 1607              		.type	PWM_Fail_SetStopMode, %function
 1608              	PWM_Fail_SetStopMode:
 1609              	.LFB31:
1155:.\Generated_Source\PSoC4/PWM_Fail.c **** 
1156:.\Generated_Source\PSoC4/PWM_Fail.c **** 
1157:.\Generated_Source\PSoC4/PWM_Fail.c **** /*******************************************************************************
1158:.\Generated_Source\PSoC4/PWM_Fail.c **** * Function Name: PWM_Fail_SetStopMode
1159:.\Generated_Source\PSoC4/PWM_Fail.c **** ********************************************************************************
1160:.\Generated_Source\PSoC4/PWM_Fail.c **** *
1161:.\Generated_Source\PSoC4/PWM_Fail.c **** * Summary:
1162:.\Generated_Source\PSoC4/PWM_Fail.c **** *  Sets the stop trigger mode. For PWM mode this is the kill input.
1163:.\Generated_Source\PSoC4/PWM_Fail.c **** *
1164:.\Generated_Source\PSoC4/PWM_Fail.c **** * Parameters:
1165:.\Generated_Source\PSoC4/PWM_Fail.c **** *  triggerMode: Enumerated trigger mode value
1166:.\Generated_Source\PSoC4/PWM_Fail.c **** *   Values:
1167:.\Generated_Source\PSoC4/PWM_Fail.c **** *     - PWM_Fail_TRIG_LEVEL     - Level
1168:.\Generated_Source\PSoC4/PWM_Fail.c **** *     - PWM_Fail_TRIG_RISING    - Rising edge
1169:.\Generated_Source\PSoC4/PWM_Fail.c **** *     - PWM_Fail_TRIG_FALLING   - Falling edge
1170:.\Generated_Source\PSoC4/PWM_Fail.c **** *     - PWM_Fail_TRIG_BOTH      - Both rising and falling edge
1171:.\Generated_Source\PSoC4/PWM_Fail.c **** *
1172:.\Generated_Source\PSoC4/PWM_Fail.c **** * Return:
1173:.\Generated_Source\PSoC4/PWM_Fail.c **** *  None
1174:.\Generated_Source\PSoC4/PWM_Fail.c **** *
1175:.\Generated_Source\PSoC4/PWM_Fail.c **** *******************************************************************************/
1176:.\Generated_Source\PSoC4/PWM_Fail.c **** void PWM_Fail_SetStopMode(uint32 triggerMode)
1177:.\Generated_Source\PSoC4/PWM_Fail.c **** {
 1610              		.loc 1 1177 0
 1611              		.cfi_startproc
 1612 0000 90B5     		push	{r4, r7, lr}
 1613              	.LCFI84:
 1614              		.cfi_def_cfa_offset 12
 1615              		.cfi_offset 4, -12
 1616              		.cfi_offset 7, -8
ARM GAS  C:\Users\Greg\AppData\Local\Temp\ccDa5X8H.s 			page 50


 1617              		.cfi_offset 14, -4
 1618 0002 85B0     		sub	sp, sp, #20
 1619              	.LCFI85:
 1620              		.cfi_def_cfa_offset 32
 1621 0004 00AF     		add	r7, sp, #0
 1622              	.LCFI86:
 1623              		.cfi_def_cfa_register 7
 1624 0006 7860     		str	r0, [r7, #4]
1178:.\Generated_Source\PSoC4/PWM_Fail.c ****     uint8 enableInterrupts;
1179:.\Generated_Source\PSoC4/PWM_Fail.c **** 
1180:.\Generated_Source\PSoC4/PWM_Fail.c ****     enableInterrupts = CyEnterCriticalSection();
 1625              		.loc 1 1180 0
 1626 0008 3C1C     		mov	r4, r7
 1627 000a 0F34     		add	r4, r4, #15
 1628 000c FFF7FEFF 		bl	CyEnterCriticalSection
 1629 0010 031C     		mov	r3, r0
 1630 0012 2370     		strb	r3, [r4]
1181:.\Generated_Source\PSoC4/PWM_Fail.c **** 
1182:.\Generated_Source\PSoC4/PWM_Fail.c ****     PWM_Fail_TRIG_CONTROL1_REG &= (uint32)~PWM_Fail_STOP_MASK;
 1631              		.loc 1 1182 0
 1632 0014 0A4B     		ldr	r3, .L103
 1633 0016 0A4A     		ldr	r2, .L103
 1634 0018 1268     		ldr	r2, [r2]
 1635 001a C021     		mov	r1, #192
 1636 001c 8A43     		bic	r2, r1
 1637 001e 1A60     		str	r2, [r3]
1183:.\Generated_Source\PSoC4/PWM_Fail.c ****     PWM_Fail_TRIG_CONTROL1_REG |= ((uint32)(triggerMode << PWM_Fail_STOP_SHIFT));
 1638              		.loc 1 1183 0
 1639 0020 074B     		ldr	r3, .L103
 1640 0022 074A     		ldr	r2, .L103
 1641 0024 1168     		ldr	r1, [r2]
 1642 0026 7A68     		ldr	r2, [r7, #4]
 1643 0028 9201     		lsl	r2, r2, #6
 1644 002a 0A43     		orr	r2, r1
 1645 002c 1A60     		str	r2, [r3]
1184:.\Generated_Source\PSoC4/PWM_Fail.c **** 
1185:.\Generated_Source\PSoC4/PWM_Fail.c ****     CyExitCriticalSection(enableInterrupts);
 1646              		.loc 1 1185 0
 1647 002e 3B1C     		mov	r3, r7
 1648 0030 0F33     		add	r3, r3, #15
 1649 0032 1B78     		ldrb	r3, [r3]
 1650 0034 181C     		mov	r0, r3
 1651 0036 FFF7FEFF 		bl	CyExitCriticalSection
1186:.\Generated_Source\PSoC4/PWM_Fail.c **** }
 1652              		.loc 1 1186 0
 1653 003a BD46     		mov	sp, r7
 1654 003c 05B0     		add	sp, sp, #20
 1655              		@ sp needed for prologue
 1656 003e 90BD     		pop	{r4, r7, pc}
 1657              	.L104:
 1658              		.align	2
 1659              	.L103:
 1660 0040 24010540 		.word	1074069796
 1661              		.cfi_endproc
 1662              	.LFE31:
 1663              		.size	PWM_Fail_SetStopMode, .-PWM_Fail_SetStopMode
 1664              		.section	.text.PWM_Fail_SetCountMode,"ax",%progbits
ARM GAS  C:\Users\Greg\AppData\Local\Temp\ccDa5X8H.s 			page 51


 1665              		.align	2
 1666              		.global	PWM_Fail_SetCountMode
 1667              		.code	16
 1668              		.thumb_func
 1669              		.type	PWM_Fail_SetCountMode, %function
 1670              	PWM_Fail_SetCountMode:
 1671              	.LFB32:
1187:.\Generated_Source\PSoC4/PWM_Fail.c **** 
1188:.\Generated_Source\PSoC4/PWM_Fail.c **** 
1189:.\Generated_Source\PSoC4/PWM_Fail.c **** /*******************************************************************************
1190:.\Generated_Source\PSoC4/PWM_Fail.c **** * Function Name: PWM_Fail_SetCountMode
1191:.\Generated_Source\PSoC4/PWM_Fail.c **** ********************************************************************************
1192:.\Generated_Source\PSoC4/PWM_Fail.c **** *
1193:.\Generated_Source\PSoC4/PWM_Fail.c **** * Summary:
1194:.\Generated_Source\PSoC4/PWM_Fail.c **** *  Sets the count trigger mode. For Quadrature Decoder mode this is the phiA
1195:.\Generated_Source\PSoC4/PWM_Fail.c **** *  input.
1196:.\Generated_Source\PSoC4/PWM_Fail.c **** *
1197:.\Generated_Source\PSoC4/PWM_Fail.c **** * Parameters:
1198:.\Generated_Source\PSoC4/PWM_Fail.c **** *  triggerMode: Enumerated trigger mode value
1199:.\Generated_Source\PSoC4/PWM_Fail.c **** *   Values:
1200:.\Generated_Source\PSoC4/PWM_Fail.c **** *     - PWM_Fail_TRIG_LEVEL     - Level
1201:.\Generated_Source\PSoC4/PWM_Fail.c **** *     - PWM_Fail_TRIG_RISING    - Rising edge
1202:.\Generated_Source\PSoC4/PWM_Fail.c **** *     - PWM_Fail_TRIG_FALLING   - Falling edge
1203:.\Generated_Source\PSoC4/PWM_Fail.c **** *     - PWM_Fail_TRIG_BOTH      - Both rising and falling edge
1204:.\Generated_Source\PSoC4/PWM_Fail.c **** *
1205:.\Generated_Source\PSoC4/PWM_Fail.c **** * Return:
1206:.\Generated_Source\PSoC4/PWM_Fail.c **** *  None
1207:.\Generated_Source\PSoC4/PWM_Fail.c **** *
1208:.\Generated_Source\PSoC4/PWM_Fail.c **** *******************************************************************************/
1209:.\Generated_Source\PSoC4/PWM_Fail.c **** void PWM_Fail_SetCountMode(uint32 triggerMode)
1210:.\Generated_Source\PSoC4/PWM_Fail.c **** {
 1672              		.loc 1 1210 0
 1673              		.cfi_startproc
 1674 0000 90B5     		push	{r4, r7, lr}
 1675              	.LCFI87:
 1676              		.cfi_def_cfa_offset 12
 1677              		.cfi_offset 4, -12
 1678              		.cfi_offset 7, -8
 1679              		.cfi_offset 14, -4
 1680 0002 85B0     		sub	sp, sp, #20
 1681              	.LCFI88:
 1682              		.cfi_def_cfa_offset 32
 1683 0004 00AF     		add	r7, sp, #0
 1684              	.LCFI89:
 1685              		.cfi_def_cfa_register 7
 1686 0006 7860     		str	r0, [r7, #4]
1211:.\Generated_Source\PSoC4/PWM_Fail.c ****     uint8 enableInterrupts;
1212:.\Generated_Source\PSoC4/PWM_Fail.c **** 
1213:.\Generated_Source\PSoC4/PWM_Fail.c ****     enableInterrupts = CyEnterCriticalSection();
 1687              		.loc 1 1213 0
 1688 0008 3C1C     		mov	r4, r7
 1689 000a 0F34     		add	r4, r4, #15
 1690 000c FFF7FEFF 		bl	CyEnterCriticalSection
 1691 0010 031C     		mov	r3, r0
 1692 0012 2370     		strb	r3, [r4]
1214:.\Generated_Source\PSoC4/PWM_Fail.c **** 
1215:.\Generated_Source\PSoC4/PWM_Fail.c ****     PWM_Fail_TRIG_CONTROL1_REG &= (uint32)~PWM_Fail_COUNT_MASK;
ARM GAS  C:\Users\Greg\AppData\Local\Temp\ccDa5X8H.s 			page 52


 1693              		.loc 1 1215 0
 1694 0014 0A4B     		ldr	r3, .L106
 1695 0016 0A4A     		ldr	r2, .L106
 1696 0018 1268     		ldr	r2, [r2]
 1697 001a 0C21     		mov	r1, #12
 1698 001c 8A43     		bic	r2, r1
 1699 001e 1A60     		str	r2, [r3]
1216:.\Generated_Source\PSoC4/PWM_Fail.c ****     PWM_Fail_TRIG_CONTROL1_REG |= ((uint32)(triggerMode << PWM_Fail_COUNT_SHIFT));
 1700              		.loc 1 1216 0
 1701 0020 074B     		ldr	r3, .L106
 1702 0022 074A     		ldr	r2, .L106
 1703 0024 1168     		ldr	r1, [r2]
 1704 0026 7A68     		ldr	r2, [r7, #4]
 1705 0028 9200     		lsl	r2, r2, #2
 1706 002a 0A43     		orr	r2, r1
 1707 002c 1A60     		str	r2, [r3]
1217:.\Generated_Source\PSoC4/PWM_Fail.c **** 
1218:.\Generated_Source\PSoC4/PWM_Fail.c ****     CyExitCriticalSection(enableInterrupts);
 1708              		.loc 1 1218 0
 1709 002e 3B1C     		mov	r3, r7
 1710 0030 0F33     		add	r3, r3, #15
 1711 0032 1B78     		ldrb	r3, [r3]
 1712 0034 181C     		mov	r0, r3
 1713 0036 FFF7FEFF 		bl	CyExitCriticalSection
1219:.\Generated_Source\PSoC4/PWM_Fail.c **** }
 1714              		.loc 1 1219 0
 1715 003a BD46     		mov	sp, r7
 1716 003c 05B0     		add	sp, sp, #20
 1717              		@ sp needed for prologue
 1718 003e 90BD     		pop	{r4, r7, pc}
 1719              	.L107:
 1720              		.align	2
 1721              	.L106:
 1722 0040 24010540 		.word	1074069796
 1723              		.cfi_endproc
 1724              	.LFE32:
 1725              		.size	PWM_Fail_SetCountMode, .-PWM_Fail_SetCountMode
 1726              		.section	.text.PWM_Fail_TriggerCommand,"ax",%progbits
 1727              		.align	2
 1728              		.global	PWM_Fail_TriggerCommand
 1729              		.code	16
 1730              		.thumb_func
 1731              		.type	PWM_Fail_TriggerCommand, %function
 1732              	PWM_Fail_TriggerCommand:
 1733              	.LFB33:
1220:.\Generated_Source\PSoC4/PWM_Fail.c **** 
1221:.\Generated_Source\PSoC4/PWM_Fail.c **** 
1222:.\Generated_Source\PSoC4/PWM_Fail.c **** /*******************************************************************************
1223:.\Generated_Source\PSoC4/PWM_Fail.c **** * Function Name: PWM_Fail_TriggerCommand
1224:.\Generated_Source\PSoC4/PWM_Fail.c **** ********************************************************************************
1225:.\Generated_Source\PSoC4/PWM_Fail.c **** *
1226:.\Generated_Source\PSoC4/PWM_Fail.c **** * Summary:
1227:.\Generated_Source\PSoC4/PWM_Fail.c **** *  Triggers the designated command to occur on the designated TCPWM instances.
1228:.\Generated_Source\PSoC4/PWM_Fail.c **** *  The mask can be used to apply this command simultaneously to more than one
1229:.\Generated_Source\PSoC4/PWM_Fail.c **** *  instance.  This allows multiple TCPWM instances to be synchronized.
1230:.\Generated_Source\PSoC4/PWM_Fail.c **** *
1231:.\Generated_Source\PSoC4/PWM_Fail.c **** * Parameters:
ARM GAS  C:\Users\Greg\AppData\Local\Temp\ccDa5X8H.s 			page 53


1232:.\Generated_Source\PSoC4/PWM_Fail.c **** *  mask: A combination of mask bits for each instance of the TCPWM that the
1233:.\Generated_Source\PSoC4/PWM_Fail.c **** *        command should apply to.  This function from one instance can be used
1234:.\Generated_Source\PSoC4/PWM_Fail.c **** *        to apply the command to any of the instances in the design.
1235:.\Generated_Source\PSoC4/PWM_Fail.c **** *        The mask value for a specific instance is available with the MASK
1236:.\Generated_Source\PSoC4/PWM_Fail.c **** *        define.
1237:.\Generated_Source\PSoC4/PWM_Fail.c **** *  command: Enumerated command values. Capture command only applicable for
1238:.\Generated_Source\PSoC4/PWM_Fail.c **** *           Timer/Counter with Capture and PWM modes.
1239:.\Generated_Source\PSoC4/PWM_Fail.c **** *   Values:
1240:.\Generated_Source\PSoC4/PWM_Fail.c **** *     - PWM_Fail_CMD_CAPTURE    - Trigger Capture command
1241:.\Generated_Source\PSoC4/PWM_Fail.c **** *     - PWM_Fail_CMD_RELOAD     - Trigger Reload command
1242:.\Generated_Source\PSoC4/PWM_Fail.c **** *     - PWM_Fail_CMD_STOP       - Trigger Stop command
1243:.\Generated_Source\PSoC4/PWM_Fail.c **** *     - PWM_Fail_CMD_START      - Trigger Start command
1244:.\Generated_Source\PSoC4/PWM_Fail.c **** *
1245:.\Generated_Source\PSoC4/PWM_Fail.c **** * Return:
1246:.\Generated_Source\PSoC4/PWM_Fail.c **** *  None
1247:.\Generated_Source\PSoC4/PWM_Fail.c **** *
1248:.\Generated_Source\PSoC4/PWM_Fail.c **** *******************************************************************************/
1249:.\Generated_Source\PSoC4/PWM_Fail.c **** void PWM_Fail_TriggerCommand(uint32 mask, uint32 command)
1250:.\Generated_Source\PSoC4/PWM_Fail.c **** {
 1734              		.loc 1 1250 0
 1735              		.cfi_startproc
 1736 0000 90B5     		push	{r4, r7, lr}
 1737              	.LCFI90:
 1738              		.cfi_def_cfa_offset 12
 1739              		.cfi_offset 4, -12
 1740              		.cfi_offset 7, -8
 1741              		.cfi_offset 14, -4
 1742 0002 85B0     		sub	sp, sp, #20
 1743              	.LCFI91:
 1744              		.cfi_def_cfa_offset 32
 1745 0004 00AF     		add	r7, sp, #0
 1746              	.LCFI92:
 1747              		.cfi_def_cfa_register 7
 1748 0006 7860     		str	r0, [r7, #4]
 1749 0008 3960     		str	r1, [r7]
1251:.\Generated_Source\PSoC4/PWM_Fail.c ****     uint8 enableInterrupts;
1252:.\Generated_Source\PSoC4/PWM_Fail.c **** 
1253:.\Generated_Source\PSoC4/PWM_Fail.c ****     enableInterrupts = CyEnterCriticalSection();
 1750              		.loc 1 1253 0
 1751 000a 3C1C     		mov	r4, r7
 1752 000c 0F34     		add	r4, r4, #15
 1753 000e FFF7FEFF 		bl	CyEnterCriticalSection
 1754 0012 031C     		mov	r3, r0
 1755 0014 2370     		strb	r3, [r4]
1254:.\Generated_Source\PSoC4/PWM_Fail.c **** 
1255:.\Generated_Source\PSoC4/PWM_Fail.c ****     PWM_Fail_COMMAND_REG = ((uint32)(mask << command));
 1756              		.loc 1 1255 0
 1757 0016 084B     		ldr	r3, .L109
 1758 0018 3A68     		ldr	r2, [r7]
 1759 001a 7968     		ldr	r1, [r7, #4]
 1760 001c 081C     		mov	r0, r1
 1761 001e 9040     		lsl	r0, r0, r2
 1762 0020 021C     		mov	r2, r0
 1763 0022 1A60     		str	r2, [r3]
1256:.\Generated_Source\PSoC4/PWM_Fail.c **** 
1257:.\Generated_Source\PSoC4/PWM_Fail.c ****     CyExitCriticalSection(enableInterrupts);
 1764              		.loc 1 1257 0
ARM GAS  C:\Users\Greg\AppData\Local\Temp\ccDa5X8H.s 			page 54


 1765 0024 3B1C     		mov	r3, r7
 1766 0026 0F33     		add	r3, r3, #15
 1767 0028 1B78     		ldrb	r3, [r3]
 1768 002a 181C     		mov	r0, r3
 1769 002c FFF7FEFF 		bl	CyExitCriticalSection
1258:.\Generated_Source\PSoC4/PWM_Fail.c **** }
 1770              		.loc 1 1258 0
 1771 0030 BD46     		mov	sp, r7
 1772 0032 05B0     		add	sp, sp, #20
 1773              		@ sp needed for prologue
 1774 0034 90BD     		pop	{r4, r7, pc}
 1775              	.L110:
 1776 0036 C046     		.align	2
 1777              	.L109:
 1778 0038 08000540 		.word	1074069512
 1779              		.cfi_endproc
 1780              	.LFE33:
 1781              		.size	PWM_Fail_TriggerCommand, .-PWM_Fail_TriggerCommand
 1782              		.section	.text.PWM_Fail_ReadStatus,"ax",%progbits
 1783              		.align	2
 1784              		.global	PWM_Fail_ReadStatus
 1785              		.code	16
 1786              		.thumb_func
 1787              		.type	PWM_Fail_ReadStatus, %function
 1788              	PWM_Fail_ReadStatus:
 1789              	.LFB34:
1259:.\Generated_Source\PSoC4/PWM_Fail.c **** 
1260:.\Generated_Source\PSoC4/PWM_Fail.c **** 
1261:.\Generated_Source\PSoC4/PWM_Fail.c **** /*******************************************************************************
1262:.\Generated_Source\PSoC4/PWM_Fail.c **** * Function Name: PWM_Fail_ReadStatus
1263:.\Generated_Source\PSoC4/PWM_Fail.c **** ********************************************************************************
1264:.\Generated_Source\PSoC4/PWM_Fail.c **** *
1265:.\Generated_Source\PSoC4/PWM_Fail.c **** * Summary:
1266:.\Generated_Source\PSoC4/PWM_Fail.c **** *  Reads the status of the PWM_Fail.
1267:.\Generated_Source\PSoC4/PWM_Fail.c **** *
1268:.\Generated_Source\PSoC4/PWM_Fail.c **** * Parameters:
1269:.\Generated_Source\PSoC4/PWM_Fail.c **** *  None
1270:.\Generated_Source\PSoC4/PWM_Fail.c **** *
1271:.\Generated_Source\PSoC4/PWM_Fail.c **** * Return:
1272:.\Generated_Source\PSoC4/PWM_Fail.c **** *  Status
1273:.\Generated_Source\PSoC4/PWM_Fail.c **** *   Values:
1274:.\Generated_Source\PSoC4/PWM_Fail.c **** *     - PWM_Fail_STATUS_DOWN    - Set if counting down
1275:.\Generated_Source\PSoC4/PWM_Fail.c **** *     - PWM_Fail_STATUS_RUNNING - Set if counter is running
1276:.\Generated_Source\PSoC4/PWM_Fail.c **** *
1277:.\Generated_Source\PSoC4/PWM_Fail.c **** *******************************************************************************/
1278:.\Generated_Source\PSoC4/PWM_Fail.c **** uint32 PWM_Fail_ReadStatus(void)
1279:.\Generated_Source\PSoC4/PWM_Fail.c **** {
 1790              		.loc 1 1279 0
 1791              		.cfi_startproc
 1792 0000 80B5     		push	{r7, lr}
 1793              	.LCFI93:
 1794              		.cfi_def_cfa_offset 8
 1795              		.cfi_offset 7, -8
 1796              		.cfi_offset 14, -4
 1797 0002 00AF     		add	r7, sp, #0
 1798              	.LCFI94:
 1799              		.cfi_def_cfa_register 7
ARM GAS  C:\Users\Greg\AppData\Local\Temp\ccDa5X8H.s 			page 55


1280:.\Generated_Source\PSoC4/PWM_Fail.c ****     return ((PWM_Fail_STATUS_REG >> PWM_Fail_RUNNING_STATUS_SHIFT) |
 1800              		.loc 1 1280 0
 1801 0004 054B     		ldr	r3, .L113
 1802 0006 1B68     		ldr	r3, [r3]
 1803 0008 9A0F     		lsr	r2, r3, #30
1281:.\Generated_Source\PSoC4/PWM_Fail.c ****             (PWM_Fail_STATUS_REG & PWM_Fail_STATUS_DOWN));
 1804              		.loc 1 1281 0
 1805 000a 044B     		ldr	r3, .L113
 1806 000c 1968     		ldr	r1, [r3]
 1807 000e 0123     		mov	r3, #1
 1808 0010 0B40     		and	r3, r1
1280:.\Generated_Source\PSoC4/PWM_Fail.c ****     return ((PWM_Fail_STATUS_REG >> PWM_Fail_RUNNING_STATUS_SHIFT) |
 1809              		.loc 1 1280 0
 1810 0012 1343     		orr	r3, r2
1282:.\Generated_Source\PSoC4/PWM_Fail.c **** }
 1811              		.loc 1 1282 0
 1812 0014 181C     		mov	r0, r3
 1813 0016 BD46     		mov	sp, r7
 1814              		@ sp needed for prologue
 1815 0018 80BD     		pop	{r7, pc}
 1816              	.L114:
 1817 001a C046     		.align	2
 1818              	.L113:
 1819 001c 04010540 		.word	1074069764
 1820              		.cfi_endproc
 1821              	.LFE34:
 1822              		.size	PWM_Fail_ReadStatus, .-PWM_Fail_ReadStatus
 1823              		.section	.text.PWM_Fail_SetInterruptMode,"ax",%progbits
 1824              		.align	2
 1825              		.global	PWM_Fail_SetInterruptMode
 1826              		.code	16
 1827              		.thumb_func
 1828              		.type	PWM_Fail_SetInterruptMode, %function
 1829              	PWM_Fail_SetInterruptMode:
 1830              	.LFB35:
1283:.\Generated_Source\PSoC4/PWM_Fail.c **** 
1284:.\Generated_Source\PSoC4/PWM_Fail.c **** 
1285:.\Generated_Source\PSoC4/PWM_Fail.c **** /*******************************************************************************
1286:.\Generated_Source\PSoC4/PWM_Fail.c **** * Function Name: PWM_Fail_SetInterruptMode
1287:.\Generated_Source\PSoC4/PWM_Fail.c **** ********************************************************************************
1288:.\Generated_Source\PSoC4/PWM_Fail.c **** *
1289:.\Generated_Source\PSoC4/PWM_Fail.c **** * Summary:
1290:.\Generated_Source\PSoC4/PWM_Fail.c **** *  Sets the interrupt mask to control which interrupt
1291:.\Generated_Source\PSoC4/PWM_Fail.c **** *  requests generate the interrupt signal.
1292:.\Generated_Source\PSoC4/PWM_Fail.c **** *
1293:.\Generated_Source\PSoC4/PWM_Fail.c **** * Parameters:
1294:.\Generated_Source\PSoC4/PWM_Fail.c **** *   interruptMask: Mask of bits to be enabled
1295:.\Generated_Source\PSoC4/PWM_Fail.c **** *   Values:
1296:.\Generated_Source\PSoC4/PWM_Fail.c **** *     - PWM_Fail_INTR_MASK_TC       - Terminal count mask
1297:.\Generated_Source\PSoC4/PWM_Fail.c **** *     - PWM_Fail_INTR_MASK_CC_MATCH - Compare count / capture mask
1298:.\Generated_Source\PSoC4/PWM_Fail.c **** *
1299:.\Generated_Source\PSoC4/PWM_Fail.c **** * Return:
1300:.\Generated_Source\PSoC4/PWM_Fail.c **** *  None
1301:.\Generated_Source\PSoC4/PWM_Fail.c **** *
1302:.\Generated_Source\PSoC4/PWM_Fail.c **** *******************************************************************************/
1303:.\Generated_Source\PSoC4/PWM_Fail.c **** void PWM_Fail_SetInterruptMode(uint32 interruptMask)
1304:.\Generated_Source\PSoC4/PWM_Fail.c **** {
ARM GAS  C:\Users\Greg\AppData\Local\Temp\ccDa5X8H.s 			page 56


 1831              		.loc 1 1304 0
 1832              		.cfi_startproc
 1833 0000 80B5     		push	{r7, lr}
 1834              	.LCFI95:
 1835              		.cfi_def_cfa_offset 8
 1836              		.cfi_offset 7, -8
 1837              		.cfi_offset 14, -4
 1838 0002 82B0     		sub	sp, sp, #8
 1839              	.LCFI96:
 1840              		.cfi_def_cfa_offset 16
 1841 0004 00AF     		add	r7, sp, #0
 1842              	.LCFI97:
 1843              		.cfi_def_cfa_register 7
 1844 0006 7860     		str	r0, [r7, #4]
1305:.\Generated_Source\PSoC4/PWM_Fail.c ****     PWM_Fail_INTERRUPT_MASK_REG =  interruptMask;
 1845              		.loc 1 1305 0
 1846 0008 024B     		ldr	r3, .L116
 1847 000a 7A68     		ldr	r2, [r7, #4]
 1848 000c 1A60     		str	r2, [r3]
1306:.\Generated_Source\PSoC4/PWM_Fail.c **** }
 1849              		.loc 1 1306 0
 1850 000e BD46     		mov	sp, r7
 1851 0010 02B0     		add	sp, sp, #8
 1852              		@ sp needed for prologue
 1853 0012 80BD     		pop	{r7, pc}
 1854              	.L117:
 1855              		.align	2
 1856              	.L116:
 1857 0014 38010540 		.word	1074069816
 1858              		.cfi_endproc
 1859              	.LFE35:
 1860              		.size	PWM_Fail_SetInterruptMode, .-PWM_Fail_SetInterruptMode
 1861              		.section	.text.PWM_Fail_GetInterruptSourceMasked,"ax",%progbits
 1862              		.align	2
 1863              		.global	PWM_Fail_GetInterruptSourceMasked
 1864              		.code	16
 1865              		.thumb_func
 1866              		.type	PWM_Fail_GetInterruptSourceMasked, %function
 1867              	PWM_Fail_GetInterruptSourceMasked:
 1868              	.LFB36:
1307:.\Generated_Source\PSoC4/PWM_Fail.c **** 
1308:.\Generated_Source\PSoC4/PWM_Fail.c **** 
1309:.\Generated_Source\PSoC4/PWM_Fail.c **** /*******************************************************************************
1310:.\Generated_Source\PSoC4/PWM_Fail.c **** * Function Name: PWM_Fail_GetInterruptSourceMasked
1311:.\Generated_Source\PSoC4/PWM_Fail.c **** ********************************************************************************
1312:.\Generated_Source\PSoC4/PWM_Fail.c **** *
1313:.\Generated_Source\PSoC4/PWM_Fail.c **** * Summary:
1314:.\Generated_Source\PSoC4/PWM_Fail.c **** *  Gets the interrupt requests masked by the interrupt mask.
1315:.\Generated_Source\PSoC4/PWM_Fail.c **** *
1316:.\Generated_Source\PSoC4/PWM_Fail.c **** * Parameters:
1317:.\Generated_Source\PSoC4/PWM_Fail.c **** *   None
1318:.\Generated_Source\PSoC4/PWM_Fail.c **** *
1319:.\Generated_Source\PSoC4/PWM_Fail.c **** * Return:
1320:.\Generated_Source\PSoC4/PWM_Fail.c **** *  Masked interrupt source
1321:.\Generated_Source\PSoC4/PWM_Fail.c **** *   Values:
1322:.\Generated_Source\PSoC4/PWM_Fail.c **** *     - PWM_Fail_INTR_MASK_TC       - Terminal count mask
1323:.\Generated_Source\PSoC4/PWM_Fail.c **** *     - PWM_Fail_INTR_MASK_CC_MATCH - Compare count / capture mask
ARM GAS  C:\Users\Greg\AppData\Local\Temp\ccDa5X8H.s 			page 57


1324:.\Generated_Source\PSoC4/PWM_Fail.c **** *
1325:.\Generated_Source\PSoC4/PWM_Fail.c **** *******************************************************************************/
1326:.\Generated_Source\PSoC4/PWM_Fail.c **** uint32 PWM_Fail_GetInterruptSourceMasked(void)
1327:.\Generated_Source\PSoC4/PWM_Fail.c **** {
 1869              		.loc 1 1327 0
 1870              		.cfi_startproc
 1871 0000 80B5     		push	{r7, lr}
 1872              	.LCFI98:
 1873              		.cfi_def_cfa_offset 8
 1874              		.cfi_offset 7, -8
 1875              		.cfi_offset 14, -4
 1876 0002 00AF     		add	r7, sp, #0
 1877              	.LCFI99:
 1878              		.cfi_def_cfa_register 7
1328:.\Generated_Source\PSoC4/PWM_Fail.c ****     return (PWM_Fail_INTERRUPT_MASKED_REG);
 1879              		.loc 1 1328 0
 1880 0004 024B     		ldr	r3, .L120
 1881 0006 1B68     		ldr	r3, [r3]
1329:.\Generated_Source\PSoC4/PWM_Fail.c **** }
 1882              		.loc 1 1329 0
 1883 0008 181C     		mov	r0, r3
 1884 000a BD46     		mov	sp, r7
 1885              		@ sp needed for prologue
 1886 000c 80BD     		pop	{r7, pc}
 1887              	.L121:
 1888 000e C046     		.align	2
 1889              	.L120:
 1890 0010 3C010540 		.word	1074069820
 1891              		.cfi_endproc
 1892              	.LFE36:
 1893              		.size	PWM_Fail_GetInterruptSourceMasked, .-PWM_Fail_GetInterruptSourceMasked
 1894              		.section	.text.PWM_Fail_GetInterruptSource,"ax",%progbits
 1895              		.align	2
 1896              		.global	PWM_Fail_GetInterruptSource
 1897              		.code	16
 1898              		.thumb_func
 1899              		.type	PWM_Fail_GetInterruptSource, %function
 1900              	PWM_Fail_GetInterruptSource:
 1901              	.LFB37:
1330:.\Generated_Source\PSoC4/PWM_Fail.c **** 
1331:.\Generated_Source\PSoC4/PWM_Fail.c **** 
1332:.\Generated_Source\PSoC4/PWM_Fail.c **** /*******************************************************************************
1333:.\Generated_Source\PSoC4/PWM_Fail.c **** * Function Name: PWM_Fail_GetInterruptSource
1334:.\Generated_Source\PSoC4/PWM_Fail.c **** ********************************************************************************
1335:.\Generated_Source\PSoC4/PWM_Fail.c **** *
1336:.\Generated_Source\PSoC4/PWM_Fail.c **** * Summary:
1337:.\Generated_Source\PSoC4/PWM_Fail.c **** *  Gets the interrupt requests (without masking).
1338:.\Generated_Source\PSoC4/PWM_Fail.c **** *
1339:.\Generated_Source\PSoC4/PWM_Fail.c **** * Parameters:
1340:.\Generated_Source\PSoC4/PWM_Fail.c **** *  None
1341:.\Generated_Source\PSoC4/PWM_Fail.c **** *
1342:.\Generated_Source\PSoC4/PWM_Fail.c **** * Return:
1343:.\Generated_Source\PSoC4/PWM_Fail.c **** *  Interrupt request value
1344:.\Generated_Source\PSoC4/PWM_Fail.c **** *   Values:
1345:.\Generated_Source\PSoC4/PWM_Fail.c **** *     - PWM_Fail_INTR_MASK_TC       - Terminal count mask
1346:.\Generated_Source\PSoC4/PWM_Fail.c **** *     - PWM_Fail_INTR_MASK_CC_MATCH - Compare count / capture mask
1347:.\Generated_Source\PSoC4/PWM_Fail.c **** *
ARM GAS  C:\Users\Greg\AppData\Local\Temp\ccDa5X8H.s 			page 58


1348:.\Generated_Source\PSoC4/PWM_Fail.c **** *******************************************************************************/
1349:.\Generated_Source\PSoC4/PWM_Fail.c **** uint32 PWM_Fail_GetInterruptSource(void)
1350:.\Generated_Source\PSoC4/PWM_Fail.c **** {
 1902              		.loc 1 1350 0
 1903              		.cfi_startproc
 1904 0000 80B5     		push	{r7, lr}
 1905              	.LCFI100:
 1906              		.cfi_def_cfa_offset 8
 1907              		.cfi_offset 7, -8
 1908              		.cfi_offset 14, -4
 1909 0002 00AF     		add	r7, sp, #0
 1910              	.LCFI101:
 1911              		.cfi_def_cfa_register 7
1351:.\Generated_Source\PSoC4/PWM_Fail.c ****     return (PWM_Fail_INTERRUPT_REQ_REG);
 1912              		.loc 1 1351 0
 1913 0004 024B     		ldr	r3, .L124
 1914 0006 1B68     		ldr	r3, [r3]
1352:.\Generated_Source\PSoC4/PWM_Fail.c **** }
 1915              		.loc 1 1352 0
 1916 0008 181C     		mov	r0, r3
 1917 000a BD46     		mov	sp, r7
 1918              		@ sp needed for prologue
 1919 000c 80BD     		pop	{r7, pc}
 1920              	.L125:
 1921 000e C046     		.align	2
 1922              	.L124:
 1923 0010 30010540 		.word	1074069808
 1924              		.cfi_endproc
 1925              	.LFE37:
 1926              		.size	PWM_Fail_GetInterruptSource, .-PWM_Fail_GetInterruptSource
 1927              		.section	.text.PWM_Fail_ClearInterrupt,"ax",%progbits
 1928              		.align	2
 1929              		.global	PWM_Fail_ClearInterrupt
 1930              		.code	16
 1931              		.thumb_func
 1932              		.type	PWM_Fail_ClearInterrupt, %function
 1933              	PWM_Fail_ClearInterrupt:
 1934              	.LFB38:
1353:.\Generated_Source\PSoC4/PWM_Fail.c **** 
1354:.\Generated_Source\PSoC4/PWM_Fail.c **** 
1355:.\Generated_Source\PSoC4/PWM_Fail.c **** /*******************************************************************************
1356:.\Generated_Source\PSoC4/PWM_Fail.c **** * Function Name: PWM_Fail_ClearInterrupt
1357:.\Generated_Source\PSoC4/PWM_Fail.c **** ********************************************************************************
1358:.\Generated_Source\PSoC4/PWM_Fail.c **** *
1359:.\Generated_Source\PSoC4/PWM_Fail.c **** * Summary:
1360:.\Generated_Source\PSoC4/PWM_Fail.c **** *  Clears the interrupt request.
1361:.\Generated_Source\PSoC4/PWM_Fail.c **** *
1362:.\Generated_Source\PSoC4/PWM_Fail.c **** * Parameters:
1363:.\Generated_Source\PSoC4/PWM_Fail.c **** *   interruptMask: Mask of interrupts to clear
1364:.\Generated_Source\PSoC4/PWM_Fail.c **** *   Values:
1365:.\Generated_Source\PSoC4/PWM_Fail.c **** *     - PWM_Fail_INTR_MASK_TC       - Terminal count mask
1366:.\Generated_Source\PSoC4/PWM_Fail.c **** *     - PWM_Fail_INTR_MASK_CC_MATCH - Compare count / capture mask
1367:.\Generated_Source\PSoC4/PWM_Fail.c **** *
1368:.\Generated_Source\PSoC4/PWM_Fail.c **** * Return:
1369:.\Generated_Source\PSoC4/PWM_Fail.c **** *  None
1370:.\Generated_Source\PSoC4/PWM_Fail.c **** *
1371:.\Generated_Source\PSoC4/PWM_Fail.c **** *******************************************************************************/
ARM GAS  C:\Users\Greg\AppData\Local\Temp\ccDa5X8H.s 			page 59


1372:.\Generated_Source\PSoC4/PWM_Fail.c **** void PWM_Fail_ClearInterrupt(uint32 interruptMask)
1373:.\Generated_Source\PSoC4/PWM_Fail.c **** {
 1935              		.loc 1 1373 0
 1936              		.cfi_startproc
 1937 0000 80B5     		push	{r7, lr}
 1938              	.LCFI102:
 1939              		.cfi_def_cfa_offset 8
 1940              		.cfi_offset 7, -8
 1941              		.cfi_offset 14, -4
 1942 0002 82B0     		sub	sp, sp, #8
 1943              	.LCFI103:
 1944              		.cfi_def_cfa_offset 16
 1945 0004 00AF     		add	r7, sp, #0
 1946              	.LCFI104:
 1947              		.cfi_def_cfa_register 7
 1948 0006 7860     		str	r0, [r7, #4]
1374:.\Generated_Source\PSoC4/PWM_Fail.c ****     PWM_Fail_INTERRUPT_REQ_REG = interruptMask;
 1949              		.loc 1 1374 0
 1950 0008 024B     		ldr	r3, .L127
 1951 000a 7A68     		ldr	r2, [r7, #4]
 1952 000c 1A60     		str	r2, [r3]
1375:.\Generated_Source\PSoC4/PWM_Fail.c **** }
 1953              		.loc 1 1375 0
 1954 000e BD46     		mov	sp, r7
 1955 0010 02B0     		add	sp, sp, #8
 1956              		@ sp needed for prologue
 1957 0012 80BD     		pop	{r7, pc}
 1958              	.L128:
 1959              		.align	2
 1960              	.L127:
 1961 0014 30010540 		.word	1074069808
 1962              		.cfi_endproc
 1963              	.LFE38:
 1964              		.size	PWM_Fail_ClearInterrupt, .-PWM_Fail_ClearInterrupt
 1965              		.section	.text.PWM_Fail_SetInterrupt,"ax",%progbits
 1966              		.align	2
 1967              		.global	PWM_Fail_SetInterrupt
 1968              		.code	16
 1969              		.thumb_func
 1970              		.type	PWM_Fail_SetInterrupt, %function
 1971              	PWM_Fail_SetInterrupt:
 1972              	.LFB39:
1376:.\Generated_Source\PSoC4/PWM_Fail.c **** 
1377:.\Generated_Source\PSoC4/PWM_Fail.c **** 
1378:.\Generated_Source\PSoC4/PWM_Fail.c **** /*******************************************************************************
1379:.\Generated_Source\PSoC4/PWM_Fail.c **** * Function Name: PWM_Fail_SetInterrupt
1380:.\Generated_Source\PSoC4/PWM_Fail.c **** ********************************************************************************
1381:.\Generated_Source\PSoC4/PWM_Fail.c **** *
1382:.\Generated_Source\PSoC4/PWM_Fail.c **** * Summary:
1383:.\Generated_Source\PSoC4/PWM_Fail.c **** *  Sets a software interrupt request.
1384:.\Generated_Source\PSoC4/PWM_Fail.c **** *
1385:.\Generated_Source\PSoC4/PWM_Fail.c **** * Parameters:
1386:.\Generated_Source\PSoC4/PWM_Fail.c **** *   interruptMask: Mask of interrupts to set
1387:.\Generated_Source\PSoC4/PWM_Fail.c **** *   Values:
1388:.\Generated_Source\PSoC4/PWM_Fail.c **** *     - PWM_Fail_INTR_MASK_TC       - Terminal count mask
1389:.\Generated_Source\PSoC4/PWM_Fail.c **** *     - PWM_Fail_INTR_MASK_CC_MATCH - Compare count / capture mask
1390:.\Generated_Source\PSoC4/PWM_Fail.c **** *
ARM GAS  C:\Users\Greg\AppData\Local\Temp\ccDa5X8H.s 			page 60


1391:.\Generated_Source\PSoC4/PWM_Fail.c **** * Return:
1392:.\Generated_Source\PSoC4/PWM_Fail.c **** *  None
1393:.\Generated_Source\PSoC4/PWM_Fail.c **** *
1394:.\Generated_Source\PSoC4/PWM_Fail.c **** *******************************************************************************/
1395:.\Generated_Source\PSoC4/PWM_Fail.c **** void PWM_Fail_SetInterrupt(uint32 interruptMask)
1396:.\Generated_Source\PSoC4/PWM_Fail.c **** {
 1973              		.loc 1 1396 0
 1974              		.cfi_startproc
 1975 0000 80B5     		push	{r7, lr}
 1976              	.LCFI105:
 1977              		.cfi_def_cfa_offset 8
 1978              		.cfi_offset 7, -8
 1979              		.cfi_offset 14, -4
 1980 0002 82B0     		sub	sp, sp, #8
 1981              	.LCFI106:
 1982              		.cfi_def_cfa_offset 16
 1983 0004 00AF     		add	r7, sp, #0
 1984              	.LCFI107:
 1985              		.cfi_def_cfa_register 7
 1986 0006 7860     		str	r0, [r7, #4]
1397:.\Generated_Source\PSoC4/PWM_Fail.c ****     PWM_Fail_INTERRUPT_SET_REG = interruptMask;
 1987              		.loc 1 1397 0
 1988 0008 024B     		ldr	r3, .L130
 1989 000a 7A68     		ldr	r2, [r7, #4]
 1990 000c 1A60     		str	r2, [r3]
1398:.\Generated_Source\PSoC4/PWM_Fail.c **** }
 1991              		.loc 1 1398 0
 1992 000e BD46     		mov	sp, r7
 1993 0010 02B0     		add	sp, sp, #8
 1994              		@ sp needed for prologue
 1995 0012 80BD     		pop	{r7, pc}
 1996              	.L131:
 1997              		.align	2
 1998              	.L130:
 1999 0014 34010540 		.word	1074069812
 2000              		.cfi_endproc
 2001              	.LFE39:
 2002              		.size	PWM_Fail_SetInterrupt, .-PWM_Fail_SetInterrupt
 2003              		.text
 2004              	.Letext0:
 2005              		.file 2 ".\\Generated_Source\\PSoC4\\cytypes.h"