ARM GAS  C:\Users\gjl\AppData\Local\Temp\ccYvuRZj.s 			page 1


   1              		.syntax unified
   2              		.cpu cortex-m0
   3              		.fpu softvfp
   4              		.eabi_attribute 20, 1
   5              		.eabi_attribute 21, 1
   6              		.eabi_attribute 23, 3
   7              		.eabi_attribute 24, 1
   8              		.eabi_attribute 25, 1
   9              		.eabi_attribute 26, 1
  10              		.eabi_attribute 30, 6
  11              		.eabi_attribute 34, 0
  12              		.eabi_attribute 18, 4
  13              		.thumb
  14              		.syntax unified
  15              		.file	"Button_Reg.c"
  16              		.text
  17              	.Ltext0:
  18              		.cfi_sections	.debug_frame
  19              		.section	.text.Button_Reg_Read,"ax",%progbits
  20              		.align	2
  21              		.global	Button_Reg_Read
  22              		.code	16
  23              		.thumb_func
  24              		.type	Button_Reg_Read, %function
  25              	Button_Reg_Read:
  26              	.LFB0:
  27              		.file 1 "Generated_Source\\PSoC4\\Button_Reg.c"
   1:Generated_Source\PSoC4/Button_Reg.c **** /*******************************************************************************
   2:Generated_Source\PSoC4/Button_Reg.c **** * File Name: Button_Reg.c  
   3:Generated_Source\PSoC4/Button_Reg.c **** * Version 1.90
   4:Generated_Source\PSoC4/Button_Reg.c **** *
   5:Generated_Source\PSoC4/Button_Reg.c **** * Description:
   6:Generated_Source\PSoC4/Button_Reg.c **** *  This file contains API to enable firmware to read the value of a Status 
   7:Generated_Source\PSoC4/Button_Reg.c **** *  Register.
   8:Generated_Source\PSoC4/Button_Reg.c **** *
   9:Generated_Source\PSoC4/Button_Reg.c **** * Note:
  10:Generated_Source\PSoC4/Button_Reg.c **** *
  11:Generated_Source\PSoC4/Button_Reg.c **** ********************************************************************************
  12:Generated_Source\PSoC4/Button_Reg.c **** * Copyright 2008-2015, Cypress Semiconductor Corporation.  All rights reserved.
  13:Generated_Source\PSoC4/Button_Reg.c **** * You may use this file only in accordance with the license, terms, conditions, 
  14:Generated_Source\PSoC4/Button_Reg.c **** * disclaimers, and limitations in the end user license agreement accompanying 
  15:Generated_Source\PSoC4/Button_Reg.c **** * the software package with which this file was provided.
  16:Generated_Source\PSoC4/Button_Reg.c **** *******************************************************************************/
  17:Generated_Source\PSoC4/Button_Reg.c **** 
  18:Generated_Source\PSoC4/Button_Reg.c **** #include "Button_Reg.h"
  19:Generated_Source\PSoC4/Button_Reg.c **** 
  20:Generated_Source\PSoC4/Button_Reg.c **** #if !defined(Button_Reg_sts_sts_reg__REMOVED) /* Check for removal by optimization */
  21:Generated_Source\PSoC4/Button_Reg.c **** 
  22:Generated_Source\PSoC4/Button_Reg.c **** 
  23:Generated_Source\PSoC4/Button_Reg.c **** /*******************************************************************************
  24:Generated_Source\PSoC4/Button_Reg.c **** * Function Name: Button_Reg_Read
  25:Generated_Source\PSoC4/Button_Reg.c **** ********************************************************************************
  26:Generated_Source\PSoC4/Button_Reg.c **** *
  27:Generated_Source\PSoC4/Button_Reg.c **** * Summary:
  28:Generated_Source\PSoC4/Button_Reg.c **** *  Reads the current value assigned to the Status Register.
  29:Generated_Source\PSoC4/Button_Reg.c **** *
  30:Generated_Source\PSoC4/Button_Reg.c **** * Parameters:
ARM GAS  C:\Users\gjl\AppData\Local\Temp\ccYvuRZj.s 			page 2


  31:Generated_Source\PSoC4/Button_Reg.c **** *  None.
  32:Generated_Source\PSoC4/Button_Reg.c **** *
  33:Generated_Source\PSoC4/Button_Reg.c **** * Return:
  34:Generated_Source\PSoC4/Button_Reg.c **** *  The current value in the Status Register.
  35:Generated_Source\PSoC4/Button_Reg.c **** *
  36:Generated_Source\PSoC4/Button_Reg.c **** *******************************************************************************/
  37:Generated_Source\PSoC4/Button_Reg.c **** uint8 Button_Reg_Read(void) 
  38:Generated_Source\PSoC4/Button_Reg.c **** { 
  28              		.loc 1 38 0
  29              		.cfi_startproc
  30              		@ args = 0, pretend = 0, frame = 0
  31              		@ frame_needed = 1, uses_anonymous_args = 0
  32 0000 80B5     		push	{r7, lr}
  33              		.cfi_def_cfa_offset 8
  34              		.cfi_offset 7, -8
  35              		.cfi_offset 14, -4
  36 0002 00AF     		add	r7, sp, #0
  37              		.cfi_def_cfa_register 7
  39:Generated_Source\PSoC4/Button_Reg.c ****     return Button_Reg_Status;
  38              		.loc 1 39 0
  39 0004 024B     		ldr	r3, .L3
  40 0006 1B78     		ldrb	r3, [r3]
  41 0008 DBB2     		uxtb	r3, r3
  40:Generated_Source\PSoC4/Button_Reg.c **** }
  42              		.loc 1 40 0
  43 000a 1800     		movs	r0, r3
  44 000c BD46     		mov	sp, r7
  45              		@ sp needed
  46 000e 80BD     		pop	{r7, pc}
  47              	.L4:
  48              		.align	2
  49              	.L3:
  50 0010 62000F40 		.word	1074724962
  51              		.cfi_endproc
  52              	.LFE0:
  53              		.size	Button_Reg_Read, .-Button_Reg_Read
  54              		.section	.text.Button_Reg_InterruptEnable,"ax",%progbits
  55              		.align	2
  56              		.global	Button_Reg_InterruptEnable
  57              		.code	16
  58              		.thumb_func
  59              		.type	Button_Reg_InterruptEnable, %function
  60              	Button_Reg_InterruptEnable:
  61              	.LFB1:
  41:Generated_Source\PSoC4/Button_Reg.c **** 
  42:Generated_Source\PSoC4/Button_Reg.c **** 
  43:Generated_Source\PSoC4/Button_Reg.c **** /*******************************************************************************
  44:Generated_Source\PSoC4/Button_Reg.c **** * Function Name: Button_Reg_InterruptEnable
  45:Generated_Source\PSoC4/Button_Reg.c **** ********************************************************************************
  46:Generated_Source\PSoC4/Button_Reg.c **** *
  47:Generated_Source\PSoC4/Button_Reg.c **** * Summary:
  48:Generated_Source\PSoC4/Button_Reg.c **** *  Enables the Status Register interrupt.
  49:Generated_Source\PSoC4/Button_Reg.c **** *
  50:Generated_Source\PSoC4/Button_Reg.c **** * Parameters:
  51:Generated_Source\PSoC4/Button_Reg.c **** *  None.
  52:Generated_Source\PSoC4/Button_Reg.c **** *
  53:Generated_Source\PSoC4/Button_Reg.c **** * Return:
ARM GAS  C:\Users\gjl\AppData\Local\Temp\ccYvuRZj.s 			page 3


  54:Generated_Source\PSoC4/Button_Reg.c **** *  None.
  55:Generated_Source\PSoC4/Button_Reg.c **** *
  56:Generated_Source\PSoC4/Button_Reg.c **** *******************************************************************************/
  57:Generated_Source\PSoC4/Button_Reg.c **** void Button_Reg_InterruptEnable(void) 
  58:Generated_Source\PSoC4/Button_Reg.c **** {
  62              		.loc 1 58 0
  63              		.cfi_startproc
  64              		@ args = 0, pretend = 0, frame = 8
  65              		@ frame_needed = 1, uses_anonymous_args = 0
  66 0000 90B5     		push	{r4, r7, lr}
  67              		.cfi_def_cfa_offset 12
  68              		.cfi_offset 4, -12
  69              		.cfi_offset 7, -8
  70              		.cfi_offset 14, -4
  71 0002 83B0     		sub	sp, sp, #12
  72              		.cfi_def_cfa_offset 24
  73 0004 00AF     		add	r7, sp, #0
  74              		.cfi_def_cfa_register 7
  59:Generated_Source\PSoC4/Button_Reg.c ****     uint8 interruptState;
  60:Generated_Source\PSoC4/Button_Reg.c ****     interruptState = CyEnterCriticalSection();
  75              		.loc 1 60 0
  76 0006 FC1D     		adds	r4, r7, #7
  77 0008 FFF7FEFF 		bl	CyEnterCriticalSection
  78 000c 0300     		movs	r3, r0
  79 000e 2370     		strb	r3, [r4]
  61:Generated_Source\PSoC4/Button_Reg.c ****     Button_Reg_Status_Aux_Ctrl |= Button_Reg_STATUS_INTR_ENBL;
  80              		.loc 1 61 0
  81 0010 084A     		ldr	r2, .L6
  82 0012 084B     		ldr	r3, .L6
  83 0014 1B78     		ldrb	r3, [r3]
  84 0016 DBB2     		uxtb	r3, r3
  85 0018 1021     		movs	r1, #16
  86 001a 0B43     		orrs	r3, r1
  87 001c DBB2     		uxtb	r3, r3
  88 001e 1370     		strb	r3, [r2]
  62:Generated_Source\PSoC4/Button_Reg.c ****     CyExitCriticalSection(interruptState);
  89              		.loc 1 62 0
  90 0020 FB1D     		adds	r3, r7, #7
  91 0022 1B78     		ldrb	r3, [r3]
  92 0024 1800     		movs	r0, r3
  93 0026 FFF7FEFF 		bl	CyExitCriticalSection
  63:Generated_Source\PSoC4/Button_Reg.c **** }
  94              		.loc 1 63 0
  95 002a C046     		nop
  96 002c BD46     		mov	sp, r7
  97 002e 03B0     		add	sp, sp, #12
  98              		@ sp needed
  99 0030 90BD     		pop	{r4, r7, pc}
 100              	.L7:
 101 0032 C046     		.align	2
 102              	.L6:
 103 0034 92000F40 		.word	1074725010
 104              		.cfi_endproc
 105              	.LFE1:
 106              		.size	Button_Reg_InterruptEnable, .-Button_Reg_InterruptEnable
 107              		.section	.text.Button_Reg_InterruptDisable,"ax",%progbits
 108              		.align	2
ARM GAS  C:\Users\gjl\AppData\Local\Temp\ccYvuRZj.s 			page 4


 109              		.global	Button_Reg_InterruptDisable
 110              		.code	16
 111              		.thumb_func
 112              		.type	Button_Reg_InterruptDisable, %function
 113              	Button_Reg_InterruptDisable:
 114              	.LFB2:
  64:Generated_Source\PSoC4/Button_Reg.c **** 
  65:Generated_Source\PSoC4/Button_Reg.c **** 
  66:Generated_Source\PSoC4/Button_Reg.c **** /*******************************************************************************
  67:Generated_Source\PSoC4/Button_Reg.c **** * Function Name: Button_Reg_InterruptDisable
  68:Generated_Source\PSoC4/Button_Reg.c **** ********************************************************************************
  69:Generated_Source\PSoC4/Button_Reg.c **** *
  70:Generated_Source\PSoC4/Button_Reg.c **** * Summary:
  71:Generated_Source\PSoC4/Button_Reg.c **** *  Disables the Status Register interrupt.
  72:Generated_Source\PSoC4/Button_Reg.c **** *
  73:Generated_Source\PSoC4/Button_Reg.c **** * Parameters:
  74:Generated_Source\PSoC4/Button_Reg.c **** *  None.
  75:Generated_Source\PSoC4/Button_Reg.c **** *
  76:Generated_Source\PSoC4/Button_Reg.c **** * Return:
  77:Generated_Source\PSoC4/Button_Reg.c **** *  None.
  78:Generated_Source\PSoC4/Button_Reg.c **** *
  79:Generated_Source\PSoC4/Button_Reg.c **** *******************************************************************************/
  80:Generated_Source\PSoC4/Button_Reg.c **** void Button_Reg_InterruptDisable(void) 
  81:Generated_Source\PSoC4/Button_Reg.c **** {
 115              		.loc 1 81 0
 116              		.cfi_startproc
 117              		@ args = 0, pretend = 0, frame = 8
 118              		@ frame_needed = 1, uses_anonymous_args = 0
 119 0000 90B5     		push	{r4, r7, lr}
 120              		.cfi_def_cfa_offset 12
 121              		.cfi_offset 4, -12
 122              		.cfi_offset 7, -8
 123              		.cfi_offset 14, -4
 124 0002 83B0     		sub	sp, sp, #12
 125              		.cfi_def_cfa_offset 24
 126 0004 00AF     		add	r7, sp, #0
 127              		.cfi_def_cfa_register 7
  82:Generated_Source\PSoC4/Button_Reg.c ****     uint8 interruptState;
  83:Generated_Source\PSoC4/Button_Reg.c ****     interruptState = CyEnterCriticalSection();
 128              		.loc 1 83 0
 129 0006 FC1D     		adds	r4, r7, #7
 130 0008 FFF7FEFF 		bl	CyEnterCriticalSection
 131 000c 0300     		movs	r3, r0
 132 000e 2370     		strb	r3, [r4]
  84:Generated_Source\PSoC4/Button_Reg.c ****     Button_Reg_Status_Aux_Ctrl &= (uint8)(~Button_Reg_STATUS_INTR_ENBL);
 133              		.loc 1 84 0
 134 0010 084A     		ldr	r2, .L9
 135 0012 084B     		ldr	r3, .L9
 136 0014 1B78     		ldrb	r3, [r3]
 137 0016 DBB2     		uxtb	r3, r3
 138 0018 1021     		movs	r1, #16
 139 001a 8B43     		bics	r3, r1
 140 001c DBB2     		uxtb	r3, r3
 141 001e 1370     		strb	r3, [r2]
  85:Generated_Source\PSoC4/Button_Reg.c ****     CyExitCriticalSection(interruptState);
 142              		.loc 1 85 0
 143 0020 FB1D     		adds	r3, r7, #7
ARM GAS  C:\Users\gjl\AppData\Local\Temp\ccYvuRZj.s 			page 5


 144 0022 1B78     		ldrb	r3, [r3]
 145 0024 1800     		movs	r0, r3
 146 0026 FFF7FEFF 		bl	CyExitCriticalSection
  86:Generated_Source\PSoC4/Button_Reg.c **** }
 147              		.loc 1 86 0
 148 002a C046     		nop
 149 002c BD46     		mov	sp, r7
 150 002e 03B0     		add	sp, sp, #12
 151              		@ sp needed
 152 0030 90BD     		pop	{r4, r7, pc}
 153              	.L10:
 154 0032 C046     		.align	2
 155              	.L9:
 156 0034 92000F40 		.word	1074725010
 157              		.cfi_endproc
 158              	.LFE2:
 159              		.size	Button_Reg_InterruptDisable, .-Button_Reg_InterruptDisable
 160              		.section	.text.Button_Reg_WriteMask,"ax",%progbits
 161              		.align	2
 162              		.global	Button_Reg_WriteMask
 163              		.code	16
 164              		.thumb_func
 165              		.type	Button_Reg_WriteMask, %function
 166              	Button_Reg_WriteMask:
 167              	.LFB3:
  87:Generated_Source\PSoC4/Button_Reg.c **** 
  88:Generated_Source\PSoC4/Button_Reg.c **** 
  89:Generated_Source\PSoC4/Button_Reg.c **** /*******************************************************************************
  90:Generated_Source\PSoC4/Button_Reg.c **** * Function Name: Button_Reg_WriteMask
  91:Generated_Source\PSoC4/Button_Reg.c **** ********************************************************************************
  92:Generated_Source\PSoC4/Button_Reg.c **** *
  93:Generated_Source\PSoC4/Button_Reg.c **** * Summary:
  94:Generated_Source\PSoC4/Button_Reg.c **** *  Writes the current mask value assigned to the Status Register.
  95:Generated_Source\PSoC4/Button_Reg.c **** *
  96:Generated_Source\PSoC4/Button_Reg.c **** * Parameters:
  97:Generated_Source\PSoC4/Button_Reg.c **** *  mask:  Value to write into the mask register.
  98:Generated_Source\PSoC4/Button_Reg.c **** *
  99:Generated_Source\PSoC4/Button_Reg.c **** * Return:
 100:Generated_Source\PSoC4/Button_Reg.c **** *  None.
 101:Generated_Source\PSoC4/Button_Reg.c **** *
 102:Generated_Source\PSoC4/Button_Reg.c **** *******************************************************************************/
 103:Generated_Source\PSoC4/Button_Reg.c **** void Button_Reg_WriteMask(uint8 mask) 
 104:Generated_Source\PSoC4/Button_Reg.c **** {
 168              		.loc 1 104 0
 169              		.cfi_startproc
 170              		@ args = 0, pretend = 0, frame = 8
 171              		@ frame_needed = 1, uses_anonymous_args = 0
 172 0000 80B5     		push	{r7, lr}
 173              		.cfi_def_cfa_offset 8
 174              		.cfi_offset 7, -8
 175              		.cfi_offset 14, -4
 176 0002 82B0     		sub	sp, sp, #8
 177              		.cfi_def_cfa_offset 16
 178 0004 00AF     		add	r7, sp, #0
 179              		.cfi_def_cfa_register 7
 180 0006 0200     		movs	r2, r0
 181 0008 FB1D     		adds	r3, r7, #7
ARM GAS  C:\Users\gjl\AppData\Local\Temp\ccYvuRZj.s 			page 6


 182 000a 1A70     		strb	r2, [r3]
 105:Generated_Source\PSoC4/Button_Reg.c ****     #if(Button_Reg_INPUTS < 8u)
 106:Generated_Source\PSoC4/Button_Reg.c ****     	mask &= ((uint8)(1u << Button_Reg_INPUTS) - 1u);
 183              		.loc 1 106 0
 184 000c FB1D     		adds	r3, r7, #7
 185 000e FA1D     		adds	r2, r7, #7
 186 0010 1278     		ldrb	r2, [r2]
 187 0012 0F21     		movs	r1, #15
 188 0014 0A40     		ands	r2, r1
 189 0016 1A70     		strb	r2, [r3]
 107:Generated_Source\PSoC4/Button_Reg.c **** 	#endif /* End Button_Reg_INPUTS < 8u */
 108:Generated_Source\PSoC4/Button_Reg.c ****     Button_Reg_Status_Mask = mask;
 190              		.loc 1 108 0
 191 0018 034A     		ldr	r2, .L12
 192 001a FB1D     		adds	r3, r7, #7
 193 001c 1B78     		ldrb	r3, [r3]
 194 001e 1370     		strb	r3, [r2]
 109:Generated_Source\PSoC4/Button_Reg.c **** }
 195              		.loc 1 109 0
 196 0020 C046     		nop
 197 0022 BD46     		mov	sp, r7
 198 0024 02B0     		add	sp, sp, #8
 199              		@ sp needed
 200 0026 80BD     		pop	{r7, pc}
 201              	.L13:
 202              		.align	2
 203              	.L12:
 204 0028 82000F40 		.word	1074724994
 205              		.cfi_endproc
 206              	.LFE3:
 207              		.size	Button_Reg_WriteMask, .-Button_Reg_WriteMask
 208              		.section	.text.Button_Reg_ReadMask,"ax",%progbits
 209              		.align	2
 210              		.global	Button_Reg_ReadMask
 211              		.code	16
 212              		.thumb_func
 213              		.type	Button_Reg_ReadMask, %function
 214              	Button_Reg_ReadMask:
 215              	.LFB4:
 110:Generated_Source\PSoC4/Button_Reg.c **** 
 111:Generated_Source\PSoC4/Button_Reg.c **** 
 112:Generated_Source\PSoC4/Button_Reg.c **** /*******************************************************************************
 113:Generated_Source\PSoC4/Button_Reg.c **** * Function Name: Button_Reg_ReadMask
 114:Generated_Source\PSoC4/Button_Reg.c **** ********************************************************************************
 115:Generated_Source\PSoC4/Button_Reg.c **** *
 116:Generated_Source\PSoC4/Button_Reg.c **** * Summary:
 117:Generated_Source\PSoC4/Button_Reg.c **** *  Reads the current interrupt mask assigned to the Status Register.
 118:Generated_Source\PSoC4/Button_Reg.c **** *
 119:Generated_Source\PSoC4/Button_Reg.c **** * Parameters:
 120:Generated_Source\PSoC4/Button_Reg.c **** *  None.
 121:Generated_Source\PSoC4/Button_Reg.c **** *
 122:Generated_Source\PSoC4/Button_Reg.c **** * Return:
 123:Generated_Source\PSoC4/Button_Reg.c **** *  The value of the interrupt mask of the Status Register.
 124:Generated_Source\PSoC4/Button_Reg.c **** *
 125:Generated_Source\PSoC4/Button_Reg.c **** *******************************************************************************/
 126:Generated_Source\PSoC4/Button_Reg.c **** uint8 Button_Reg_ReadMask(void) 
 127:Generated_Source\PSoC4/Button_Reg.c **** {
ARM GAS  C:\Users\gjl\AppData\Local\Temp\ccYvuRZj.s 			page 7


 216              		.loc 1 127 0
 217              		.cfi_startproc
 218              		@ args = 0, pretend = 0, frame = 0
 219              		@ frame_needed = 1, uses_anonymous_args = 0
 220 0000 80B5     		push	{r7, lr}
 221              		.cfi_def_cfa_offset 8
 222              		.cfi_offset 7, -8
 223              		.cfi_offset 14, -4
 224 0002 00AF     		add	r7, sp, #0
 225              		.cfi_def_cfa_register 7
 128:Generated_Source\PSoC4/Button_Reg.c ****     return Button_Reg_Status_Mask;
 226              		.loc 1 128 0
 227 0004 024B     		ldr	r3, .L16
 228 0006 1B78     		ldrb	r3, [r3]
 229 0008 DBB2     		uxtb	r3, r3
 129:Generated_Source\PSoC4/Button_Reg.c **** }
 230              		.loc 1 129 0
 231 000a 1800     		movs	r0, r3
 232 000c BD46     		mov	sp, r7
 233              		@ sp needed
 234 000e 80BD     		pop	{r7, pc}
 235              	.L17:
 236              		.align	2
 237              	.L16:
 238 0010 82000F40 		.word	1074724994
 239              		.cfi_endproc
 240              	.LFE4:
 241              		.size	Button_Reg_ReadMask, .-Button_Reg_ReadMask
 242              		.text
 243              	.Letext0:
 244              		.file 2 "Generated_Source\\PSoC4\\cytypes.h"