ARM GAS  C:\Users\gjl\AppData\Local\Temp\cczpiFjR.s 			page 1


   1              		.syntax unified
   2              		.cpu cortex-m0
   3              		.fpu softvfp
   4              		.eabi_attribute 20, 1
   5              		.eabi_attribute 21, 1
   6              		.eabi_attribute 23, 3
   7              		.eabi_attribute 24, 1
   8              		.eabi_attribute 25, 1
   9              		.eabi_attribute 26, 1
  10              		.eabi_attribute 30, 6
  11              		.eabi_attribute 34, 0
  12              		.eabi_attribute 18, 4
  13              		.thumb
  14              		.syntax unified
  15              		.file	"cyfitter_cfg.c"
  16              		.text
  17              	.Ltext0:
  18              		.cfi_sections	.debug_frame
  19              		.section	.text.CYMEMZERO,"ax",%progbits
  20              		.align	2
  21              		.code	16
  22              		.thumb_func
  23              		.type	CYMEMZERO, %function
  24              	CYMEMZERO:
  25              	.LFB0:
  26              		.file 1 "Generated_Source\\PSoC4\\cyfitter_cfg.c"
   1:Generated_Source\PSoC4/cyfitter_cfg.c **** 
   2:Generated_Source\PSoC4/cyfitter_cfg.c **** /*******************************************************************************
   3:Generated_Source\PSoC4/cyfitter_cfg.c **** * File Name: cyfitter_cfg.c
   4:Generated_Source\PSoC4/cyfitter_cfg.c **** * 
   5:Generated_Source\PSoC4/cyfitter_cfg.c **** * PSoC Creator  4.2
   6:Generated_Source\PSoC4/cyfitter_cfg.c **** *
   7:Generated_Source\PSoC4/cyfitter_cfg.c **** * Description:
   8:Generated_Source\PSoC4/cyfitter_cfg.c **** * This file contains device initialization code.
   9:Generated_Source\PSoC4/cyfitter_cfg.c **** * Except for the user defined sections in CyClockStartupError(), this file should not be modified.
  10:Generated_Source\PSoC4/cyfitter_cfg.c **** * This file is automatically generated by PSoC Creator.
  11:Generated_Source\PSoC4/cyfitter_cfg.c **** *
  12:Generated_Source\PSoC4/cyfitter_cfg.c **** ********************************************************************************
  13:Generated_Source\PSoC4/cyfitter_cfg.c **** * Copyright (c) 2007-2018 Cypress Semiconductor.  All rights reserved.
  14:Generated_Source\PSoC4/cyfitter_cfg.c **** * You may use this file only in accordance with the license, terms, conditions, 
  15:Generated_Source\PSoC4/cyfitter_cfg.c **** * disclaimers, and limitations in the end user license agreement accompanying 
  16:Generated_Source\PSoC4/cyfitter_cfg.c **** * the software package with which this file was provided.
  17:Generated_Source\PSoC4/cyfitter_cfg.c **** ********************************************************************************/
  18:Generated_Source\PSoC4/cyfitter_cfg.c **** 
  19:Generated_Source\PSoC4/cyfitter_cfg.c **** #include <string.h>
  20:Generated_Source\PSoC4/cyfitter_cfg.c **** #include "cytypes.h"
  21:Generated_Source\PSoC4/cyfitter_cfg.c **** #include "cydevice_trm.h"
  22:Generated_Source\PSoC4/cyfitter_cfg.c **** #include "cyfitter.h"
  23:Generated_Source\PSoC4/cyfitter_cfg.c **** #include "CyLib.h"
  24:Generated_Source\PSoC4/cyfitter_cfg.c **** #include "cyfitter_cfg.h"
  25:Generated_Source\PSoC4/cyfitter_cfg.c **** 
  26:Generated_Source\PSoC4/cyfitter_cfg.c **** 
  27:Generated_Source\PSoC4/cyfitter_cfg.c **** #if defined(__GNUC__) || defined(__ARMCC_VERSION)
  28:Generated_Source\PSoC4/cyfitter_cfg.c ****     #define CYPACKED 
  29:Generated_Source\PSoC4/cyfitter_cfg.c ****     #define CYPACKED_ATTR __attribute__ ((packed))
  30:Generated_Source\PSoC4/cyfitter_cfg.c ****     #define CYALIGNED __attribute__ ((aligned))
  31:Generated_Source\PSoC4/cyfitter_cfg.c ****     #define CY_CFG_UNUSED __attribute__ ((unused))
ARM GAS  C:\Users\gjl\AppData\Local\Temp\cczpiFjR.s 			page 2


  32:Generated_Source\PSoC4/cyfitter_cfg.c ****     #ifndef CY_CFG_SECTION
  33:Generated_Source\PSoC4/cyfitter_cfg.c ****         #define CY_CFG_SECTION __attribute__ ((section(".psocinit")))
  34:Generated_Source\PSoC4/cyfitter_cfg.c ****     #endif
  35:Generated_Source\PSoC4/cyfitter_cfg.c ****     
  36:Generated_Source\PSoC4/cyfitter_cfg.c ****     #if defined(__ARMCC_VERSION)
  37:Generated_Source\PSoC4/cyfitter_cfg.c ****         #define CY_CFG_MEMORY_BARRIER() __memory_changed()
  38:Generated_Source\PSoC4/cyfitter_cfg.c ****     #else
  39:Generated_Source\PSoC4/cyfitter_cfg.c ****         #define CY_CFG_MEMORY_BARRIER() __sync_synchronize()
  40:Generated_Source\PSoC4/cyfitter_cfg.c ****     #endif
  41:Generated_Source\PSoC4/cyfitter_cfg.c ****     
  42:Generated_Source\PSoC4/cyfitter_cfg.c **** #elif defined(__ICCARM__)
  43:Generated_Source\PSoC4/cyfitter_cfg.c ****     #include <intrinsics.h>
  44:Generated_Source\PSoC4/cyfitter_cfg.c **** 
  45:Generated_Source\PSoC4/cyfitter_cfg.c ****     #define CYPACKED __packed
  46:Generated_Source\PSoC4/cyfitter_cfg.c ****     #define CYPACKED_ATTR 
  47:Generated_Source\PSoC4/cyfitter_cfg.c ****     #define CYALIGNED _Pragma("data_alignment=4")
  48:Generated_Source\PSoC4/cyfitter_cfg.c ****     #define CY_CFG_UNUSED _Pragma("diag_suppress=Pe177")
  49:Generated_Source\PSoC4/cyfitter_cfg.c ****     #define CY_CFG_SECTION _Pragma("location=\".psocinit\"")
  50:Generated_Source\PSoC4/cyfitter_cfg.c ****     
  51:Generated_Source\PSoC4/cyfitter_cfg.c ****     #define CY_CFG_MEMORY_BARRIER() __DMB()
  52:Generated_Source\PSoC4/cyfitter_cfg.c ****     
  53:Generated_Source\PSoC4/cyfitter_cfg.c **** #else
  54:Generated_Source\PSoC4/cyfitter_cfg.c ****     #error Unsupported toolchain
  55:Generated_Source\PSoC4/cyfitter_cfg.c **** #endif
  56:Generated_Source\PSoC4/cyfitter_cfg.c **** 
  57:Generated_Source\PSoC4/cyfitter_cfg.c **** #ifndef CYCODE
  58:Generated_Source\PSoC4/cyfitter_cfg.c ****     #define CYCODE
  59:Generated_Source\PSoC4/cyfitter_cfg.c **** #endif
  60:Generated_Source\PSoC4/cyfitter_cfg.c **** #ifndef CYDATA
  61:Generated_Source\PSoC4/cyfitter_cfg.c ****     #define CYDATA
  62:Generated_Source\PSoC4/cyfitter_cfg.c **** #endif
  63:Generated_Source\PSoC4/cyfitter_cfg.c **** #ifndef CYFAR
  64:Generated_Source\PSoC4/cyfitter_cfg.c ****     #define CYFAR
  65:Generated_Source\PSoC4/cyfitter_cfg.c **** #endif
  66:Generated_Source\PSoC4/cyfitter_cfg.c **** #ifndef CYXDATA
  67:Generated_Source\PSoC4/cyfitter_cfg.c ****     #define CYXDATA
  68:Generated_Source\PSoC4/cyfitter_cfg.c **** #endif
  69:Generated_Source\PSoC4/cyfitter_cfg.c **** 
  70:Generated_Source\PSoC4/cyfitter_cfg.c **** 
  71:Generated_Source\PSoC4/cyfitter_cfg.c **** CY_CFG_UNUSED
  72:Generated_Source\PSoC4/cyfitter_cfg.c **** static void CYMEMZERO(void *s, size_t n);
  73:Generated_Source\PSoC4/cyfitter_cfg.c **** CY_CFG_UNUSED
  74:Generated_Source\PSoC4/cyfitter_cfg.c **** static void CYMEMZERO(void *s, size_t n)
  75:Generated_Source\PSoC4/cyfitter_cfg.c **** {
  27              		.loc 1 75 0
  28              		.cfi_startproc
  29              		@ args = 0, pretend = 0, frame = 8
  30              		@ frame_needed = 1, uses_anonymous_args = 0
  31 0000 80B5     		push	{r7, lr}
  32              		.cfi_def_cfa_offset 8
  33              		.cfi_offset 7, -8
  34              		.cfi_offset 14, -4
  35 0002 82B0     		sub	sp, sp, #8
  36              		.cfi_def_cfa_offset 16
  37 0004 00AF     		add	r7, sp, #0
  38              		.cfi_def_cfa_register 7
  39 0006 7860     		str	r0, [r7, #4]
ARM GAS  C:\Users\gjl\AppData\Local\Temp\cczpiFjR.s 			page 3


  40 0008 3960     		str	r1, [r7]
  76:Generated_Source\PSoC4/cyfitter_cfg.c **** 	(void)memset(s, 0, n);
  41              		.loc 1 76 0
  42 000a 3A68     		ldr	r2, [r7]
  43 000c 7B68     		ldr	r3, [r7, #4]
  44 000e 0021     		movs	r1, #0
  45 0010 1800     		movs	r0, r3
  46 0012 FFF7FEFF 		bl	memset
  77:Generated_Source\PSoC4/cyfitter_cfg.c **** }
  47              		.loc 1 77 0
  48 0016 C046     		nop
  49 0018 BD46     		mov	sp, r7
  50 001a 02B0     		add	sp, sp, #8
  51              		@ sp needed
  52 001c 80BD     		pop	{r7, pc}
  53              		.cfi_endproc
  54              	.LFE0:
  55              		.size	CYMEMZERO, .-CYMEMZERO
  56 001e C046     		.section	.text.CYCONFIGCPY,"ax",%progbits
  57              		.align	2
  58              		.code	16
  59              		.thumb_func
  60              		.type	CYCONFIGCPY, %function
  61              	CYCONFIGCPY:
  62              	.LFB1:
  78:Generated_Source\PSoC4/cyfitter_cfg.c **** CY_CFG_UNUSED
  79:Generated_Source\PSoC4/cyfitter_cfg.c **** static void CYCONFIGCPY(void *dest, const void *src, size_t n);
  80:Generated_Source\PSoC4/cyfitter_cfg.c **** CY_CFG_UNUSED
  81:Generated_Source\PSoC4/cyfitter_cfg.c **** static void CYCONFIGCPY(void *dest, const void *src, size_t n)
  82:Generated_Source\PSoC4/cyfitter_cfg.c **** {
  63              		.loc 1 82 0
  64              		.cfi_startproc
  65              		@ args = 0, pretend = 0, frame = 16
  66              		@ frame_needed = 1, uses_anonymous_args = 0
  67 0000 80B5     		push	{r7, lr}
  68              		.cfi_def_cfa_offset 8
  69              		.cfi_offset 7, -8
  70              		.cfi_offset 14, -4
  71 0002 84B0     		sub	sp, sp, #16
  72              		.cfi_def_cfa_offset 24
  73 0004 00AF     		add	r7, sp, #0
  74              		.cfi_def_cfa_register 7
  75 0006 F860     		str	r0, [r7, #12]
  76 0008 B960     		str	r1, [r7, #8]
  77 000a 7A60     		str	r2, [r7, #4]
  83:Generated_Source\PSoC4/cyfitter_cfg.c **** 	(void)memcpy(dest, src, n);
  78              		.loc 1 83 0
  79 000c 7A68     		ldr	r2, [r7, #4]
  80 000e B968     		ldr	r1, [r7, #8]
  81 0010 FB68     		ldr	r3, [r7, #12]
  82 0012 1800     		movs	r0, r3
  83 0014 FFF7FEFF 		bl	memcpy
  84:Generated_Source\PSoC4/cyfitter_cfg.c **** }
  84              		.loc 1 84 0
  85 0018 C046     		nop
  86 001a BD46     		mov	sp, r7
  87 001c 04B0     		add	sp, sp, #16
ARM GAS  C:\Users\gjl\AppData\Local\Temp\cczpiFjR.s 			page 4


  88              		@ sp needed
  89 001e 80BD     		pop	{r7, pc}
  90              		.cfi_endproc
  91              	.LFE1:
  92              		.size	CYCONFIGCPY, .-CYCONFIGCPY
  93              		.section	.text.CYCONFIGCPYCODE,"ax",%progbits
  94              		.align	2
  95              		.code	16
  96              		.thumb_func
  97              		.type	CYCONFIGCPYCODE, %function
  98              	CYCONFIGCPYCODE:
  99              	.LFB2:
  85:Generated_Source\PSoC4/cyfitter_cfg.c **** CY_CFG_UNUSED
  86:Generated_Source\PSoC4/cyfitter_cfg.c **** static void CYCONFIGCPYCODE(void *dest, const void *src, size_t n);
  87:Generated_Source\PSoC4/cyfitter_cfg.c **** CY_CFG_UNUSED
  88:Generated_Source\PSoC4/cyfitter_cfg.c **** static void CYCONFIGCPYCODE(void *dest, const void *src, size_t n)
  89:Generated_Source\PSoC4/cyfitter_cfg.c **** {
 100              		.loc 1 89 0
 101              		.cfi_startproc
 102              		@ args = 0, pretend = 0, frame = 16
 103              		@ frame_needed = 1, uses_anonymous_args = 0
 104 0000 80B5     		push	{r7, lr}
 105              		.cfi_def_cfa_offset 8
 106              		.cfi_offset 7, -8
 107              		.cfi_offset 14, -4
 108 0002 84B0     		sub	sp, sp, #16
 109              		.cfi_def_cfa_offset 24
 110 0004 00AF     		add	r7, sp, #0
 111              		.cfi_def_cfa_register 7
 112 0006 F860     		str	r0, [r7, #12]
 113 0008 B960     		str	r1, [r7, #8]
 114 000a 7A60     		str	r2, [r7, #4]
  90:Generated_Source\PSoC4/cyfitter_cfg.c **** 	(void)memcpy(dest, src, n);
 115              		.loc 1 90 0
 116 000c 7A68     		ldr	r2, [r7, #4]
 117 000e B968     		ldr	r1, [r7, #8]
 118 0010 FB68     		ldr	r3, [r7, #12]
 119 0012 1800     		movs	r0, r3
 120 0014 FFF7FEFF 		bl	memcpy
  91:Generated_Source\PSoC4/cyfitter_cfg.c **** }
 121              		.loc 1 91 0
 122 0018 C046     		nop
 123 001a BD46     		mov	sp, r7
 124 001c 04B0     		add	sp, sp, #16
 125              		@ sp needed
 126 001e 80BD     		pop	{r7, pc}
 127              		.cfi_endproc
 128              	.LFE2:
 129              		.size	CYCONFIGCPYCODE, .-CYCONFIGCPYCODE
 130              		.section	.text.cfg_write_bytes32,"ax",%progbits
 131              		.align	2
 132              		.code	16
 133              		.thumb_func
 134              		.type	cfg_write_bytes32, %function
 135              	cfg_write_bytes32:
 136              	.LFB3:
  92:Generated_Source\PSoC4/cyfitter_cfg.c **** 
ARM GAS  C:\Users\gjl\AppData\Local\Temp\cczpiFjR.s 			page 5


  93:Generated_Source\PSoC4/cyfitter_cfg.c **** 
  94:Generated_Source\PSoC4/cyfitter_cfg.c **** 
  95:Generated_Source\PSoC4/cyfitter_cfg.c **** 
  96:Generated_Source\PSoC4/cyfitter_cfg.c **** /* Clock startup error codes                                                   */
  97:Generated_Source\PSoC4/cyfitter_cfg.c **** #define CYCLOCKSTART_NO_ERROR    0u
  98:Generated_Source\PSoC4/cyfitter_cfg.c **** #define CYCLOCKSTART_XTAL_ERROR  1u
  99:Generated_Source\PSoC4/cyfitter_cfg.c **** #define CYCLOCKSTART_32KHZ_ERROR 2u
 100:Generated_Source\PSoC4/cyfitter_cfg.c **** #define CYCLOCKSTART_PLL_ERROR   3u
 101:Generated_Source\PSoC4/cyfitter_cfg.c **** #define CYCLOCKSTART_FLL_ERROR   4u
 102:Generated_Source\PSoC4/cyfitter_cfg.c **** #define CYCLOCKSTART_WCO_ERROR   5u
 103:Generated_Source\PSoC4/cyfitter_cfg.c **** 
 104:Generated_Source\PSoC4/cyfitter_cfg.c **** 
 105:Generated_Source\PSoC4/cyfitter_cfg.c **** #ifdef CY_NEED_CYCLOCKSTARTUPERROR
 106:Generated_Source\PSoC4/cyfitter_cfg.c **** /*******************************************************************************
 107:Generated_Source\PSoC4/cyfitter_cfg.c **** * Function Name: CyClockStartupError
 108:Generated_Source\PSoC4/cyfitter_cfg.c **** ********************************************************************************
 109:Generated_Source\PSoC4/cyfitter_cfg.c **** * Summary:
 110:Generated_Source\PSoC4/cyfitter_cfg.c **** *  If an error is encountered during clock configuration (crystal startup error,
 111:Generated_Source\PSoC4/cyfitter_cfg.c **** *  PLL lock error, etc.), the system will end up here.  Unless reimplemented by
 112:Generated_Source\PSoC4/cyfitter_cfg.c **** *  the customer, this function will stop in an infinite loop.
 113:Generated_Source\PSoC4/cyfitter_cfg.c **** *
 114:Generated_Source\PSoC4/cyfitter_cfg.c **** * Parameters:
 115:Generated_Source\PSoC4/cyfitter_cfg.c **** *   void
 116:Generated_Source\PSoC4/cyfitter_cfg.c **** *
 117:Generated_Source\PSoC4/cyfitter_cfg.c **** * Return:
 118:Generated_Source\PSoC4/cyfitter_cfg.c **** *   void
 119:Generated_Source\PSoC4/cyfitter_cfg.c **** *
 120:Generated_Source\PSoC4/cyfitter_cfg.c **** *******************************************************************************/
 121:Generated_Source\PSoC4/cyfitter_cfg.c **** CY_CFG_UNUSED
 122:Generated_Source\PSoC4/cyfitter_cfg.c **** static void CyClockStartupError(uint8 errorCode);
 123:Generated_Source\PSoC4/cyfitter_cfg.c **** CY_CFG_UNUSED
 124:Generated_Source\PSoC4/cyfitter_cfg.c **** static void CyClockStartupError(uint8 errorCode)
 125:Generated_Source\PSoC4/cyfitter_cfg.c **** {
 126:Generated_Source\PSoC4/cyfitter_cfg.c ****     /* To remove the compiler warning if errorCode not used.                */
 127:Generated_Source\PSoC4/cyfitter_cfg.c ****     errorCode = errorCode;
 128:Generated_Source\PSoC4/cyfitter_cfg.c **** 
 129:Generated_Source\PSoC4/cyfitter_cfg.c ****     /* If we have a clock startup error (bad MHz crystal, PLL lock, etc.),  */
 130:Generated_Source\PSoC4/cyfitter_cfg.c ****     /* we will end up here to allow the customer to implement something to  */
 131:Generated_Source\PSoC4/cyfitter_cfg.c ****     /* deal with the clock condition.                                       */
 132:Generated_Source\PSoC4/cyfitter_cfg.c **** 
 133:Generated_Source\PSoC4/cyfitter_cfg.c **** #ifdef CY_CFG_CLOCK_STARTUP_ERROR_CALLBACK
 134:Generated_Source\PSoC4/cyfitter_cfg.c ****     CY_CFG_Clock_Startup_ErrorCallback();
 135:Generated_Source\PSoC4/cyfitter_cfg.c **** #else
 136:Generated_Source\PSoC4/cyfitter_cfg.c ****     /*  If not using CY_CFG_CLOCK_STARTUP_ERROR_CALLBACK, place your clock startup code here. */
 137:Generated_Source\PSoC4/cyfitter_cfg.c ****     /* `#START CyClockStartupError` */
 138:Generated_Source\PSoC4/cyfitter_cfg.c **** 
 139:Generated_Source\PSoC4/cyfitter_cfg.c ****     /* If we have a clock startup error (bad MHz crystal, PLL lock, etc.),  */
 140:Generated_Source\PSoC4/cyfitter_cfg.c ****     /* we will end up here to allow the customer to implement something to  */
 141:Generated_Source\PSoC4/cyfitter_cfg.c ****     /* deal with the clock condition.                                       */
 142:Generated_Source\PSoC4/cyfitter_cfg.c **** 
 143:Generated_Source\PSoC4/cyfitter_cfg.c ****     /* `#END` */
 144:Generated_Source\PSoC4/cyfitter_cfg.c **** 
 145:Generated_Source\PSoC4/cyfitter_cfg.c ****     while(1) {}
 146:Generated_Source\PSoC4/cyfitter_cfg.c **** #endif /* CY_CFG_CLOCK_STARTUP_ERROR_CALLBACK */
 147:Generated_Source\PSoC4/cyfitter_cfg.c **** }
 148:Generated_Source\PSoC4/cyfitter_cfg.c **** #endif
 149:Generated_Source\PSoC4/cyfitter_cfg.c **** 
ARM GAS  C:\Users\gjl\AppData\Local\Temp\cczpiFjR.s 			page 6


 150:Generated_Source\PSoC4/cyfitter_cfg.c **** #define CY_CFG_BASE_ADDR_COUNT 9u
 151:Generated_Source\PSoC4/cyfitter_cfg.c **** CYPACKED typedef struct
 152:Generated_Source\PSoC4/cyfitter_cfg.c **** {
 153:Generated_Source\PSoC4/cyfitter_cfg.c **** 	uint8 offset;
 154:Generated_Source\PSoC4/cyfitter_cfg.c **** 	uint8 value;
 155:Generated_Source\PSoC4/cyfitter_cfg.c **** } CYPACKED_ATTR cy_cfg_addrvalue_t;
 156:Generated_Source\PSoC4/cyfitter_cfg.c **** 
 157:Generated_Source\PSoC4/cyfitter_cfg.c **** 
 158:Generated_Source\PSoC4/cyfitter_cfg.c **** 
 159:Generated_Source\PSoC4/cyfitter_cfg.c **** /*******************************************************************************
 160:Generated_Source\PSoC4/cyfitter_cfg.c **** * Function Name: cfg_write_bytes32
 161:Generated_Source\PSoC4/cyfitter_cfg.c **** ********************************************************************************
 162:Generated_Source\PSoC4/cyfitter_cfg.c **** * Summary:
 163:Generated_Source\PSoC4/cyfitter_cfg.c **** *  This function is used for setting up the chip configuration areas that
 164:Generated_Source\PSoC4/cyfitter_cfg.c **** *  contain relatively sparse data.
 165:Generated_Source\PSoC4/cyfitter_cfg.c **** *
 166:Generated_Source\PSoC4/cyfitter_cfg.c **** * Parameters:
 167:Generated_Source\PSoC4/cyfitter_cfg.c **** *   void
 168:Generated_Source\PSoC4/cyfitter_cfg.c **** *
 169:Generated_Source\PSoC4/cyfitter_cfg.c **** * Return:
 170:Generated_Source\PSoC4/cyfitter_cfg.c **** *   void
 171:Generated_Source\PSoC4/cyfitter_cfg.c **** *
 172:Generated_Source\PSoC4/cyfitter_cfg.c **** *******************************************************************************/
 173:Generated_Source\PSoC4/cyfitter_cfg.c **** static void cfg_write_bytes32(const uint32 addr_table[], const cy_cfg_addrvalue_t data_table[]);
 174:Generated_Source\PSoC4/cyfitter_cfg.c **** static void cfg_write_bytes32(const uint32 addr_table[], const cy_cfg_addrvalue_t data_table[])
 175:Generated_Source\PSoC4/cyfitter_cfg.c **** {
 137              		.loc 1 175 0
 138              		.cfi_startproc
 139              		@ args = 0, pretend = 0, frame = 24
 140              		@ frame_needed = 1, uses_anonymous_args = 0
 141 0000 80B5     		push	{r7, lr}
 142              		.cfi_def_cfa_offset 8
 143              		.cfi_offset 7, -8
 144              		.cfi_offset 14, -4
 145 0002 86B0     		sub	sp, sp, #24
 146              		.cfi_def_cfa_offset 32
 147 0004 00AF     		add	r7, sp, #0
 148              		.cfi_def_cfa_register 7
 149 0006 7860     		str	r0, [r7, #4]
 150 0008 3960     		str	r1, [r7]
 176:Generated_Source\PSoC4/cyfitter_cfg.c **** 	/* For 32-bit little-endian architectures */
 177:Generated_Source\PSoC4/cyfitter_cfg.c **** 	uint32 i, j = 0u;
 151              		.loc 1 177 0
 152 000a 0023     		movs	r3, #0
 153 000c 3B61     		str	r3, [r7, #16]
 178:Generated_Source\PSoC4/cyfitter_cfg.c **** 	for (i = 0u; i < CY_CFG_BASE_ADDR_COUNT; i++)
 154              		.loc 1 178 0
 155 000e 0023     		movs	r3, #0
 156 0010 7B61     		str	r3, [r7, #20]
 157 0012 2FE0     		b	.L5
 158              	.L8:
 159              	.LBB2:
 179:Generated_Source\PSoC4/cyfitter_cfg.c **** 	{
 180:Generated_Source\PSoC4/cyfitter_cfg.c **** 		uint32 baseAddr = addr_table[i];
 160              		.loc 1 180 0
 161 0014 7B69     		ldr	r3, [r7, #20]
 162 0016 9B00     		lsls	r3, r3, #2
ARM GAS  C:\Users\gjl\AppData\Local\Temp\cczpiFjR.s 			page 7


 163 0018 7A68     		ldr	r2, [r7, #4]
 164 001a D318     		adds	r3, r2, r3
 165 001c 1B68     		ldr	r3, [r3]
 166 001e BB60     		str	r3, [r7, #8]
 181:Generated_Source\PSoC4/cyfitter_cfg.c **** 		uint8 count = (uint8)baseAddr;
 167              		.loc 1 181 0
 168 0020 0F23     		movs	r3, #15
 169 0022 FB18     		adds	r3, r7, r3
 170 0024 BA68     		ldr	r2, [r7, #8]
 171 0026 1A70     		strb	r2, [r3]
 182:Generated_Source\PSoC4/cyfitter_cfg.c **** 		baseAddr &= 0xFFFFFF00u;
 172              		.loc 1 182 0
 173 0028 BB68     		ldr	r3, [r7, #8]
 174 002a FF22     		movs	r2, #255
 175 002c 9343     		bics	r3, r2
 176 002e BB60     		str	r3, [r7, #8]
 183:Generated_Source\PSoC4/cyfitter_cfg.c **** 		while (count != 0u)
 177              		.loc 1 183 0
 178 0030 18E0     		b	.L6
 179              	.L7:
 184:Generated_Source\PSoC4/cyfitter_cfg.c **** 		{
 185:Generated_Source\PSoC4/cyfitter_cfg.c **** 			CY_SET_REG8((void *)(baseAddr + data_table[j].offset), data_table[j].value);
 180              		.loc 1 185 0
 181 0032 3B69     		ldr	r3, [r7, #16]
 182 0034 5B00     		lsls	r3, r3, #1
 183 0036 3A68     		ldr	r2, [r7]
 184 0038 D318     		adds	r3, r2, r3
 185 003a 1B78     		ldrb	r3, [r3]
 186 003c 1A00     		movs	r2, r3
 187 003e BB68     		ldr	r3, [r7, #8]
 188 0040 D318     		adds	r3, r2, r3
 189 0042 1900     		movs	r1, r3
 190 0044 3B69     		ldr	r3, [r7, #16]
 191 0046 5B00     		lsls	r3, r3, #1
 192 0048 3A68     		ldr	r2, [r7]
 193 004a D318     		adds	r3, r2, r3
 194 004c 5B78     		ldrb	r3, [r3, #1]
 195 004e 0B70     		strb	r3, [r1]
 186:Generated_Source\PSoC4/cyfitter_cfg.c **** 			j++;
 196              		.loc 1 186 0
 197 0050 3B69     		ldr	r3, [r7, #16]
 198 0052 0133     		adds	r3, r3, #1
 199 0054 3B61     		str	r3, [r7, #16]
 187:Generated_Source\PSoC4/cyfitter_cfg.c **** 			count--;
 200              		.loc 1 187 0
 201 0056 0F23     		movs	r3, #15
 202 0058 FB18     		adds	r3, r7, r3
 203 005a 1A78     		ldrb	r2, [r3]
 204 005c 0F23     		movs	r3, #15
 205 005e FB18     		adds	r3, r7, r3
 206 0060 013A     		subs	r2, r2, #1
 207 0062 1A70     		strb	r2, [r3]
 208              	.L6:
 183:Generated_Source\PSoC4/cyfitter_cfg.c **** 		{
 209              		.loc 1 183 0
 210 0064 0F23     		movs	r3, #15
 211 0066 FB18     		adds	r3, r7, r3
ARM GAS  C:\Users\gjl\AppData\Local\Temp\cczpiFjR.s 			page 8


 212 0068 1B78     		ldrb	r3, [r3]
 213 006a 002B     		cmp	r3, #0
 214 006c E1D1     		bne	.L7
 215              	.LBE2:
 178:Generated_Source\PSoC4/cyfitter_cfg.c **** 	{
 216              		.loc 1 178 0 discriminator 2
 217 006e 7B69     		ldr	r3, [r7, #20]
 218 0070 0133     		adds	r3, r3, #1
 219 0072 7B61     		str	r3, [r7, #20]
 220              	.L5:
 178:Generated_Source\PSoC4/cyfitter_cfg.c **** 	{
 221              		.loc 1 178 0 is_stmt 0 discriminator 1
 222 0074 7B69     		ldr	r3, [r7, #20]
 223 0076 082B     		cmp	r3, #8
 224 0078 CCD9     		bls	.L8
 188:Generated_Source\PSoC4/cyfitter_cfg.c **** 		}
 189:Generated_Source\PSoC4/cyfitter_cfg.c **** 	}
 190:Generated_Source\PSoC4/cyfitter_cfg.c **** }
 225              		.loc 1 190 0 is_stmt 1
 226 007a C046     		nop
 227 007c BD46     		mov	sp, r7
 228 007e 06B0     		add	sp, sp, #24
 229              		@ sp needed
 230 0080 80BD     		pop	{r7, pc}
 231              		.cfi_endproc
 232              	.LFE3:
 233              		.size	cfg_write_bytes32, .-cfg_write_bytes32
 234 0082 C046     		.section	.psocinit,"ax",%progbits
 235              		.align	2
 236              		.code	16
 237              		.thumb_func
 238              		.type	ClockSetup, %function
 239              	ClockSetup:
 240              	.LFB4:
 191:Generated_Source\PSoC4/cyfitter_cfg.c **** 
 192:Generated_Source\PSoC4/cyfitter_cfg.c **** 
 193:Generated_Source\PSoC4/cyfitter_cfg.c **** /*******************************************************************************
 194:Generated_Source\PSoC4/cyfitter_cfg.c **** * Function Name: ClockSetup
 195:Generated_Source\PSoC4/cyfitter_cfg.c **** ********************************************************************************
 196:Generated_Source\PSoC4/cyfitter_cfg.c **** *
 197:Generated_Source\PSoC4/cyfitter_cfg.c **** * Summary:
 198:Generated_Source\PSoC4/cyfitter_cfg.c **** *   Performs the initialization of all of the clocks in the device based on the
 199:Generated_Source\PSoC4/cyfitter_cfg.c **** *   settings in the Clock tab of the DWR.  This includes enabling the requested
 200:Generated_Source\PSoC4/cyfitter_cfg.c **** *   clocks and setting the necessary dividers to produce the desired frequency. 
 201:Generated_Source\PSoC4/cyfitter_cfg.c **** *
 202:Generated_Source\PSoC4/cyfitter_cfg.c **** * Parameters:
 203:Generated_Source\PSoC4/cyfitter_cfg.c **** *   void
 204:Generated_Source\PSoC4/cyfitter_cfg.c **** *
 205:Generated_Source\PSoC4/cyfitter_cfg.c **** * Return:
 206:Generated_Source\PSoC4/cyfitter_cfg.c **** *   void
 207:Generated_Source\PSoC4/cyfitter_cfg.c **** *
 208:Generated_Source\PSoC4/cyfitter_cfg.c **** *******************************************************************************/
 209:Generated_Source\PSoC4/cyfitter_cfg.c **** static void ClockSetup(void);
 210:Generated_Source\PSoC4/cyfitter_cfg.c **** CY_CFG_SECTION
 211:Generated_Source\PSoC4/cyfitter_cfg.c **** static void ClockSetup(void)
 212:Generated_Source\PSoC4/cyfitter_cfg.c **** {
 241              		.loc 1 212 0
ARM GAS  C:\Users\gjl\AppData\Local\Temp\cczpiFjR.s 			page 9


 242              		.cfi_startproc
 243              		@ args = 0, pretend = 0, frame = 0
 244              		@ frame_needed = 1, uses_anonymous_args = 0
 245 0000 80B5     		push	{r7, lr}
 246              		.cfi_def_cfa_offset 8
 247              		.cfi_offset 7, -8
 248              		.cfi_offset 14, -4
 249 0002 00AF     		add	r7, sp, #0
 250              		.cfi_def_cfa_register 7
 213:Generated_Source\PSoC4/cyfitter_cfg.c **** 	/* Enable HALF_EN before trimming for the flash accelerator. */
 214:Generated_Source\PSoC4/cyfitter_cfg.c **** 	CY_SET_REG32((void CYXDATA *)(CYREG_CLK_SELECT), (CY_GET_REG32((void *)CYREG_CLK_SELECT) | 0x00040
 251              		.loc 1 214 0
 252 0004 214B     		ldr	r3, .L10
 253 0006 214A     		ldr	r2, .L10
 254 0008 1268     		ldr	r2, [r2]
 255 000a 8021     		movs	r1, #128
 256 000c C902     		lsls	r1, r1, #11
 257 000e 0A43     		orrs	r2, r1
 258 0010 1A60     		str	r2, [r3]
 215:Generated_Source\PSoC4/cyfitter_cfg.c **** 
 216:Generated_Source\PSoC4/cyfitter_cfg.c **** 	/* Setup and trim IMO based on desired frequency. */
 217:Generated_Source\PSoC4/cyfitter_cfg.c **** 	CySysClkWriteImoFreq(24u);
 259              		.loc 1 217 0
 260 0012 1820     		movs	r0, #24
 261 0014 FFF7FEFF 		bl	CySysClkWriteImoFreq
 218:Generated_Source\PSoC4/cyfitter_cfg.c **** 
 219:Generated_Source\PSoC4/cyfitter_cfg.c **** 	/* Disable HALF_EN since it is not required at this IMO frequency. */
 220:Generated_Source\PSoC4/cyfitter_cfg.c **** 	CY_SET_REG32((void CYXDATA *)(CYREG_CLK_SELECT), (CY_GET_REG32((void *)CYREG_CLK_SELECT) & 0xFFFBF
 262              		.loc 1 220 0
 263 0018 1C4B     		ldr	r3, .L10
 264 001a 1C4A     		ldr	r2, .L10
 265 001c 1268     		ldr	r2, [r2]
 266 001e 1C49     		ldr	r1, .L10+4
 267 0020 0A40     		ands	r2, r1
 268 0022 1A60     		str	r2, [r3]
 221:Generated_Source\PSoC4/cyfitter_cfg.c **** 	/* CYDEV_CLK_ILO_CONFIG Starting address: CYDEV_CLK_ILO_CONFIG */
 222:Generated_Source\PSoC4/cyfitter_cfg.c **** 	CY_SET_REG32((void *)(CYREG_CLK_ILO_CONFIG), 0x80000006u);
 269              		.loc 1 222 0
 270 0024 1B4B     		ldr	r3, .L10+8
 271 0026 1C4A     		ldr	r2, .L10+12
 272 0028 1A60     		str	r2, [r3]
 223:Generated_Source\PSoC4/cyfitter_cfg.c **** 
 224:Generated_Source\PSoC4/cyfitter_cfg.c **** 
 225:Generated_Source\PSoC4/cyfitter_cfg.c **** 	/* CYDEV_CLK_SELECT00 Starting address: CYDEV_CLK_SELECT00 */
 226:Generated_Source\PSoC4/cyfitter_cfg.c **** 	CY_SET_REG32((void *)(CYREG_CLK_SELECT03), 0x00000010u);
 273              		.loc 1 226 0
 274 002a 1C4B     		ldr	r3, .L10+16
 275 002c 1022     		movs	r2, #16
 276 002e 1A60     		str	r2, [r3]
 227:Generated_Source\PSoC4/cyfitter_cfg.c **** 	CY_SET_REG32((void *)(CYREG_CLK_SELECT07), 0x00000020u);
 277              		.loc 1 227 0
 278 0030 1B4B     		ldr	r3, .L10+20
 279 0032 2022     		movs	r2, #32
 280 0034 1A60     		str	r2, [r3]
 228:Generated_Source\PSoC4/cyfitter_cfg.c **** 	CY_SET_REG32((void *)(CYREG_CLK_SELECT08), 0x00000030u);
 281              		.loc 1 228 0
 282 0036 1B4B     		ldr	r3, .L10+24
ARM GAS  C:\Users\gjl\AppData\Local\Temp\cczpiFjR.s 			page 10


 283 0038 3022     		movs	r2, #48
 284 003a 1A60     		str	r2, [r3]
 229:Generated_Source\PSoC4/cyfitter_cfg.c **** 	CY_SET_REG32((void *)(CYREG_CLK_SELECT09), 0x00000011u);
 285              		.loc 1 229 0
 286 003c 1A4B     		ldr	r3, .L10+28
 287 003e 1122     		movs	r2, #17
 288 0040 1A60     		str	r2, [r3]
 230:Generated_Source\PSoC4/cyfitter_cfg.c **** 	CY_SET_REG32((void *)(CYREG_CLK_SELECT13), 0x00000011u);
 289              		.loc 1 230 0
 290 0042 1A4B     		ldr	r3, .L10+32
 291 0044 1122     		movs	r2, #17
 292 0046 1A60     		str	r2, [r3]
 231:Generated_Source\PSoC4/cyfitter_cfg.c **** 	CY_SET_REG32((void *)(CYREG_CLK_SELECT15), 0x00000031u);
 293              		.loc 1 231 0
 294 0048 194B     		ldr	r3, .L10+36
 295 004a 3122     		movs	r2, #49
 296 004c 1A60     		str	r2, [r3]
 232:Generated_Source\PSoC4/cyfitter_cfg.c **** 
 233:Generated_Source\PSoC4/cyfitter_cfg.c **** 	/* CYDEV_CLK_IMO_CONFIG Starting address: CYDEV_CLK_IMO_CONFIG */
 234:Generated_Source\PSoC4/cyfitter_cfg.c **** 	CY_SET_REG32((void *)(CYREG_CLK_IMO_CONFIG), 0x82000000u);
 297              		.loc 1 234 0
 298 004e 194B     		ldr	r3, .L10+40
 299 0050 8222     		movs	r2, #130
 300 0052 1206     		lsls	r2, r2, #24
 301 0054 1A60     		str	r2, [r3]
 235:Generated_Source\PSoC4/cyfitter_cfg.c **** 
 236:Generated_Source\PSoC4/cyfitter_cfg.c **** 	/* CYDEV_CLK_SELECT Starting address: CYDEV_CLK_SELECT */
 237:Generated_Source\PSoC4/cyfitter_cfg.c **** 	CY_SET_REG32((void *)(CYREG_CLK_SELECT), 0x00000000u);
 302              		.loc 1 237 0
 303 0056 0D4B     		ldr	r3, .L10
 304 0058 0022     		movs	r2, #0
 305 005a 1A60     		str	r2, [r3]
 238:Generated_Source\PSoC4/cyfitter_cfg.c **** 
 239:Generated_Source\PSoC4/cyfitter_cfg.c **** 	/* CYDEV_CLK_DIVIDER_A00 Starting address: CYDEV_CLK_DIVIDER_A00 */
 240:Generated_Source\PSoC4/cyfitter_cfg.c **** 	CY_SET_REG32((void *)(CYREG_CLK_DIVIDER_A00), 0x8000000Eu);
 306              		.loc 1 240 0
 307 005c 164B     		ldr	r3, .L10+44
 308 005e 174A     		ldr	r2, .L10+48
 309 0060 1A60     		str	r2, [r3]
 241:Generated_Source\PSoC4/cyfitter_cfg.c **** 
 242:Generated_Source\PSoC4/cyfitter_cfg.c **** 	/* CYDEV_CLK_DIVIDER_B00 Starting address: CYDEV_CLK_DIVIDER_B00 */
 243:Generated_Source\PSoC4/cyfitter_cfg.c **** 	CY_SET_REG32((void *)(CYREG_CLK_DIVIDER_B00), 0x80000010u);
 310              		.loc 1 243 0
 311 0062 174B     		ldr	r3, .L10+52
 312 0064 174A     		ldr	r2, .L10+56
 313 0066 1A60     		str	r2, [r3]
 244:Generated_Source\PSoC4/cyfitter_cfg.c **** 
 245:Generated_Source\PSoC4/cyfitter_cfg.c **** 	/* CYDEV_CLK_DIVIDER_C00 Starting address: CYDEV_CLK_DIVIDER_C00 */
 246:Generated_Source\PSoC4/cyfitter_cfg.c **** 	CY_SET_REG32((void *)(CYREG_CLK_DIVIDER_C00), 0x8000095Fu);
 314              		.loc 1 246 0
 315 0068 174B     		ldr	r3, .L10+60
 316 006a 184A     		ldr	r2, .L10+64
 317 006c 1A60     		str	r2, [r3]
 247:Generated_Source\PSoC4/cyfitter_cfg.c **** 
 248:Generated_Source\PSoC4/cyfitter_cfg.c **** 	/* CYDEV_CLK_DIVIDER_A01 Starting address: CYDEV_CLK_DIVIDER_A01 */
 249:Generated_Source\PSoC4/cyfitter_cfg.c **** 	CY_SET_REG32((void *)(CYREG_CLK_DIVIDER_A01), 0x80004B4Cu);
 318              		.loc 1 249 0
ARM GAS  C:\Users\gjl\AppData\Local\Temp\cczpiFjR.s 			page 11


 319 006e 184B     		ldr	r3, .L10+68
 320 0070 184A     		ldr	r2, .L10+72
 321 0072 1A60     		str	r2, [r3]
 250:Generated_Source\PSoC4/cyfitter_cfg.c **** 
 251:Generated_Source\PSoC4/cyfitter_cfg.c **** 	/* CYDEV_CLK_DIVIDER_B01 Starting address: CYDEV_CLK_DIVIDER_B01 */
 252:Generated_Source\PSoC4/cyfitter_cfg.c **** 	CY_SET_REG32((void *)(CYREG_CLK_DIVIDER_B01), 0x80000C34u);
 322              		.loc 1 252 0
 323 0074 184B     		ldr	r3, .L10+76
 324 0076 194A     		ldr	r2, .L10+80
 325 0078 1A60     		str	r2, [r3]
 253:Generated_Source\PSoC4/cyfitter_cfg.c **** 
 254:Generated_Source\PSoC4/cyfitter_cfg.c **** 	/* CYDEV_CLK_DIVIDER_C01 Starting address: CYDEV_CLK_DIVIDER_C01 */
 255:Generated_Source\PSoC4/cyfitter_cfg.c **** 	CY_SET_REG32((void *)(CYREG_CLK_DIVIDER_C01), 0xC00009FFu);
 326              		.loc 1 255 0
 327 007a 194B     		ldr	r3, .L10+84
 328 007c 194A     		ldr	r2, .L10+88
 329 007e 1A60     		str	r2, [r3]
 256:Generated_Source\PSoC4/cyfitter_cfg.c **** 
 257:Generated_Source\PSoC4/cyfitter_cfg.c **** 	CY_SET_REG32((void *)(CYREG_WDT_CONFIG), 0x00000000u);
 330              		.loc 1 257 0
 331 0080 194B     		ldr	r3, .L10+92
 332 0082 0022     		movs	r2, #0
 333 0084 1A60     		str	r2, [r3]
 258:Generated_Source\PSoC4/cyfitter_cfg.c **** }
 334              		.loc 1 258 0
 335 0086 C046     		nop
 336 0088 BD46     		mov	sp, r7
 337              		@ sp needed
 338 008a 80BD     		pop	{r7, pc}
 339              	.L11:
 340              		.align	2
 341              	.L10:
 342 008c 00010B40 		.word	1074462976
 343 0090 FFFFFBFF 		.word	-262145
 344 0094 04010B40 		.word	1074462980
 345 0098 06000080 		.word	-2147483642
 346 009c 0C020240 		.word	1073873420
 347 00a0 1C020240 		.word	1073873436
 348 00a4 20020240 		.word	1073873440
 349 00a8 24020240 		.word	1073873444
 350 00ac 34020240 		.word	1073873460
 351 00b0 3C020240 		.word	1073873468
 352 00b4 08010B40 		.word	1074462984
 353 00b8 00000240 		.word	1073872896
 354 00bc 0E000080 		.word	-2147483634
 355 00c0 40000240 		.word	1073872960
 356 00c4 10000080 		.word	-2147483632
 357 00c8 80000240 		.word	1073873024
 358 00cc 5F090080 		.word	-2147481249
 359 00d0 04000240 		.word	1073872900
 360 00d4 4C4B0080 		.word	-2147464372
 361 00d8 44000240 		.word	1073872964
 362 00dc 340C0080 		.word	-2147480524
 363 00e0 84000240 		.word	1073873028
 364 00e4 FF0900C0 		.word	-1073739265
 365 00e8 0C020B40 		.word	1074463244
 366              		.cfi_endproc
ARM GAS  C:\Users\gjl\AppData\Local\Temp\cczpiFjR.s 			page 12


 367              	.LFE4:
 368              		.size	ClockSetup, .-ClockSetup
 369              		.section	.text.AnalogSetDefault,"ax",%progbits
 370              		.align	2
 371              		.code	16
 372              		.thumb_func
 373              		.type	AnalogSetDefault, %function
 374              	AnalogSetDefault:
 375              	.LFB5:
 259:Generated_Source\PSoC4/cyfitter_cfg.c **** 
 260:Generated_Source\PSoC4/cyfitter_cfg.c **** 
 261:Generated_Source\PSoC4/cyfitter_cfg.c **** /* Analog API Functions */
 262:Generated_Source\PSoC4/cyfitter_cfg.c **** 
 263:Generated_Source\PSoC4/cyfitter_cfg.c **** 
 264:Generated_Source\PSoC4/cyfitter_cfg.c **** /*******************************************************************************
 265:Generated_Source\PSoC4/cyfitter_cfg.c **** * Function Name: AnalogSetDefault
 266:Generated_Source\PSoC4/cyfitter_cfg.c **** ********************************************************************************
 267:Generated_Source\PSoC4/cyfitter_cfg.c **** *
 268:Generated_Source\PSoC4/cyfitter_cfg.c **** * Summary:
 269:Generated_Source\PSoC4/cyfitter_cfg.c **** *  Sets up the analog portions of the chip to default values based on chip
 270:Generated_Source\PSoC4/cyfitter_cfg.c **** *  configuration options from the project.
 271:Generated_Source\PSoC4/cyfitter_cfg.c **** *
 272:Generated_Source\PSoC4/cyfitter_cfg.c **** * Parameters:
 273:Generated_Source\PSoC4/cyfitter_cfg.c **** *  void
 274:Generated_Source\PSoC4/cyfitter_cfg.c **** *
 275:Generated_Source\PSoC4/cyfitter_cfg.c **** * Return:
 276:Generated_Source\PSoC4/cyfitter_cfg.c **** *  void
 277:Generated_Source\PSoC4/cyfitter_cfg.c **** *
 278:Generated_Source\PSoC4/cyfitter_cfg.c **** *******************************************************************************/
 279:Generated_Source\PSoC4/cyfitter_cfg.c **** static void AnalogSetDefault(void);
 280:Generated_Source\PSoC4/cyfitter_cfg.c **** static void AnalogSetDefault(void)
 281:Generated_Source\PSoC4/cyfitter_cfg.c **** {
 376              		.loc 1 281 0
 377              		.cfi_startproc
 378              		@ args = 0, pretend = 0, frame = 0
 379              		@ frame_needed = 1, uses_anonymous_args = 0
 380 0000 80B5     		push	{r7, lr}
 381              		.cfi_def_cfa_offset 8
 382              		.cfi_offset 7, -8
 383              		.cfi_offset 14, -4
 384 0002 00AF     		add	r7, sp, #0
 385              		.cfi_def_cfa_register 7
 282:Generated_Source\PSoC4/cyfitter_cfg.c **** 	CY_SET_XTND_REG32((void CYFAR *)CYREG_SAR_MUX_SWITCH0, 0x00000001u);
 386              		.loc 1 282 0
 387 0004 044B     		ldr	r3, .L13
 388 0006 0122     		movs	r2, #1
 389 0008 1A60     		str	r2, [r3]
 283:Generated_Source\PSoC4/cyfitter_cfg.c **** 	SetAnalogRoutingPumps(1);
 390              		.loc 1 283 0
 391 000a 0120     		movs	r0, #1
 392 000c FFF7FEFF 		bl	SetAnalogRoutingPumps
 284:Generated_Source\PSoC4/cyfitter_cfg.c **** }
 393              		.loc 1 284 0
 394 0010 C046     		nop
 395 0012 BD46     		mov	sp, r7
 396              		@ sp needed
 397 0014 80BD     		pop	{r7, pc}
ARM GAS  C:\Users\gjl\AppData\Local\Temp\cczpiFjR.s 			page 13


 398              	.L14:
 399 0016 C046     		.align	2
 400              	.L13:
 401 0018 00031A40 		.word	1075446528
 402              		.cfi_endproc
 403              	.LFE5:
 404              		.size	AnalogSetDefault, .-AnalogSetDefault
 405              		.section	.text.SetAnalogRoutingPumps,"ax",%progbits
 406              		.align	2
 407              		.global	SetAnalogRoutingPumps
 408              		.code	16
 409              		.thumb_func
 410              		.type	SetAnalogRoutingPumps, %function
 411              	SetAnalogRoutingPumps:
 412              	.LFB6:
 285:Generated_Source\PSoC4/cyfitter_cfg.c **** 
 286:Generated_Source\PSoC4/cyfitter_cfg.c **** 
 287:Generated_Source\PSoC4/cyfitter_cfg.c **** /*******************************************************************************
 288:Generated_Source\PSoC4/cyfitter_cfg.c **** * Function Name: SetAnalogRoutingPumps
 289:Generated_Source\PSoC4/cyfitter_cfg.c **** ********************************************************************************
 290:Generated_Source\PSoC4/cyfitter_cfg.c **** *
 291:Generated_Source\PSoC4/cyfitter_cfg.c **** * Summary:
 292:Generated_Source\PSoC4/cyfitter_cfg.c **** * Enables or disables the analog pumps feeding analog routing switches.
 293:Generated_Source\PSoC4/cyfitter_cfg.c **** * Intended to be called at startup, based on the Vdda system configuration;
 294:Generated_Source\PSoC4/cyfitter_cfg.c **** * may be called during operation when the user informs us that the Vdda voltage crossed the pump th
 295:Generated_Source\PSoC4/cyfitter_cfg.c **** *
 296:Generated_Source\PSoC4/cyfitter_cfg.c **** * Parameters:
 297:Generated_Source\PSoC4/cyfitter_cfg.c **** *  enabled - 1 to enable the pumps, 0 to disable the pumps
 298:Generated_Source\PSoC4/cyfitter_cfg.c **** *
 299:Generated_Source\PSoC4/cyfitter_cfg.c **** * Return:
 300:Generated_Source\PSoC4/cyfitter_cfg.c **** *  void
 301:Generated_Source\PSoC4/cyfitter_cfg.c **** *
 302:Generated_Source\PSoC4/cyfitter_cfg.c **** *******************************************************************************/
 303:Generated_Source\PSoC4/cyfitter_cfg.c **** void SetAnalogRoutingPumps(uint8 enabled)
 304:Generated_Source\PSoC4/cyfitter_cfg.c **** {
 413              		.loc 1 304 0
 414              		.cfi_startproc
 415              		@ args = 0, pretend = 0, frame = 16
 416              		@ frame_needed = 1, uses_anonymous_args = 0
 417 0000 80B5     		push	{r7, lr}
 418              		.cfi_def_cfa_offset 8
 419              		.cfi_offset 7, -8
 420              		.cfi_offset 14, -4
 421 0002 84B0     		sub	sp, sp, #16
 422              		.cfi_def_cfa_offset 24
 423 0004 00AF     		add	r7, sp, #0
 424              		.cfi_def_cfa_register 7
 425 0006 0200     		movs	r2, r0
 426 0008 FB1D     		adds	r3, r7, #7
 427 000a 1A70     		strb	r2, [r3]
 305:Generated_Source\PSoC4/cyfitter_cfg.c **** 	uint32 regValue = CY_GET_XTND_REG32((void *)(CYREG_SAR_PUMP_CTRL));
 428              		.loc 1 305 0
 429 000c 0B4B     		ldr	r3, .L18
 430 000e 1B68     		ldr	r3, [r3]
 431 0010 FB60     		str	r3, [r7, #12]
 306:Generated_Source\PSoC4/cyfitter_cfg.c **** 	if (enabled != 0u)
 432              		.loc 1 306 0
ARM GAS  C:\Users\gjl\AppData\Local\Temp\cczpiFjR.s 			page 14


 433 0012 FB1D     		adds	r3, r7, #7
 434 0014 1B78     		ldrb	r3, [r3]
 435 0016 002B     		cmp	r3, #0
 436 0018 05D0     		beq	.L16
 307:Generated_Source\PSoC4/cyfitter_cfg.c **** 	{
 308:Generated_Source\PSoC4/cyfitter_cfg.c **** 		regValue |= 0x80000000u;
 437              		.loc 1 308 0
 438 001a FB68     		ldr	r3, [r7, #12]
 439 001c 8022     		movs	r2, #128
 440 001e 1206     		lsls	r2, r2, #24
 441 0020 1343     		orrs	r3, r2
 442 0022 FB60     		str	r3, [r7, #12]
 443 0024 03E0     		b	.L17
 444              	.L16:
 309:Generated_Source\PSoC4/cyfitter_cfg.c **** 	}
 310:Generated_Source\PSoC4/cyfitter_cfg.c **** 	else
 311:Generated_Source\PSoC4/cyfitter_cfg.c **** 	{
 312:Generated_Source\PSoC4/cyfitter_cfg.c **** 		regValue &= ~0x80000000u;
 445              		.loc 1 312 0
 446 0026 FB68     		ldr	r3, [r7, #12]
 447 0028 5B00     		lsls	r3, r3, #1
 448 002a 5B08     		lsrs	r3, r3, #1
 449 002c FB60     		str	r3, [r7, #12]
 450              	.L17:
 313:Generated_Source\PSoC4/cyfitter_cfg.c **** 	}
 314:Generated_Source\PSoC4/cyfitter_cfg.c **** 	CY_SET_XTND_REG32((void *)(CYREG_SAR_PUMP_CTRL), regValue);
 451              		.loc 1 314 0
 452 002e 034B     		ldr	r3, .L18
 453 0030 FA68     		ldr	r2, [r7, #12]
 454 0032 1A60     		str	r2, [r3]
 315:Generated_Source\PSoC4/cyfitter_cfg.c **** }
 455              		.loc 1 315 0
 456 0034 C046     		nop
 457 0036 BD46     		mov	sp, r7
 458 0038 04B0     		add	sp, sp, #16
 459              		@ sp needed
 460 003a 80BD     		pop	{r7, pc}
 461              	.L19:
 462              		.align	2
 463              	.L18:
 464 003c 80031A40 		.word	1075446656
 465              		.cfi_endproc
 466              	.LFE6:
 467              		.size	SetAnalogRoutingPumps, .-SetAnalogRoutingPumps
 468              		.section	.psocinit
 469              		.align	2
 470              		.global	cyfitter_cfg
 471              		.code	16
 472              		.thumb_func
 473              		.type	cyfitter_cfg, %function
 474              	cyfitter_cfg:
 475              	.LFB7:
 316:Generated_Source\PSoC4/cyfitter_cfg.c **** 
 317:Generated_Source\PSoC4/cyfitter_cfg.c **** 
 318:Generated_Source\PSoC4/cyfitter_cfg.c **** 
 319:Generated_Source\PSoC4/cyfitter_cfg.c **** 
 320:Generated_Source\PSoC4/cyfitter_cfg.c **** /*******************************************************************************
ARM GAS  C:\Users\gjl\AppData\Local\Temp\cczpiFjR.s 			page 15


 321:Generated_Source\PSoC4/cyfitter_cfg.c **** * Function Name: cyfitter_cfg
 322:Generated_Source\PSoC4/cyfitter_cfg.c **** ********************************************************************************
 323:Generated_Source\PSoC4/cyfitter_cfg.c **** * Summary:
 324:Generated_Source\PSoC4/cyfitter_cfg.c **** *  This function is called by the start-up code for the selected device. It
 325:Generated_Source\PSoC4/cyfitter_cfg.c **** *  performs all of the necessary device configuration based on the design
 326:Generated_Source\PSoC4/cyfitter_cfg.c **** *  settings.  This includes settings from the Design Wide Resources (DWR) such
 327:Generated_Source\PSoC4/cyfitter_cfg.c **** *  as Clocks and Pins as well as any component configuration that is necessary.
 328:Generated_Source\PSoC4/cyfitter_cfg.c **** *
 329:Generated_Source\PSoC4/cyfitter_cfg.c **** * Parameters:
 330:Generated_Source\PSoC4/cyfitter_cfg.c **** *   void
 331:Generated_Source\PSoC4/cyfitter_cfg.c **** *
 332:Generated_Source\PSoC4/cyfitter_cfg.c **** * Return:
 333:Generated_Source\PSoC4/cyfitter_cfg.c **** *   void
 334:Generated_Source\PSoC4/cyfitter_cfg.c **** *
 335:Generated_Source\PSoC4/cyfitter_cfg.c **** *******************************************************************************/
 336:Generated_Source\PSoC4/cyfitter_cfg.c **** CY_CFG_SECTION
 337:Generated_Source\PSoC4/cyfitter_cfg.c **** void cyfitter_cfg(void)
 338:Generated_Source\PSoC4/cyfitter_cfg.c **** {
 476              		.loc 1 338 0
 477              		.cfi_startproc
 478              		@ args = 0, pretend = 0, frame = 8
 479              		@ frame_needed = 1, uses_anonymous_args = 0
 480 00ec 80B5     		push	{r7, lr}
 481              		.cfi_def_cfa_offset 8
 482              		.cfi_offset 7, -8
 483              		.cfi_offset 14, -4
 484 00ee 82B0     		sub	sp, sp, #8
 485              		.cfi_def_cfa_offset 16
 486 00f0 00AF     		add	r7, sp, #0
 487              		.cfi_def_cfa_register 7
 339:Generated_Source\PSoC4/cyfitter_cfg.c **** 	/* Disable interrupts by default. Let user enable if/when they want. */
 340:Generated_Source\PSoC4/cyfitter_cfg.c **** 	CyGlobalIntDisable;
 488              		.loc 1 340 0
 489              		.syntax divided
 490              	@ 340 "Generated_Source\PSoC4\cyfitter_cfg.c" 1
 491 00f2 72B6     		CPSID   i
 492              	@ 0 "" 2
 493              		.thumb
 494              		.syntax unified
 495              	.LBB3:
 341:Generated_Source\PSoC4/cyfitter_cfg.c **** 
 342:Generated_Source\PSoC4/cyfitter_cfg.c **** 	{
 343:Generated_Source\PSoC4/cyfitter_cfg.c **** 		static const uint32 CYCODE cy_cfg_addr_table[] = {
 344:Generated_Source\PSoC4/cyfitter_cfg.c **** 			0x400F0001u, /* Base address: 0x400F0000 Count: 1 */
 345:Generated_Source\PSoC4/cyfitter_cfg.c **** 			0x400F3052u, /* Base address: 0x400F3000 Count: 82 */
 346:Generated_Source\PSoC4/cyfitter_cfg.c **** 			0x400F312Du, /* Base address: 0x400F3100 Count: 45 */
 347:Generated_Source\PSoC4/cyfitter_cfg.c **** 			0x400F3251u, /* Base address: 0x400F3200 Count: 81 */
 348:Generated_Source\PSoC4/cyfitter_cfg.c **** 			0x400F3347u, /* Base address: 0x400F3300 Count: 71 */
 349:Generated_Source\PSoC4/cyfitter_cfg.c **** 			0x400F400Au, /* Base address: 0x400F4000 Count: 10 */
 350:Generated_Source\PSoC4/cyfitter_cfg.c **** 			0x400F4111u, /* Base address: 0x400F4100 Count: 17 */
 351:Generated_Source\PSoC4/cyfitter_cfg.c **** 			0x400F4311u, /* Base address: 0x400F4300 Count: 17 */
 352:Generated_Source\PSoC4/cyfitter_cfg.c **** 			0x400F6002u, /* Base address: 0x400F6000 Count: 2 */
 353:Generated_Source\PSoC4/cyfitter_cfg.c **** 		};
 354:Generated_Source\PSoC4/cyfitter_cfg.c **** 
 355:Generated_Source\PSoC4/cyfitter_cfg.c **** 		static const cy_cfg_addrvalue_t CYCODE cy_cfg_data_table[] = {
 356:Generated_Source\PSoC4/cyfitter_cfg.c **** 			{0x72u, 0x0Fu},
 357:Generated_Source\PSoC4/cyfitter_cfg.c **** 			{0x00u, 0x11u},
ARM GAS  C:\Users\gjl\AppData\Local\Temp\cczpiFjR.s 			page 16


 358:Generated_Source\PSoC4/cyfitter_cfg.c **** 			{0x01u, 0x09u},
 359:Generated_Source\PSoC4/cyfitter_cfg.c **** 			{0x02u, 0x22u},
 360:Generated_Source\PSoC4/cyfitter_cfg.c **** 			{0x03u, 0x12u},
 361:Generated_Source\PSoC4/cyfitter_cfg.c **** 			{0x06u, 0x80u},
 362:Generated_Source\PSoC4/cyfitter_cfg.c **** 			{0x07u, 0x02u},
 363:Generated_Source\PSoC4/cyfitter_cfg.c **** 			{0x0Bu, 0x40u},
 364:Generated_Source\PSoC4/cyfitter_cfg.c **** 			{0x0Cu, 0x75u},
 365:Generated_Source\PSoC4/cyfitter_cfg.c **** 			{0x0Eu, 0x08u},
 366:Generated_Source\PSoC4/cyfitter_cfg.c **** 			{0x0Fu, 0x20u},
 367:Generated_Source\PSoC4/cyfitter_cfg.c **** 			{0x10u, 0x42u},
 368:Generated_Source\PSoC4/cyfitter_cfg.c **** 			{0x11u, 0x60u},
 369:Generated_Source\PSoC4/cyfitter_cfg.c **** 			{0x12u, 0x24u},
 370:Generated_Source\PSoC4/cyfitter_cfg.c **** 			{0x14u, 0x05u},
 371:Generated_Source\PSoC4/cyfitter_cfg.c **** 			{0x16u, 0x0Au},
 372:Generated_Source\PSoC4/cyfitter_cfg.c **** 			{0x18u, 0x24u},
 373:Generated_Source\PSoC4/cyfitter_cfg.c **** 			{0x19u, 0x02u},
 374:Generated_Source\PSoC4/cyfitter_cfg.c **** 			{0x1Au, 0x52u},
 375:Generated_Source\PSoC4/cyfitter_cfg.c **** 			{0x1Bu, 0x05u},
 376:Generated_Source\PSoC4/cyfitter_cfg.c **** 			{0x1Du, 0x14u},
 377:Generated_Source\PSoC4/cyfitter_cfg.c **** 			{0x1Eu, 0x80u},
 378:Generated_Source\PSoC4/cyfitter_cfg.c **** 			{0x1Fu, 0x0Au},
 379:Generated_Source\PSoC4/cyfitter_cfg.c **** 			{0x21u, 0x1Fu},
 380:Generated_Source\PSoC4/cyfitter_cfg.c **** 			{0x24u, 0x22u},
 381:Generated_Source\PSoC4/cyfitter_cfg.c **** 			{0x26u, 0x04u},
 382:Generated_Source\PSoC4/cyfitter_cfg.c **** 			{0x30u, 0x80u},
 383:Generated_Source\PSoC4/cyfitter_cfg.c **** 			{0x31u, 0x40u},
 384:Generated_Source\PSoC4/cyfitter_cfg.c **** 			{0x32u, 0x0Fu},
 385:Generated_Source\PSoC4/cyfitter_cfg.c **** 			{0x33u, 0x20u},
 386:Generated_Source\PSoC4/cyfitter_cfg.c **** 			{0x34u, 0x70u},
 387:Generated_Source\PSoC4/cyfitter_cfg.c **** 			{0x35u, 0x07u},
 388:Generated_Source\PSoC4/cyfitter_cfg.c **** 			{0x36u, 0x80u},
 389:Generated_Source\PSoC4/cyfitter_cfg.c **** 			{0x37u, 0x18u},
 390:Generated_Source\PSoC4/cyfitter_cfg.c **** 			{0x38u, 0x80u},
 391:Generated_Source\PSoC4/cyfitter_cfg.c **** 			{0x39u, 0x0Au},
 392:Generated_Source\PSoC4/cyfitter_cfg.c **** 			{0x3Au, 0x08u},
 393:Generated_Source\PSoC4/cyfitter_cfg.c **** 			{0x3Eu, 0x01u},
 394:Generated_Source\PSoC4/cyfitter_cfg.c **** 			{0x3Fu, 0x05u},
 395:Generated_Source\PSoC4/cyfitter_cfg.c **** 			{0x58u, 0x04u},
 396:Generated_Source\PSoC4/cyfitter_cfg.c **** 			{0x59u, 0x04u},
 397:Generated_Source\PSoC4/cyfitter_cfg.c **** 			{0x5Bu, 0x04u},
 398:Generated_Source\PSoC4/cyfitter_cfg.c **** 			{0x5Cu, 0x11u},
 399:Generated_Source\PSoC4/cyfitter_cfg.c **** 			{0x5Fu, 0x01u},
 400:Generated_Source\PSoC4/cyfitter_cfg.c **** 			{0x80u, 0xC0u},
 401:Generated_Source\PSoC4/cyfitter_cfg.c **** 			{0x82u, 0x01u},
 402:Generated_Source\PSoC4/cyfitter_cfg.c **** 			{0x83u, 0x20u},
 403:Generated_Source\PSoC4/cyfitter_cfg.c **** 			{0x85u, 0x03u},
 404:Generated_Source\PSoC4/cyfitter_cfg.c **** 			{0x88u, 0x50u},
 405:Generated_Source\PSoC4/cyfitter_cfg.c **** 			{0x8Au, 0xAEu},
 406:Generated_Source\PSoC4/cyfitter_cfg.c **** 			{0x8Bu, 0x10u},
 407:Generated_Source\PSoC4/cyfitter_cfg.c **** 			{0x8Cu, 0xAAu},
 408:Generated_Source\PSoC4/cyfitter_cfg.c **** 			{0x8Fu, 0x10u},
 409:Generated_Source\PSoC4/cyfitter_cfg.c **** 			{0x91u, 0x0Au},
 410:Generated_Source\PSoC4/cyfitter_cfg.c **** 			{0x93u, 0x05u},
 411:Generated_Source\PSoC4/cyfitter_cfg.c **** 			{0x94u, 0xA0u},
 412:Generated_Source\PSoC4/cyfitter_cfg.c **** 			{0x96u, 0x5Cu},
 413:Generated_Source\PSoC4/cyfitter_cfg.c **** 			{0x97u, 0x20u},
 414:Generated_Source\PSoC4/cyfitter_cfg.c **** 			{0x98u, 0x30u},
ARM GAS  C:\Users\gjl\AppData\Local\Temp\cczpiFjR.s 			page 17


 415:Generated_Source\PSoC4/cyfitter_cfg.c **** 			{0x9Au, 0x01u},
 416:Generated_Source\PSoC4/cyfitter_cfg.c **** 			{0x9Bu, 0x40u},
 417:Generated_Source\PSoC4/cyfitter_cfg.c **** 			{0x9Cu, 0x06u},
 418:Generated_Source\PSoC4/cyfitter_cfg.c **** 			{0x9Du, 0x0Cu},
 419:Generated_Source\PSoC4/cyfitter_cfg.c **** 			{0xA5u, 0x05u},
 420:Generated_Source\PSoC4/cyfitter_cfg.c **** 			{0xA7u, 0x0Au},
 421:Generated_Source\PSoC4/cyfitter_cfg.c **** 			{0xABu, 0x0Au},
 422:Generated_Source\PSoC4/cyfitter_cfg.c **** 			{0xAFu, 0x40u},
 423:Generated_Source\PSoC4/cyfitter_cfg.c **** 			{0xB0u, 0x01u},
 424:Generated_Source\PSoC4/cyfitter_cfg.c **** 			{0xB1u, 0x10u},
 425:Generated_Source\PSoC4/cyfitter_cfg.c **** 			{0xB2u, 0xF0u},
 426:Generated_Source\PSoC4/cyfitter_cfg.c **** 			{0xB3u, 0x20u},
 427:Generated_Source\PSoC4/cyfitter_cfg.c **** 			{0xB4u, 0x01u},
 428:Generated_Source\PSoC4/cyfitter_cfg.c **** 			{0xB5u, 0x40u},
 429:Generated_Source\PSoC4/cyfitter_cfg.c **** 			{0xB6u, 0x0Fu},
 430:Generated_Source\PSoC4/cyfitter_cfg.c **** 			{0xB7u, 0x0Fu},
 431:Generated_Source\PSoC4/cyfitter_cfg.c **** 			{0xB8u, 0xA2u},
 432:Generated_Source\PSoC4/cyfitter_cfg.c **** 			{0xB9u, 0x2Au},
 433:Generated_Source\PSoC4/cyfitter_cfg.c **** 			{0xBEu, 0x01u},
 434:Generated_Source\PSoC4/cyfitter_cfg.c **** 			{0xBFu, 0x05u},
 435:Generated_Source\PSoC4/cyfitter_cfg.c **** 			{0xD8u, 0x04u},
 436:Generated_Source\PSoC4/cyfitter_cfg.c **** 			{0xD9u, 0x04u},
 437:Generated_Source\PSoC4/cyfitter_cfg.c **** 			{0xDCu, 0x11u},
 438:Generated_Source\PSoC4/cyfitter_cfg.c **** 			{0xDFu, 0x01u},
 439:Generated_Source\PSoC4/cyfitter_cfg.c **** 			{0x00u, 0x41u},
 440:Generated_Source\PSoC4/cyfitter_cfg.c **** 			{0x01u, 0x08u},
 441:Generated_Source\PSoC4/cyfitter_cfg.c **** 			{0x05u, 0x10u},
 442:Generated_Source\PSoC4/cyfitter_cfg.c **** 			{0x07u, 0x41u},
 443:Generated_Source\PSoC4/cyfitter_cfg.c **** 			{0x09u, 0x40u},
 444:Generated_Source\PSoC4/cyfitter_cfg.c **** 			{0x0Au, 0xA8u},
 445:Generated_Source\PSoC4/cyfitter_cfg.c **** 			{0x0Bu, 0x01u},
 446:Generated_Source\PSoC4/cyfitter_cfg.c **** 			{0x0Du, 0x80u},
 447:Generated_Source\PSoC4/cyfitter_cfg.c **** 			{0x0Eu, 0x14u},
 448:Generated_Source\PSoC4/cyfitter_cfg.c **** 			{0x12u, 0x20u},
 449:Generated_Source\PSoC4/cyfitter_cfg.c **** 			{0x18u, 0x49u},
 450:Generated_Source\PSoC4/cyfitter_cfg.c **** 			{0x19u, 0x01u},
 451:Generated_Source\PSoC4/cyfitter_cfg.c **** 			{0x1Au, 0x28u},
 452:Generated_Source\PSoC4/cyfitter_cfg.c **** 			{0x1Du, 0x90u},
 453:Generated_Source\PSoC4/cyfitter_cfg.c **** 			{0x1Eu, 0x10u},
 454:Generated_Source\PSoC4/cyfitter_cfg.c **** 			{0x1Fu, 0x21u},
 455:Generated_Source\PSoC4/cyfitter_cfg.c **** 			{0x21u, 0x05u},
 456:Generated_Source\PSoC4/cyfitter_cfg.c **** 			{0x22u, 0x60u},
 457:Generated_Source\PSoC4/cyfitter_cfg.c **** 			{0x26u, 0x01u},
 458:Generated_Source\PSoC4/cyfitter_cfg.c **** 			{0x27u, 0x25u},
 459:Generated_Source\PSoC4/cyfitter_cfg.c **** 			{0x29u, 0x01u},
 460:Generated_Source\PSoC4/cyfitter_cfg.c **** 			{0x2Cu, 0x01u},
 461:Generated_Source\PSoC4/cyfitter_cfg.c **** 			{0x2Eu, 0x10u},
 462:Generated_Source\PSoC4/cyfitter_cfg.c **** 			{0x2Fu, 0x20u},
 463:Generated_Source\PSoC4/cyfitter_cfg.c **** 			{0x30u, 0x02u},
 464:Generated_Source\PSoC4/cyfitter_cfg.c **** 			{0x32u, 0x60u},
 465:Generated_Source\PSoC4/cyfitter_cfg.c **** 			{0x35u, 0x08u},
 466:Generated_Source\PSoC4/cyfitter_cfg.c **** 			{0x37u, 0x51u},
 467:Generated_Source\PSoC4/cyfitter_cfg.c **** 			{0x38u, 0x09u},
 468:Generated_Source\PSoC4/cyfitter_cfg.c **** 			{0x39u, 0x80u},
 469:Generated_Source\PSoC4/cyfitter_cfg.c **** 			{0x3Bu, 0x10u},
 470:Generated_Source\PSoC4/cyfitter_cfg.c **** 			{0x3Du, 0x10u},
 471:Generated_Source\PSoC4/cyfitter_cfg.c **** 			{0x3Eu, 0x04u},
ARM GAS  C:\Users\gjl\AppData\Local\Temp\cczpiFjR.s 			page 18


 472:Generated_Source\PSoC4/cyfitter_cfg.c **** 			{0x3Fu, 0x41u},
 473:Generated_Source\PSoC4/cyfitter_cfg.c **** 			{0x45u, 0x80u},
 474:Generated_Source\PSoC4/cyfitter_cfg.c **** 			{0x46u, 0x01u},
 475:Generated_Source\PSoC4/cyfitter_cfg.c **** 			{0x68u, 0x02u},
 476:Generated_Source\PSoC4/cyfitter_cfg.c **** 			{0x89u, 0x01u},
 477:Generated_Source\PSoC4/cyfitter_cfg.c **** 			{0xC0u, 0xDDu},
 478:Generated_Source\PSoC4/cyfitter_cfg.c **** 			{0xC2u, 0xEFu},
 479:Generated_Source\PSoC4/cyfitter_cfg.c **** 			{0xC4u, 0x04u},
 480:Generated_Source\PSoC4/cyfitter_cfg.c **** 			{0xCAu, 0x71u},
 481:Generated_Source\PSoC4/cyfitter_cfg.c **** 			{0xCCu, 0xFDu},
 482:Generated_Source\PSoC4/cyfitter_cfg.c **** 			{0xCEu, 0xFFu},
 483:Generated_Source\PSoC4/cyfitter_cfg.c **** 			{0xE2u, 0x20u},
 484:Generated_Source\PSoC4/cyfitter_cfg.c **** 			{0x00u, 0x10u},
 485:Generated_Source\PSoC4/cyfitter_cfg.c **** 			{0x01u, 0x04u},
 486:Generated_Source\PSoC4/cyfitter_cfg.c **** 			{0x02u, 0x0Cu},
 487:Generated_Source\PSoC4/cyfitter_cfg.c **** 			{0x03u, 0x10u},
 488:Generated_Source\PSoC4/cyfitter_cfg.c **** 			{0x05u, 0x02u},
 489:Generated_Source\PSoC4/cyfitter_cfg.c **** 			{0x0Cu, 0x0Fu},
 490:Generated_Source\PSoC4/cyfitter_cfg.c **** 			{0x0Eu, 0x20u},
 491:Generated_Source\PSoC4/cyfitter_cfg.c **** 			{0x10u, 0x16u},
 492:Generated_Source\PSoC4/cyfitter_cfg.c **** 			{0x11u, 0x42u},
 493:Generated_Source\PSoC4/cyfitter_cfg.c **** 			{0x12u, 0x09u},
 494:Generated_Source\PSoC4/cyfitter_cfg.c **** 			{0x13u, 0xACu},
 495:Generated_Source\PSoC4/cyfitter_cfg.c **** 			{0x14u, 0x02u},
 496:Generated_Source\PSoC4/cyfitter_cfg.c **** 			{0x15u, 0x40u},
 497:Generated_Source\PSoC4/cyfitter_cfg.c **** 			{0x16u, 0x30u},
 498:Generated_Source\PSoC4/cyfitter_cfg.c **** 			{0x17u, 0xAEu},
 499:Generated_Source\PSoC4/cyfitter_cfg.c **** 			{0x18u, 0x01u},
 500:Generated_Source\PSoC4/cyfitter_cfg.c **** 			{0x19u, 0x20u},
 501:Generated_Source\PSoC4/cyfitter_cfg.c **** 			{0x1Au, 0x1Eu},
 502:Generated_Source\PSoC4/cyfitter_cfg.c **** 			{0x1Bu, 0x11u},
 503:Generated_Source\PSoC4/cyfitter_cfg.c **** 			{0x1Eu, 0x40u},
 504:Generated_Source\PSoC4/cyfitter_cfg.c **** 			{0x2Au, 0x40u},
 505:Generated_Source\PSoC4/cyfitter_cfg.c **** 			{0x2Du, 0x08u},
 506:Generated_Source\PSoC4/cyfitter_cfg.c **** 			{0x2Fu, 0x11u},
 507:Generated_Source\PSoC4/cyfitter_cfg.c **** 			{0x30u, 0x07u},
 508:Generated_Source\PSoC4/cyfitter_cfg.c **** 			{0x31u, 0x38u},
 509:Generated_Source\PSoC4/cyfitter_cfg.c **** 			{0x32u, 0x38u},
 510:Generated_Source\PSoC4/cyfitter_cfg.c **** 			{0x33u, 0x07u},
 511:Generated_Source\PSoC4/cyfitter_cfg.c **** 			{0x34u, 0x40u},
 512:Generated_Source\PSoC4/cyfitter_cfg.c **** 			{0x35u, 0x01u},
 513:Generated_Source\PSoC4/cyfitter_cfg.c **** 			{0x36u, 0x40u},
 514:Generated_Source\PSoC4/cyfitter_cfg.c **** 			{0x37u, 0xC1u},
 515:Generated_Source\PSoC4/cyfitter_cfg.c **** 			{0x38u, 0x20u},
 516:Generated_Source\PSoC4/cyfitter_cfg.c **** 			{0x39u, 0xA8u},
 517:Generated_Source\PSoC4/cyfitter_cfg.c **** 			{0x3Au, 0x08u},
 518:Generated_Source\PSoC4/cyfitter_cfg.c **** 			{0x3Bu, 0x02u},
 519:Generated_Source\PSoC4/cyfitter_cfg.c **** 			{0x3Eu, 0x40u},
 520:Generated_Source\PSoC4/cyfitter_cfg.c **** 			{0x3Fu, 0x10u},
 521:Generated_Source\PSoC4/cyfitter_cfg.c **** 			{0x58u, 0x04u},
 522:Generated_Source\PSoC4/cyfitter_cfg.c **** 			{0x59u, 0x04u},
 523:Generated_Source\PSoC4/cyfitter_cfg.c **** 			{0x5Bu, 0x04u},
 524:Generated_Source\PSoC4/cyfitter_cfg.c **** 			{0x5Cu, 0x11u},
 525:Generated_Source\PSoC4/cyfitter_cfg.c **** 			{0x5Fu, 0x01u},
 526:Generated_Source\PSoC4/cyfitter_cfg.c **** 			{0x80u, 0x40u},
 527:Generated_Source\PSoC4/cyfitter_cfg.c **** 			{0x85u, 0x0Cu},
 528:Generated_Source\PSoC4/cyfitter_cfg.c **** 			{0x87u, 0x02u},
ARM GAS  C:\Users\gjl\AppData\Local\Temp\cczpiFjR.s 			page 19


 529:Generated_Source\PSoC4/cyfitter_cfg.c **** 			{0x88u, 0x45u},
 530:Generated_Source\PSoC4/cyfitter_cfg.c **** 			{0x89u, 0x0Au},
 531:Generated_Source\PSoC4/cyfitter_cfg.c **** 			{0x8Au, 0x0Au},
 532:Generated_Source\PSoC4/cyfitter_cfg.c **** 			{0x8Bu, 0x05u},
 533:Generated_Source\PSoC4/cyfitter_cfg.c **** 			{0x8Cu, 0x04u},
 534:Generated_Source\PSoC4/cyfitter_cfg.c **** 			{0x8Du, 0x06u},
 535:Generated_Source\PSoC4/cyfitter_cfg.c **** 			{0x8Eu, 0x22u},
 536:Generated_Source\PSoC4/cyfitter_cfg.c **** 			{0x90u, 0x06u},
 537:Generated_Source\PSoC4/cyfitter_cfg.c **** 			{0x91u, 0x01u},
 538:Generated_Source\PSoC4/cyfitter_cfg.c **** 			{0x92u, 0x10u},
 539:Generated_Source\PSoC4/cyfitter_cfg.c **** 			{0x94u, 0x40u},
 540:Generated_Source\PSoC4/cyfitter_cfg.c **** 			{0x98u, 0x01u},
 541:Generated_Source\PSoC4/cyfitter_cfg.c **** 			{0x9Au, 0x12u},
 542:Generated_Source\PSoC4/cyfitter_cfg.c **** 			{0x9Cu, 0x15u},
 543:Generated_Source\PSoC4/cyfitter_cfg.c **** 			{0x9Eu, 0x28u},
 544:Generated_Source\PSoC4/cyfitter_cfg.c **** 			{0xA0u, 0x40u},
 545:Generated_Source\PSoC4/cyfitter_cfg.c **** 			{0xA4u, 0x40u},
 546:Generated_Source\PSoC4/cyfitter_cfg.c **** 			{0xA8u, 0x02u},
 547:Generated_Source\PSoC4/cyfitter_cfg.c **** 			{0xAAu, 0x04u},
 548:Generated_Source\PSoC4/cyfitter_cfg.c **** 			{0xACu, 0x40u},
 549:Generated_Source\PSoC4/cyfitter_cfg.c **** 			{0xB0u, 0x30u},
 550:Generated_Source\PSoC4/cyfitter_cfg.c **** 			{0xB1u, 0x01u},
 551:Generated_Source\PSoC4/cyfitter_cfg.c **** 			{0xB3u, 0x04u},
 552:Generated_Source\PSoC4/cyfitter_cfg.c **** 			{0xB4u, 0x0Fu},
 553:Generated_Source\PSoC4/cyfitter_cfg.c **** 			{0xB5u, 0x08u},
 554:Generated_Source\PSoC4/cyfitter_cfg.c **** 			{0xB6u, 0x40u},
 555:Generated_Source\PSoC4/cyfitter_cfg.c **** 			{0xB7u, 0x02u},
 556:Generated_Source\PSoC4/cyfitter_cfg.c **** 			{0xB8u, 0x80u},
 557:Generated_Source\PSoC4/cyfitter_cfg.c **** 			{0xB9u, 0x02u},
 558:Generated_Source\PSoC4/cyfitter_cfg.c **** 			{0xBAu, 0x22u},
 559:Generated_Source\PSoC4/cyfitter_cfg.c **** 			{0xBEu, 0x40u},
 560:Generated_Source\PSoC4/cyfitter_cfg.c **** 			{0xBFu, 0x01u},
 561:Generated_Source\PSoC4/cyfitter_cfg.c **** 			{0xD8u, 0x04u},
 562:Generated_Source\PSoC4/cyfitter_cfg.c **** 			{0xD9u, 0x04u},
 563:Generated_Source\PSoC4/cyfitter_cfg.c **** 			{0xDCu, 0x31u},
 564:Generated_Source\PSoC4/cyfitter_cfg.c **** 			{0xDFu, 0x01u},
 565:Generated_Source\PSoC4/cyfitter_cfg.c **** 			{0x00u, 0x40u},
 566:Generated_Source\PSoC4/cyfitter_cfg.c **** 			{0x01u, 0x20u},
 567:Generated_Source\PSoC4/cyfitter_cfg.c **** 			{0x03u, 0x80u},
 568:Generated_Source\PSoC4/cyfitter_cfg.c **** 			{0x05u, 0x41u},
 569:Generated_Source\PSoC4/cyfitter_cfg.c **** 			{0x09u, 0x20u},
 570:Generated_Source\PSoC4/cyfitter_cfg.c **** 			{0x0Au, 0x61u},
 571:Generated_Source\PSoC4/cyfitter_cfg.c **** 			{0x0Du, 0xA8u},
 572:Generated_Source\PSoC4/cyfitter_cfg.c **** 			{0x0Eu, 0x40u},
 573:Generated_Source\PSoC4/cyfitter_cfg.c **** 			{0x11u, 0x08u},
 574:Generated_Source\PSoC4/cyfitter_cfg.c **** 			{0x12u, 0x49u},
 575:Generated_Source\PSoC4/cyfitter_cfg.c **** 			{0x15u, 0x10u},
 576:Generated_Source\PSoC4/cyfitter_cfg.c **** 			{0x18u, 0x40u},
 577:Generated_Source\PSoC4/cyfitter_cfg.c **** 			{0x19u, 0xA1u},
 578:Generated_Source\PSoC4/cyfitter_cfg.c **** 			{0x1Du, 0x68u},
 579:Generated_Source\PSoC4/cyfitter_cfg.c **** 			{0x1Eu, 0x41u},
 580:Generated_Source\PSoC4/cyfitter_cfg.c **** 			{0x1Fu, 0x08u},
 581:Generated_Source\PSoC4/cyfitter_cfg.c **** 			{0x21u, 0x54u},
 582:Generated_Source\PSoC4/cyfitter_cfg.c **** 			{0x22u, 0x02u},
 583:Generated_Source\PSoC4/cyfitter_cfg.c **** 			{0x23u, 0x10u},
 584:Generated_Source\PSoC4/cyfitter_cfg.c **** 			{0x25u, 0x05u},
 585:Generated_Source\PSoC4/cyfitter_cfg.c **** 			{0x26u, 0x10u},
ARM GAS  C:\Users\gjl\AppData\Local\Temp\cczpiFjR.s 			page 20


 586:Generated_Source\PSoC4/cyfitter_cfg.c **** 			{0x27u, 0x01u},
 587:Generated_Source\PSoC4/cyfitter_cfg.c **** 			{0x2Cu, 0x01u},
 588:Generated_Source\PSoC4/cyfitter_cfg.c **** 			{0x30u, 0x02u},
 589:Generated_Source\PSoC4/cyfitter_cfg.c **** 			{0x37u, 0x15u},
 590:Generated_Source\PSoC4/cyfitter_cfg.c **** 			{0x39u, 0xA8u},
 591:Generated_Source\PSoC4/cyfitter_cfg.c **** 			{0x3Du, 0x0Au},
 592:Generated_Source\PSoC4/cyfitter_cfg.c **** 			{0x5Cu, 0x10u},
 593:Generated_Source\PSoC4/cyfitter_cfg.c **** 			{0x5Du, 0x40u},
 594:Generated_Source\PSoC4/cyfitter_cfg.c **** 			{0x5Fu, 0x05u},
 595:Generated_Source\PSoC4/cyfitter_cfg.c **** 			{0x6Du, 0x90u},
 596:Generated_Source\PSoC4/cyfitter_cfg.c **** 			{0x6Fu, 0x50u},
 597:Generated_Source\PSoC4/cyfitter_cfg.c **** 			{0x7Au, 0x08u},
 598:Generated_Source\PSoC4/cyfitter_cfg.c **** 			{0x7Bu, 0x08u},
 599:Generated_Source\PSoC4/cyfitter_cfg.c **** 			{0x81u, 0x80u},
 600:Generated_Source\PSoC4/cyfitter_cfg.c **** 			{0x83u, 0x81u},
 601:Generated_Source\PSoC4/cyfitter_cfg.c **** 			{0x86u, 0x10u},
 602:Generated_Source\PSoC4/cyfitter_cfg.c **** 			{0x88u, 0x01u},
 603:Generated_Source\PSoC4/cyfitter_cfg.c **** 			{0x89u, 0x80u},
 604:Generated_Source\PSoC4/cyfitter_cfg.c **** 			{0x8Au, 0x40u},
 605:Generated_Source\PSoC4/cyfitter_cfg.c **** 			{0x8Bu, 0x44u},
 606:Generated_Source\PSoC4/cyfitter_cfg.c **** 			{0x8Cu, 0x10u},
 607:Generated_Source\PSoC4/cyfitter_cfg.c **** 			{0x8Du, 0x80u},
 608:Generated_Source\PSoC4/cyfitter_cfg.c **** 			{0x8Eu, 0x02u},
 609:Generated_Source\PSoC4/cyfitter_cfg.c **** 			{0x91u, 0x40u},
 610:Generated_Source\PSoC4/cyfitter_cfg.c **** 			{0x92u, 0x20u},
 611:Generated_Source\PSoC4/cyfitter_cfg.c **** 			{0x95u, 0x90u},
 612:Generated_Source\PSoC4/cyfitter_cfg.c **** 			{0x97u, 0x50u},
 613:Generated_Source\PSoC4/cyfitter_cfg.c **** 			{0x9Au, 0x01u},
 614:Generated_Source\PSoC4/cyfitter_cfg.c **** 			{0x9Bu, 0x04u},
 615:Generated_Source\PSoC4/cyfitter_cfg.c **** 			{0x9Cu, 0x01u},
 616:Generated_Source\PSoC4/cyfitter_cfg.c **** 			{0x9Fu, 0x50u},
 617:Generated_Source\PSoC4/cyfitter_cfg.c **** 			{0xA0u, 0x02u},
 618:Generated_Source\PSoC4/cyfitter_cfg.c **** 			{0xA5u, 0x40u},
 619:Generated_Source\PSoC4/cyfitter_cfg.c **** 			{0xA9u, 0x48u},
 620:Generated_Source\PSoC4/cyfitter_cfg.c **** 			{0xABu, 0x20u},
 621:Generated_Source\PSoC4/cyfitter_cfg.c **** 			{0xADu, 0x04u},
 622:Generated_Source\PSoC4/cyfitter_cfg.c **** 			{0xAEu, 0x04u},
 623:Generated_Source\PSoC4/cyfitter_cfg.c **** 			{0xB6u, 0x01u},
 624:Generated_Source\PSoC4/cyfitter_cfg.c **** 			{0xB7u, 0x01u},
 625:Generated_Source\PSoC4/cyfitter_cfg.c **** 			{0xC0u, 0x9Bu},
 626:Generated_Source\PSoC4/cyfitter_cfg.c **** 			{0xC2u, 0xFFu},
 627:Generated_Source\PSoC4/cyfitter_cfg.c **** 			{0xC4u, 0x4Fu},
 628:Generated_Source\PSoC4/cyfitter_cfg.c **** 			{0xCAu, 0x10u},
 629:Generated_Source\PSoC4/cyfitter_cfg.c **** 			{0xCCu, 0xE1u},
 630:Generated_Source\PSoC4/cyfitter_cfg.c **** 			{0xCEu, 0xCEu},
 631:Generated_Source\PSoC4/cyfitter_cfg.c **** 			{0xD6u, 0xF0u},
 632:Generated_Source\PSoC4/cyfitter_cfg.c **** 			{0xE0u, 0x04u},
 633:Generated_Source\PSoC4/cyfitter_cfg.c **** 			{0xE4u, 0x08u},
 634:Generated_Source\PSoC4/cyfitter_cfg.c **** 			{0xE6u, 0x14u},
 635:Generated_Source\PSoC4/cyfitter_cfg.c **** 			{0xEAu, 0x50u},
 636:Generated_Source\PSoC4/cyfitter_cfg.c **** 			{0x09u, 0x08u},
 637:Generated_Source\PSoC4/cyfitter_cfg.c **** 			{0x0Bu, 0x02u},
 638:Generated_Source\PSoC4/cyfitter_cfg.c **** 			{0x50u, 0x04u},
 639:Generated_Source\PSoC4/cyfitter_cfg.c **** 			{0x53u, 0x02u},
 640:Generated_Source\PSoC4/cyfitter_cfg.c **** 			{0x57u, 0x08u},
 641:Generated_Source\PSoC4/cyfitter_cfg.c **** 			{0x63u, 0x08u},
 642:Generated_Source\PSoC4/cyfitter_cfg.c **** 			{0x8Bu, 0x08u},
ARM GAS  C:\Users\gjl\AppData\Local\Temp\cczpiFjR.s 			page 21


 643:Generated_Source\PSoC4/cyfitter_cfg.c **** 			{0xC2u, 0x50u},
 644:Generated_Source\PSoC4/cyfitter_cfg.c **** 			{0xD4u, 0xE0u},
 645:Generated_Source\PSoC4/cyfitter_cfg.c **** 			{0xD8u, 0x40u},
 646:Generated_Source\PSoC4/cyfitter_cfg.c **** 			{0x5Fu, 0x80u},
 647:Generated_Source\PSoC4/cyfitter_cfg.c **** 			{0x62u, 0x04u},
 648:Generated_Source\PSoC4/cyfitter_cfg.c **** 			{0x81u, 0x08u},
 649:Generated_Source\PSoC4/cyfitter_cfg.c **** 			{0x8Eu, 0x04u},
 650:Generated_Source\PSoC4/cyfitter_cfg.c **** 			{0x9Bu, 0x80u},
 651:Generated_Source\PSoC4/cyfitter_cfg.c **** 			{0xA1u, 0x08u},
 652:Generated_Source\PSoC4/cyfitter_cfg.c **** 			{0xABu, 0x81u},
 653:Generated_Source\PSoC4/cyfitter_cfg.c **** 			{0xADu, 0x08u},
 654:Generated_Source\PSoC4/cyfitter_cfg.c **** 			{0xAFu, 0x02u},
 655:Generated_Source\PSoC4/cyfitter_cfg.c **** 			{0xB4u, 0x04u},
 656:Generated_Source\PSoC4/cyfitter_cfg.c **** 			{0xB7u, 0x04u},
 657:Generated_Source\PSoC4/cyfitter_cfg.c **** 			{0xD6u, 0x20u},
 658:Generated_Source\PSoC4/cyfitter_cfg.c **** 			{0xD8u, 0x40u},
 659:Generated_Source\PSoC4/cyfitter_cfg.c **** 			{0xE0u, 0x80u},
 660:Generated_Source\PSoC4/cyfitter_cfg.c **** 			{0xE8u, 0x40u},
 661:Generated_Source\PSoC4/cyfitter_cfg.c **** 			{0xEAu, 0x90u},
 662:Generated_Source\PSoC4/cyfitter_cfg.c **** 			{0xECu, 0x20u},
 663:Generated_Source\PSoC4/cyfitter_cfg.c **** 			{0x0Au, 0x04u},
 664:Generated_Source\PSoC4/cyfitter_cfg.c **** 			{0x0Bu, 0x20u},
 665:Generated_Source\PSoC4/cyfitter_cfg.c **** 			{0x22u, 0x80u},
 666:Generated_Source\PSoC4/cyfitter_cfg.c **** 			{0x27u, 0x08u},
 667:Generated_Source\PSoC4/cyfitter_cfg.c **** 			{0x63u, 0x02u},
 668:Generated_Source\PSoC4/cyfitter_cfg.c **** 			{0x65u, 0x01u},
 669:Generated_Source\PSoC4/cyfitter_cfg.c **** 			{0x81u, 0x01u},
 670:Generated_Source\PSoC4/cyfitter_cfg.c **** 			{0x82u, 0x80u},
 671:Generated_Source\PSoC4/cyfitter_cfg.c **** 			{0x87u, 0x01u},
 672:Generated_Source\PSoC4/cyfitter_cfg.c **** 			{0x8Au, 0x04u},
 673:Generated_Source\PSoC4/cyfitter_cfg.c **** 			{0x8Bu, 0x18u},
 674:Generated_Source\PSoC4/cyfitter_cfg.c **** 			{0xC2u, 0x0Au},
 675:Generated_Source\PSoC4/cyfitter_cfg.c **** 			{0xC8u, 0x0Cu},
 676:Generated_Source\PSoC4/cyfitter_cfg.c **** 			{0xD6u, 0x02u},
 677:Generated_Source\PSoC4/cyfitter_cfg.c **** 			{0xD8u, 0x01u},
 678:Generated_Source\PSoC4/cyfitter_cfg.c **** 			{0xE2u, 0x04u},
 679:Generated_Source\PSoC4/cyfitter_cfg.c **** 			{0xE6u, 0x05u},
 680:Generated_Source\PSoC4/cyfitter_cfg.c **** 			{0x10u, 0x0Au},
 681:Generated_Source\PSoC4/cyfitter_cfg.c **** 			{0x11u, 0x01u},
 682:Generated_Source\PSoC4/cyfitter_cfg.c **** 		};
 683:Generated_Source\PSoC4/cyfitter_cfg.c **** 
 684:Generated_Source\PSoC4/cyfitter_cfg.c **** 
 685:Generated_Source\PSoC4/cyfitter_cfg.c **** 
 686:Generated_Source\PSoC4/cyfitter_cfg.c **** 		CYPACKED typedef struct {
 687:Generated_Source\PSoC4/cyfitter_cfg.c **** 			void CYFAR *address;
 688:Generated_Source\PSoC4/cyfitter_cfg.c **** 			uint16 size;
 689:Generated_Source\PSoC4/cyfitter_cfg.c **** 		} CYPACKED_ATTR cfg_memset_t;
 690:Generated_Source\PSoC4/cyfitter_cfg.c **** 
 691:Generated_Source\PSoC4/cyfitter_cfg.c **** 		static const cfg_memset_t CYCODE cfg_memset_list[] = {
 692:Generated_Source\PSoC4/cyfitter_cfg.c **** 			/* address, size */
 693:Generated_Source\PSoC4/cyfitter_cfg.c **** 			{(void CYFAR *)(CYDEV_UDB_P0_U0_BASE), 1024u},
 694:Generated_Source\PSoC4/cyfitter_cfg.c **** 			{(void CYFAR *)(CYDEV_UDB_DSI0_BASE), 1024u},
 695:Generated_Source\PSoC4/cyfitter_cfg.c **** 		};
 696:Generated_Source\PSoC4/cyfitter_cfg.c **** 
 697:Generated_Source\PSoC4/cyfitter_cfg.c **** 		uint8 CYDATA i;
 698:Generated_Source\PSoC4/cyfitter_cfg.c **** 
 699:Generated_Source\PSoC4/cyfitter_cfg.c **** 		/* Zero out critical memory blocks before beginning configuration */
ARM GAS  C:\Users\gjl\AppData\Local\Temp\cczpiFjR.s 			page 22


 700:Generated_Source\PSoC4/cyfitter_cfg.c **** 		for (i = 0u; i < (sizeof(cfg_memset_list)/sizeof(cfg_memset_list[0])); i++)
 496              		.loc 1 700 0
 497 00f4 FB1D     		adds	r3, r7, #7
 498 00f6 0022     		movs	r2, #0
 499 00f8 1A70     		strb	r2, [r3]
 500 00fa 22E0     		b	.L21
 501              	.L22:
 502              	.LBB4:
 701:Generated_Source\PSoC4/cyfitter_cfg.c **** 		{
 702:Generated_Source\PSoC4/cyfitter_cfg.c **** 			const cfg_memset_t CYCODE * CYDATA ms = &cfg_memset_list[i];
 503              		.loc 1 702 0 discriminator 3
 504 00fc FB1D     		adds	r3, r7, #7
 505 00fe 1A78     		ldrb	r2, [r3]
 506 0100 1300     		movs	r3, r2
 507 0102 5B00     		lsls	r3, r3, #1
 508 0104 9B18     		adds	r3, r3, r2
 509 0106 5B00     		lsls	r3, r3, #1
 510 0108 464A     		ldr	r2, .L23
 511 010a 9B18     		adds	r3, r3, r2
 512 010c 3B60     		str	r3, [r7]
 703:Generated_Source\PSoC4/cyfitter_cfg.c **** 			CYMEMZERO(ms->address, (size_t)(uint32)(ms->size));
 513              		.loc 1 703 0 discriminator 3
 514 010e 3B68     		ldr	r3, [r7]
 515 0110 1A78     		ldrb	r2, [r3]
 516 0112 5978     		ldrb	r1, [r3, #1]
 517 0114 0902     		lsls	r1, r1, #8
 518 0116 0A43     		orrs	r2, r1
 519 0118 9978     		ldrb	r1, [r3, #2]
 520 011a 0904     		lsls	r1, r1, #16
 521 011c 0A43     		orrs	r2, r1
 522 011e DB78     		ldrb	r3, [r3, #3]
 523 0120 1B06     		lsls	r3, r3, #24
 524 0122 1343     		orrs	r3, r2
 525 0124 1800     		movs	r0, r3
 526 0126 3B68     		ldr	r3, [r7]
 527 0128 1A79     		ldrb	r2, [r3, #4]
 528 012a 5B79     		ldrb	r3, [r3, #5]
 529 012c 1B02     		lsls	r3, r3, #8
 530 012e 1343     		orrs	r3, r2
 531 0130 9BB2     		uxth	r3, r3
 532 0132 1900     		movs	r1, r3
 533 0134 FFF7FEFF 		bl	CYMEMZERO
 534              	.LBE4:
 700:Generated_Source\PSoC4/cyfitter_cfg.c **** 		{
 535              		.loc 1 700 0 discriminator 3
 536 0138 FB1D     		adds	r3, r7, #7
 537 013a 1A78     		ldrb	r2, [r3]
 538 013c FB1D     		adds	r3, r7, #7
 539 013e 0132     		adds	r2, r2, #1
 540 0140 1A70     		strb	r2, [r3]
 541              	.L21:
 700:Generated_Source\PSoC4/cyfitter_cfg.c **** 		{
 542              		.loc 1 700 0 is_stmt 0 discriminator 1
 543 0142 FB1D     		adds	r3, r7, #7
 544 0144 1B78     		ldrb	r3, [r3]
 545 0146 012B     		cmp	r3, #1
 546 0148 D8D9     		bls	.L22
ARM GAS  C:\Users\gjl\AppData\Local\Temp\cczpiFjR.s 			page 23


 704:Generated_Source\PSoC4/cyfitter_cfg.c **** 		}
 705:Generated_Source\PSoC4/cyfitter_cfg.c **** 
 706:Generated_Source\PSoC4/cyfitter_cfg.c **** 		cfg_write_bytes32(cy_cfg_addr_table, cy_cfg_data_table);
 547              		.loc 1 706 0 is_stmt 1
 548 014a 374A     		ldr	r2, .L23+4
 549 014c 374B     		ldr	r3, .L23+8
 550 014e 1100     		movs	r1, r2
 551 0150 1800     		movs	r0, r3
 552 0152 FFF7FEFF 		bl	cfg_write_bytes32
 707:Generated_Source\PSoC4/cyfitter_cfg.c **** 
 708:Generated_Source\PSoC4/cyfitter_cfg.c **** 		/* Perform normal device configuration. Order is not critical for these items. */
 709:Generated_Source\PSoC4/cyfitter_cfg.c **** 		CY_SET_REG16((void *)(CYREG_UDB_BCTL0_DRV), 0x0A00u);
 553              		.loc 1 709 0
 554 0156 364B     		ldr	r3, .L23+12
 555 0158 A022     		movs	r2, #160
 556 015a 1201     		lsls	r2, r2, #4
 557 015c 1A80     		strh	r2, [r3]
 710:Generated_Source\PSoC4/cyfitter_cfg.c **** 		CY_SET_REG8((void *)(CYREG_UDB_BCTL0_DRV + 0x2u), 0x01u);
 558              		.loc 1 710 0
 559 015e 354B     		ldr	r3, .L23+16
 560 0160 0122     		movs	r2, #1
 561 0162 1A70     		strb	r2, [r3]
 711:Generated_Source\PSoC4/cyfitter_cfg.c **** 
 712:Generated_Source\PSoC4/cyfitter_cfg.c **** 		/* HSIOM Starting address: CYDEV_HSIOM_BASE */
 713:Generated_Source\PSoC4/cyfitter_cfg.c **** 		CY_SET_REG32((void *)(CYDEV_HSIOM_BASE), 0x00303303u);
 562              		.loc 1 713 0
 563 0164 344B     		ldr	r3, .L23+20
 564 0166 354A     		ldr	r2, .L23+24
 565 0168 1A60     		str	r2, [r3]
 714:Generated_Source\PSoC4/cyfitter_cfg.c **** 		CY_SET_REG32((void *)(CYREG_HSIOM_PORT_SEL1), 0x03000003u);
 566              		.loc 1 714 0
 567 016a 354B     		ldr	r3, .L23+28
 568 016c 354A     		ldr	r2, .L23+32
 569 016e 1A60     		str	r2, [r3]
 715:Generated_Source\PSoC4/cyfitter_cfg.c **** 		CY_SET_REG32((void *)(CYREG_HSIOM_PORT_SEL3), 0x303000EEu);
 570              		.loc 1 715 0
 571 0170 354B     		ldr	r3, .L23+36
 572 0172 364A     		ldr	r2, .L23+40
 573 0174 1A60     		str	r2, [r3]
 716:Generated_Source\PSoC4/cyfitter_cfg.c **** 
 717:Generated_Source\PSoC4/cyfitter_cfg.c **** 		/* UDB_PA_0 Starting address: CYDEV_UDB_PA0_BASE */
 718:Generated_Source\PSoC4/cyfitter_cfg.c **** 		CY_SET_REG32((void *)(CYDEV_UDB_PA0_BASE), 0x00990004u);
 574              		.loc 1 718 0
 575 0176 364B     		ldr	r3, .L23+44
 576 0178 364A     		ldr	r2, .L23+48
 577 017a 1A60     		str	r2, [r3]
 719:Generated_Source\PSoC4/cyfitter_cfg.c **** 		CY_SET_REG32((void *)(CYREG_UDB_PA0_CFG4), 0x22000000u);
 578              		.loc 1 719 0
 579 017c 364B     		ldr	r3, .L23+52
 580 017e 8822     		movs	r2, #136
 581 0180 9205     		lsls	r2, r2, #22
 582 0182 1A60     		str	r2, [r3]
 720:Generated_Source\PSoC4/cyfitter_cfg.c **** 		CY_SET_REG32((void *)(CYREG_UDB_PA0_CFG8), 0x089C0000u);
 583              		.loc 1 720 0
 584 0184 354B     		ldr	r3, .L23+56
 585 0186 364A     		ldr	r2, .L23+60
 586 0188 1A60     		str	r2, [r3]
ARM GAS  C:\Users\gjl\AppData\Local\Temp\cczpiFjR.s 			page 24


 721:Generated_Source\PSoC4/cyfitter_cfg.c **** 
 722:Generated_Source\PSoC4/cyfitter_cfg.c **** 		/* UDB_PA_1 Starting address: CYDEV_UDB_PA1_BASE */
 723:Generated_Source\PSoC4/cyfitter_cfg.c **** 		CY_SET_REG32((void *)(CYDEV_UDB_PA1_BASE), 0x00990000u);
 587              		.loc 1 723 0
 588 018a 364B     		ldr	r3, .L23+64
 589 018c 9922     		movs	r2, #153
 590 018e 1204     		lsls	r2, r2, #16
 591 0190 1A60     		str	r2, [r3]
 724:Generated_Source\PSoC4/cyfitter_cfg.c **** 		CY_SET_REG32((void *)(CYREG_UDB_PA1_CFG8), 0x20030000u);
 592              		.loc 1 724 0
 593 0192 354B     		ldr	r3, .L23+68
 594 0194 354A     		ldr	r2, .L23+72
 595 0196 1A60     		str	r2, [r3]
 725:Generated_Source\PSoC4/cyfitter_cfg.c **** 
 726:Generated_Source\PSoC4/cyfitter_cfg.c **** 		/* UDB_PA_2 Starting address: CYDEV_UDB_PA2_BASE */
 727:Generated_Source\PSoC4/cyfitter_cfg.c **** 		CY_SET_REG32((void *)(CYDEV_UDB_PA2_BASE), 0x00990000u);
 596              		.loc 1 727 0
 597 0198 354B     		ldr	r3, .L23+76
 598 019a 9922     		movs	r2, #153
 599 019c 1204     		lsls	r2, r2, #16
 600 019e 1A60     		str	r2, [r3]
 728:Generated_Source\PSoC4/cyfitter_cfg.c **** 
 729:Generated_Source\PSoC4/cyfitter_cfg.c **** 		/* UDB_PA_3 Starting address: CYDEV_UDB_PA3_BASE */
 730:Generated_Source\PSoC4/cyfitter_cfg.c **** 		CY_SET_REG32((void *)(CYDEV_UDB_PA3_BASE), 0x00990004u);
 601              		.loc 1 730 0
 602 01a0 344B     		ldr	r3, .L23+80
 603 01a2 2C4A     		ldr	r2, .L23+48
 604 01a4 1A60     		str	r2, [r3]
 731:Generated_Source\PSoC4/cyfitter_cfg.c **** 		CY_SET_REG32((void *)(CYREG_UDB_PA3_CFG4), 0x22000000u);
 605              		.loc 1 731 0
 606 01a6 344B     		ldr	r3, .L23+84
 607 01a8 8822     		movs	r2, #136
 608 01aa 9205     		lsls	r2, r2, #22
 609 01ac 1A60     		str	r2, [r3]
 732:Generated_Source\PSoC4/cyfitter_cfg.c **** 		CY_SET_REG32((void *)(CYREG_UDB_PA3_CFG8), 0x1D000000u);
 610              		.loc 1 732 0
 611 01ae 334B     		ldr	r3, .L23+88
 612 01b0 E822     		movs	r2, #232
 613 01b2 5205     		lsls	r2, r2, #21
 614 01b4 1A60     		str	r2, [r3]
 733:Generated_Source\PSoC4/cyfitter_cfg.c **** 
 734:Generated_Source\PSoC4/cyfitter_cfg.c **** 		/* Enable UDB array and digital routing */
 735:Generated_Source\PSoC4/cyfitter_cfg.c **** 		CY_SET_XTND_REG8((void *)CYREG_UDB_UDBIF_WAIT_CFG, (uint8)((CY_GET_XTND_REG8((void *)CYREG_UDB_UD
 615              		.loc 1 735 0
 616 01b6 324A     		ldr	r2, .L23+92
 617 01b8 314B     		ldr	r3, .L23+92
 618 01ba 1B78     		ldrb	r3, [r3]
 619 01bc DBB2     		uxtb	r3, r3
 620 01be 3C21     		movs	r1, #60
 621 01c0 8B43     		bics	r3, r1
 622 01c2 DBB2     		uxtb	r3, r3
 623 01c4 1421     		movs	r1, #20
 624 01c6 0B43     		orrs	r3, r1
 625 01c8 DBB2     		uxtb	r3, r3
 626 01ca 1370     		strb	r3, [r2]
 736:Generated_Source\PSoC4/cyfitter_cfg.c **** 		CY_SET_XTND_REG8((void *)CYREG_UDB_UDBIF_BANK_CTL, (uint8)(CY_GET_XTND_REG8((void *)CYREG_UDB_UDB
 627              		.loc 1 736 0
ARM GAS  C:\Users\gjl\AppData\Local\Temp\cczpiFjR.s 			page 25


 628 01cc 2D4A     		ldr	r2, .L23+96
 629 01ce 2D4B     		ldr	r3, .L23+96
 630 01d0 1B78     		ldrb	r3, [r3]
 631 01d2 DBB2     		uxtb	r3, r3
 632 01d4 1621     		movs	r1, #22
 633 01d6 0B43     		orrs	r3, r1
 634 01d8 DBB2     		uxtb	r3, r3
 635 01da 1370     		strb	r3, [r2]
 636              	.LBE3:
 737:Generated_Source\PSoC4/cyfitter_cfg.c **** 	}
 738:Generated_Source\PSoC4/cyfitter_cfg.c **** 
 739:Generated_Source\PSoC4/cyfitter_cfg.c **** 	/* Perform second pass device configuration. These items must be configured in specific order afte
 740:Generated_Source\PSoC4/cyfitter_cfg.c **** 	/* IOPINS0_0 Starting address: CYDEV_PRT0_BASE */
 741:Generated_Source\PSoC4/cyfitter_cfg.c **** 	CY_SET_REG32((void *)(CYDEV_PRT0_BASE), 0x000000FDu);
 637              		.loc 1 741 0
 638 01dc 2A4B     		ldr	r3, .L23+100
 639 01de FD22     		movs	r2, #253
 640 01e0 1A60     		str	r2, [r3]
 742:Generated_Source\PSoC4/cyfitter_cfg.c **** 	CY_SET_REG32((void *)(CYREG_PRT0_PC), 0x004B2936u);
 641              		.loc 1 742 0
 642 01e2 2A4B     		ldr	r3, .L23+104
 643 01e4 2A4A     		ldr	r2, .L23+108
 644 01e6 1A60     		str	r2, [r3]
 743:Generated_Source\PSoC4/cyfitter_cfg.c **** 
 744:Generated_Source\PSoC4/cyfitter_cfg.c **** 	/* IOPINS0_1 Starting address: CYDEV_PRT1_BASE */
 745:Generated_Source\PSoC4/cyfitter_cfg.c **** 	CY_SET_REG32((void *)(CYDEV_PRT1_BASE), 0x00000041u);
 645              		.loc 1 745 0
 646 01e8 2A4B     		ldr	r3, .L23+112
 647 01ea 4122     		movs	r2, #65
 648 01ec 1A60     		str	r2, [r3]
 746:Generated_Source\PSoC4/cyfitter_cfg.c **** 	CY_SET_REG32((void *)(CYREG_PRT1_PC), 0x00100006u);
 649              		.loc 1 746 0
 650 01ee 2A4B     		ldr	r3, .L23+116
 651 01f0 2A4A     		ldr	r2, .L23+120
 652 01f2 1A60     		str	r2, [r3]
 747:Generated_Source\PSoC4/cyfitter_cfg.c **** 
 748:Generated_Source\PSoC4/cyfitter_cfg.c **** 	/* IOPINS0_2 Starting address: CYDEV_PRT2_BASE */
 749:Generated_Source\PSoC4/cyfitter_cfg.c **** 	CY_SET_REG32((void *)(CYDEV_PRT2_BASE), 0x00000001u);
 653              		.loc 1 749 0
 654 01f4 2A4B     		ldr	r3, .L23+124
 655 01f6 0122     		movs	r2, #1
 656 01f8 1A60     		str	r2, [r3]
 750:Generated_Source\PSoC4/cyfitter_cfg.c **** 	CY_SET_REG32((void *)(CYREG_PRT2_PC), 0x00DB6DB0u);
 657              		.loc 1 750 0
 658 01fa 2A4B     		ldr	r3, .L23+128
 659 01fc 2A4A     		ldr	r2, .L23+132
 660 01fe 1A60     		str	r2, [r3]
 751:Generated_Source\PSoC4/cyfitter_cfg.c **** 	CY_SET_REG32((void *)(CYREG_PRT2_PC2), 0x00000001u);
 661              		.loc 1 751 0
 662 0200 2A4B     		ldr	r3, .L23+136
 663 0202 0122     		movs	r2, #1
 664 0204 1A60     		str	r2, [r3]
 752:Generated_Source\PSoC4/cyfitter_cfg.c **** 
 753:Generated_Source\PSoC4/cyfitter_cfg.c **** 	/* IOPINS0_3 Starting address: CYDEV_PRT3_BASE */
 754:Generated_Source\PSoC4/cyfitter_cfg.c **** 	CY_SET_REG32((void *)(CYDEV_PRT3_BASE), 0x000000F3u);
 665              		.loc 1 754 0
 666 0206 2A4B     		ldr	r3, .L23+140
ARM GAS  C:\Users\gjl\AppData\Local\Temp\cczpiFjR.s 			page 26


 667 0208 F322     		movs	r2, #243
 668 020a 1A60     		str	r2, [r3]
 755:Generated_Source\PSoC4/cyfitter_cfg.c **** 	CY_SET_REG32((void *)(CYREG_PRT3_PC), 0x00CB2024u);
 669              		.loc 1 755 0
 670 020c 294B     		ldr	r3, .L23+144
 671 020e 2A4A     		ldr	r2, .L23+148
 672 0210 1A60     		str	r2, [r3]
 756:Generated_Source\PSoC4/cyfitter_cfg.c **** 
 757:Generated_Source\PSoC4/cyfitter_cfg.c **** 
 758:Generated_Source\PSoC4/cyfitter_cfg.c **** 	/* Setup clocks based on selections from Clock DWR */
 759:Generated_Source\PSoC4/cyfitter_cfg.c **** 	ClockSetup();
 673              		.loc 1 759 0
 674 0212 FFF7F5FE 		bl	ClockSetup
 760:Generated_Source\PSoC4/cyfitter_cfg.c **** 
 761:Generated_Source\PSoC4/cyfitter_cfg.c **** 	/* Perform basic analog initialization to defaults */
 762:Generated_Source\PSoC4/cyfitter_cfg.c **** 	AnalogSetDefault();
 675              		.loc 1 762 0
 676 0216 FFF7FEFF 		bl	AnalogSetDefault
 763:Generated_Source\PSoC4/cyfitter_cfg.c **** 
 764:Generated_Source\PSoC4/cyfitter_cfg.c **** }
 677              		.loc 1 764 0
 678 021a C046     		nop
 679 021c BD46     		mov	sp, r7
 680 021e 02B0     		add	sp, sp, #8
 681              		@ sp needed
 682 0220 80BD     		pop	{r7, pc}
 683              	.L24:
 684 0222 C046     		.align	2
 685              	.L23:
 686 0224 00000000 		.word	cfg_memset_list.4876
 687 0228 30000000 		.word	cy_cfg_data_table.4871
 688 022c 0C000000 		.word	cy_cfg_addr_table.4870
 689 0230 00600F40 		.word	1074749440
 690 0234 02600F40 		.word	1074749442
 691 0238 00000140 		.word	1073807360
 692 023c 03333000 		.word	3158787
 693 0240 04000140 		.word	1073807364
 694 0244 03000003 		.word	50331651
 695 0248 0C000140 		.word	1073807372
 696 024c EE003030 		.word	808452334
 697 0250 00500F40 		.word	1074745344
 698 0254 04009900 		.word	10027012
 699 0258 04500F40 		.word	1074745348
 700 025c 08500F40 		.word	1074745352
 701 0260 00009C08 		.word	144441344
 702 0264 10500F40 		.word	1074745360
 703 0268 18500F40 		.word	1074745368
 704 026c 00000320 		.word	537067520
 705 0270 20500F40 		.word	1074745376
 706 0274 30500F40 		.word	1074745392
 707 0278 34500F40 		.word	1074745396
 708 027c 38500F40 		.word	1074745400
 709 0280 01700F40 		.word	1074753537
 710 0284 00700F40 		.word	1074753536
 711 0288 00000440 		.word	1074003968
 712 028c 08000440 		.word	1074003976
 713 0290 36294B00 		.word	4925750
ARM GAS  C:\Users\gjl\AppData\Local\Temp\cczpiFjR.s 			page 27


 714 0294 00010440 		.word	1074004224
 715 0298 08010440 		.word	1074004232
 716 029c 06001000 		.word	1048582
 717 02a0 00020440 		.word	1074004480
 718 02a4 08020440 		.word	1074004488
 719 02a8 B06DDB00 		.word	14380464
 720 02ac 18020440 		.word	1074004504
 721 02b0 00030440 		.word	1074004736
 722 02b4 08030440 		.word	1074004744
 723 02b8 2420CB00 		.word	13312036
 724              		.cfi_endproc
 725              	.LFE7:
 726              		.size	cyfitter_cfg, .-cyfitter_cfg
 727              		.section	.rodata
 728              		.align	2
 729              		.type	cfg_memset_list.4876, %object
 730              		.size	cfg_memset_list.4876, 12
 731              	cfg_memset_list.4876:
 732 0000 00300F40 		.word	1074737152
 733 0004 0004     		.short	1024
 734 0006 00400F40 		.4byte	1074741248
 735 000a 0004     		.short	1024
 736              		.align	2
 737              		.type	cy_cfg_addr_table.4870, %object
 738              		.size	cy_cfg_addr_table.4870, 36
 739              	cy_cfg_addr_table.4870:
 740 000c 01000F40 		.word	1074724865
 741 0010 52300F40 		.word	1074737234
 742 0014 2D310F40 		.word	1074737453
 743 0018 51320F40 		.word	1074737745
 744 001c 47330F40 		.word	1074737991
 745 0020 0A400F40 		.word	1074741258
 746 0024 11410F40 		.word	1074741521
 747 0028 11430F40 		.word	1074742033
 748 002c 02600F40 		.word	1074749442
 749              		.align	2
 750              		.type	cy_cfg_data_table.4871, %object
 751              		.size	cy_cfg_data_table.4871, 652
 752              	cy_cfg_data_table.4871:
 753 0030 72       		.byte	114
 754 0031 0F       		.byte	15
 755 0032 00       		.byte	0
 756 0033 11       		.byte	17
 757 0034 01       		.byte	1
 758 0035 09       		.byte	9
 759 0036 02       		.byte	2
 760 0037 22       		.byte	34
 761 0038 03       		.byte	3
 762 0039 12       		.byte	18
 763 003a 06       		.byte	6
 764 003b 80       		.byte	-128
 765 003c 07       		.byte	7
 766 003d 02       		.byte	2
 767 003e 0B       		.byte	11
 768 003f 40       		.byte	64
 769 0040 0C       		.byte	12
 770 0041 75       		.byte	117
ARM GAS  C:\Users\gjl\AppData\Local\Temp\cczpiFjR.s 			page 28


 771 0042 0E       		.byte	14
 772 0043 08       		.byte	8
 773 0044 0F       		.byte	15
 774 0045 20       		.byte	32
 775 0046 10       		.byte	16
 776 0047 42       		.byte	66
 777 0048 11       		.byte	17
 778 0049 60       		.byte	96
 779 004a 12       		.byte	18
 780 004b 24       		.byte	36
 781 004c 14       		.byte	20
 782 004d 05       		.byte	5
 783 004e 16       		.byte	22
 784 004f 0A       		.byte	10
 785 0050 18       		.byte	24
 786 0051 24       		.byte	36
 787 0052 19       		.byte	25
 788 0053 02       		.byte	2
 789 0054 1A       		.byte	26
 790 0055 52       		.byte	82
 791 0056 1B       		.byte	27
 792 0057 05       		.byte	5
 793 0058 1D       		.byte	29
 794 0059 14       		.byte	20
 795 005a 1E       		.byte	30
 796 005b 80       		.byte	-128
 797 005c 1F       		.byte	31
 798 005d 0A       		.byte	10
 799 005e 21       		.byte	33
 800 005f 1F       		.byte	31
 801 0060 24       		.byte	36
 802 0061 22       		.byte	34
 803 0062 26       		.byte	38
 804 0063 04       		.byte	4
 805 0064 30       		.byte	48
 806 0065 80       		.byte	-128
 807 0066 31       		.byte	49
 808 0067 40       		.byte	64
 809 0068 32       		.byte	50
 810 0069 0F       		.byte	15
 811 006a 33       		.byte	51
 812 006b 20       		.byte	32
 813 006c 34       		.byte	52
 814 006d 70       		.byte	112
 815 006e 35       		.byte	53
 816 006f 07       		.byte	7
 817 0070 36       		.byte	54
 818 0071 80       		.byte	-128
 819 0072 37       		.byte	55
 820 0073 18       		.byte	24
 821 0074 38       		.byte	56
 822 0075 80       		.byte	-128
 823 0076 39       		.byte	57
 824 0077 0A       		.byte	10
 825 0078 3A       		.byte	58
 826 0079 08       		.byte	8
 827 007a 3E       		.byte	62
ARM GAS  C:\Users\gjl\AppData\Local\Temp\cczpiFjR.s 			page 29


 828 007b 01       		.byte	1
 829 007c 3F       		.byte	63
 830 007d 05       		.byte	5
 831 007e 58       		.byte	88
 832 007f 04       		.byte	4
 833 0080 59       		.byte	89
 834 0081 04       		.byte	4
 835 0082 5B       		.byte	91
 836 0083 04       		.byte	4
 837 0084 5C       		.byte	92
 838 0085 11       		.byte	17
 839 0086 5F       		.byte	95
 840 0087 01       		.byte	1
 841 0088 80       		.byte	-128
 842 0089 C0       		.byte	-64
 843 008a 82       		.byte	-126
 844 008b 01       		.byte	1
 845 008c 83       		.byte	-125
 846 008d 20       		.byte	32
 847 008e 85       		.byte	-123
 848 008f 03       		.byte	3
 849 0090 88       		.byte	-120
 850 0091 50       		.byte	80
 851 0092 8A       		.byte	-118
 852 0093 AE       		.byte	-82
 853 0094 8B       		.byte	-117
 854 0095 10       		.byte	16
 855 0096 8C       		.byte	-116
 856 0097 AA       		.byte	-86
 857 0098 8F       		.byte	-113
 858 0099 10       		.byte	16
 859 009a 91       		.byte	-111
 860 009b 0A       		.byte	10
 861 009c 93       		.byte	-109
 862 009d 05       		.byte	5
 863 009e 94       		.byte	-108
 864 009f A0       		.byte	-96
 865 00a0 96       		.byte	-106
 866 00a1 5C       		.byte	92
 867 00a2 97       		.byte	-105
 868 00a3 20       		.byte	32
 869 00a4 98       		.byte	-104
 870 00a5 30       		.byte	48
 871 00a6 9A       		.byte	-102
 872 00a7 01       		.byte	1
 873 00a8 9B       		.byte	-101
 874 00a9 40       		.byte	64
 875 00aa 9C       		.byte	-100
 876 00ab 06       		.byte	6
 877 00ac 9D       		.byte	-99
 878 00ad 0C       		.byte	12
 879 00ae A5       		.byte	-91
 880 00af 05       		.byte	5
 881 00b0 A7       		.byte	-89
 882 00b1 0A       		.byte	10
 883 00b2 AB       		.byte	-85
 884 00b3 0A       		.byte	10
ARM GAS  C:\Users\gjl\AppData\Local\Temp\cczpiFjR.s 			page 30


 885 00b4 AF       		.byte	-81
 886 00b5 40       		.byte	64
 887 00b6 B0       		.byte	-80
 888 00b7 01       		.byte	1
 889 00b8 B1       		.byte	-79
 890 00b9 10       		.byte	16
 891 00ba B2       		.byte	-78
 892 00bb F0       		.byte	-16
 893 00bc B3       		.byte	-77
 894 00bd 20       		.byte	32
 895 00be B4       		.byte	-76
 896 00bf 01       		.byte	1
 897 00c0 B5       		.byte	-75
 898 00c1 40       		.byte	64
 899 00c2 B6       		.byte	-74
 900 00c3 0F       		.byte	15
 901 00c4 B7       		.byte	-73
 902 00c5 0F       		.byte	15
 903 00c6 B8       		.byte	-72
 904 00c7 A2       		.byte	-94
 905 00c8 B9       		.byte	-71
 906 00c9 2A       		.byte	42
 907 00ca BE       		.byte	-66
 908 00cb 01       		.byte	1
 909 00cc BF       		.byte	-65
 910 00cd 05       		.byte	5
 911 00ce D8       		.byte	-40
 912 00cf 04       		.byte	4
 913 00d0 D9       		.byte	-39
 914 00d1 04       		.byte	4
 915 00d2 DC       		.byte	-36
 916 00d3 11       		.byte	17
 917 00d4 DF       		.byte	-33
 918 00d5 01       		.byte	1
 919 00d6 00       		.byte	0
 920 00d7 41       		.byte	65
 921 00d8 01       		.byte	1
 922 00d9 08       		.byte	8
 923 00da 05       		.byte	5
 924 00db 10       		.byte	16
 925 00dc 07       		.byte	7
 926 00dd 41       		.byte	65
 927 00de 09       		.byte	9
 928 00df 40       		.byte	64
 929 00e0 0A       		.byte	10
 930 00e1 A8       		.byte	-88
 931 00e2 0B       		.byte	11
 932 00e3 01       		.byte	1
 933 00e4 0D       		.byte	13
 934 00e5 80       		.byte	-128
 935 00e6 0E       		.byte	14
 936 00e7 14       		.byte	20
 937 00e8 12       		.byte	18
 938 00e9 20       		.byte	32
 939 00ea 18       		.byte	24
 940 00eb 49       		.byte	73
 941 00ec 19       		.byte	25
ARM GAS  C:\Users\gjl\AppData\Local\Temp\cczpiFjR.s 			page 31


 942 00ed 01       		.byte	1
 943 00ee 1A       		.byte	26
 944 00ef 28       		.byte	40
 945 00f0 1D       		.byte	29
 946 00f1 90       		.byte	-112
 947 00f2 1E       		.byte	30
 948 00f3 10       		.byte	16
 949 00f4 1F       		.byte	31
 950 00f5 21       		.byte	33
 951 00f6 21       		.byte	33
 952 00f7 05       		.byte	5
 953 00f8 22       		.byte	34
 954 00f9 60       		.byte	96
 955 00fa 26       		.byte	38
 956 00fb 01       		.byte	1
 957 00fc 27       		.byte	39
 958 00fd 25       		.byte	37
 959 00fe 29       		.byte	41
 960 00ff 01       		.byte	1
 961 0100 2C       		.byte	44
 962 0101 01       		.byte	1
 963 0102 2E       		.byte	46
 964 0103 10       		.byte	16
 965 0104 2F       		.byte	47
 966 0105 20       		.byte	32
 967 0106 30       		.byte	48
 968 0107 02       		.byte	2
 969 0108 32       		.byte	50
 970 0109 60       		.byte	96
 971 010a 35       		.byte	53
 972 010b 08       		.byte	8
 973 010c 37       		.byte	55
 974 010d 51       		.byte	81
 975 010e 38       		.byte	56
 976 010f 09       		.byte	9
 977 0110 39       		.byte	57
 978 0111 80       		.byte	-128
 979 0112 3B       		.byte	59
 980 0113 10       		.byte	16
 981 0114 3D       		.byte	61
 982 0115 10       		.byte	16
 983 0116 3E       		.byte	62
 984 0117 04       		.byte	4
 985 0118 3F       		.byte	63
 986 0119 41       		.byte	65
 987 011a 45       		.byte	69
 988 011b 80       		.byte	-128
 989 011c 46       		.byte	70
 990 011d 01       		.byte	1
 991 011e 68       		.byte	104
 992 011f 02       		.byte	2
 993 0120 89       		.byte	-119
 994 0121 01       		.byte	1
 995 0122 C0       		.byte	-64
 996 0123 DD       		.byte	-35
 997 0124 C2       		.byte	-62
 998 0125 EF       		.byte	-17
ARM GAS  C:\Users\gjl\AppData\Local\Temp\cczpiFjR.s 			page 32


 999 0126 C4       		.byte	-60
 1000 0127 04       		.byte	4
 1001 0128 CA       		.byte	-54
 1002 0129 71       		.byte	113
 1003 012a CC       		.byte	-52
 1004 012b FD       		.byte	-3
 1005 012c CE       		.byte	-50
 1006 012d FF       		.byte	-1
 1007 012e E2       		.byte	-30
 1008 012f 20       		.byte	32
 1009 0130 00       		.byte	0
 1010 0131 10       		.byte	16
 1011 0132 01       		.byte	1
 1012 0133 04       		.byte	4
 1013 0134 02       		.byte	2
 1014 0135 0C       		.byte	12
 1015 0136 03       		.byte	3
 1016 0137 10       		.byte	16
 1017 0138 05       		.byte	5
 1018 0139 02       		.byte	2
 1019 013a 0C       		.byte	12
 1020 013b 0F       		.byte	15
 1021 013c 0E       		.byte	14
 1022 013d 20       		.byte	32
 1023 013e 10       		.byte	16
 1024 013f 16       		.byte	22
 1025 0140 11       		.byte	17
 1026 0141 42       		.byte	66
 1027 0142 12       		.byte	18
 1028 0143 09       		.byte	9
 1029 0144 13       		.byte	19
 1030 0145 AC       		.byte	-84
 1031 0146 14       		.byte	20
 1032 0147 02       		.byte	2
 1033 0148 15       		.byte	21
 1034 0149 40       		.byte	64
 1035 014a 16       		.byte	22
 1036 014b 30       		.byte	48
 1037 014c 17       		.byte	23
 1038 014d AE       		.byte	-82
 1039 014e 18       		.byte	24
 1040 014f 01       		.byte	1
 1041 0150 19       		.byte	25
 1042 0151 20       		.byte	32
 1043 0152 1A       		.byte	26
 1044 0153 1E       		.byte	30
 1045 0154 1B       		.byte	27
 1046 0155 11       		.byte	17
 1047 0156 1E       		.byte	30
 1048 0157 40       		.byte	64
 1049 0158 2A       		.byte	42
 1050 0159 40       		.byte	64
 1051 015a 2D       		.byte	45
 1052 015b 08       		.byte	8
 1053 015c 2F       		.byte	47
 1054 015d 11       		.byte	17
 1055 015e 30       		.byte	48
ARM GAS  C:\Users\gjl\AppData\Local\Temp\cczpiFjR.s 			page 33


 1056 015f 07       		.byte	7
 1057 0160 31       		.byte	49
 1058 0161 38       		.byte	56
 1059 0162 32       		.byte	50
 1060 0163 38       		.byte	56
 1061 0164 33       		.byte	51
 1062 0165 07       		.byte	7
 1063 0166 34       		.byte	52
 1064 0167 40       		.byte	64
 1065 0168 35       		.byte	53
 1066 0169 01       		.byte	1
 1067 016a 36       		.byte	54
 1068 016b 40       		.byte	64
 1069 016c 37       		.byte	55
 1070 016d C1       		.byte	-63
 1071 016e 38       		.byte	56
 1072 016f 20       		.byte	32
 1073 0170 39       		.byte	57
 1074 0171 A8       		.byte	-88
 1075 0172 3A       		.byte	58
 1076 0173 08       		.byte	8
 1077 0174 3B       		.byte	59
 1078 0175 02       		.byte	2
 1079 0176 3E       		.byte	62
 1080 0177 40       		.byte	64
 1081 0178 3F       		.byte	63
 1082 0179 10       		.byte	16
 1083 017a 58       		.byte	88
 1084 017b 04       		.byte	4
 1085 017c 59       		.byte	89
 1086 017d 04       		.byte	4
 1087 017e 5B       		.byte	91
 1088 017f 04       		.byte	4
 1089 0180 5C       		.byte	92
 1090 0181 11       		.byte	17
 1091 0182 5F       		.byte	95
 1092 0183 01       		.byte	1
 1093 0184 80       		.byte	-128
 1094 0185 40       		.byte	64
 1095 0186 85       		.byte	-123
 1096 0187 0C       		.byte	12
 1097 0188 87       		.byte	-121
 1098 0189 02       		.byte	2
 1099 018a 88       		.byte	-120
 1100 018b 45       		.byte	69
 1101 018c 89       		.byte	-119
 1102 018d 0A       		.byte	10
 1103 018e 8A       		.byte	-118
 1104 018f 0A       		.byte	10
 1105 0190 8B       		.byte	-117
 1106 0191 05       		.byte	5
 1107 0192 8C       		.byte	-116
 1108 0193 04       		.byte	4
 1109 0194 8D       		.byte	-115
 1110 0195 06       		.byte	6
 1111 0196 8E       		.byte	-114
 1112 0197 22       		.byte	34
ARM GAS  C:\Users\gjl\AppData\Local\Temp\cczpiFjR.s 			page 34


 1113 0198 90       		.byte	-112
 1114 0199 06       		.byte	6
 1115 019a 91       		.byte	-111
 1116 019b 01       		.byte	1
 1117 019c 92       		.byte	-110
 1118 019d 10       		.byte	16
 1119 019e 94       		.byte	-108
 1120 019f 40       		.byte	64
 1121 01a0 98       		.byte	-104
 1122 01a1 01       		.byte	1
 1123 01a2 9A       		.byte	-102
 1124 01a3 12       		.byte	18
 1125 01a4 9C       		.byte	-100
 1126 01a5 15       		.byte	21
 1127 01a6 9E       		.byte	-98
 1128 01a7 28       		.byte	40
 1129 01a8 A0       		.byte	-96
 1130 01a9 40       		.byte	64
 1131 01aa A4       		.byte	-92
 1132 01ab 40       		.byte	64
 1133 01ac A8       		.byte	-88
 1134 01ad 02       		.byte	2
 1135 01ae AA       		.byte	-86
 1136 01af 04       		.byte	4
 1137 01b0 AC       		.byte	-84
 1138 01b1 40       		.byte	64
 1139 01b2 B0       		.byte	-80
 1140 01b3 30       		.byte	48
 1141 01b4 B1       		.byte	-79
 1142 01b5 01       		.byte	1
 1143 01b6 B3       		.byte	-77
 1144 01b7 04       		.byte	4
 1145 01b8 B4       		.byte	-76
 1146 01b9 0F       		.byte	15
 1147 01ba B5       		.byte	-75
 1148 01bb 08       		.byte	8
 1149 01bc B6       		.byte	-74
 1150 01bd 40       		.byte	64
 1151 01be B7       		.byte	-73
 1152 01bf 02       		.byte	2
 1153 01c0 B8       		.byte	-72
 1154 01c1 80       		.byte	-128
 1155 01c2 B9       		.byte	-71
 1156 01c3 02       		.byte	2
 1157 01c4 BA       		.byte	-70
 1158 01c5 22       		.byte	34
 1159 01c6 BE       		.byte	-66
 1160 01c7 40       		.byte	64
 1161 01c8 BF       		.byte	-65
 1162 01c9 01       		.byte	1
 1163 01ca D8       		.byte	-40
 1164 01cb 04       		.byte	4
 1165 01cc D9       		.byte	-39
 1166 01cd 04       		.byte	4
 1167 01ce DC       		.byte	-36
 1168 01cf 31       		.byte	49
 1169 01d0 DF       		.byte	-33
ARM GAS  C:\Users\gjl\AppData\Local\Temp\cczpiFjR.s 			page 35


 1170 01d1 01       		.byte	1
 1171 01d2 00       		.byte	0
 1172 01d3 40       		.byte	64
 1173 01d4 01       		.byte	1
 1174 01d5 20       		.byte	32
 1175 01d6 03       		.byte	3
 1176 01d7 80       		.byte	-128
 1177 01d8 05       		.byte	5
 1178 01d9 41       		.byte	65
 1179 01da 09       		.byte	9
 1180 01db 20       		.byte	32
 1181 01dc 0A       		.byte	10
 1182 01dd 61       		.byte	97
 1183 01de 0D       		.byte	13
 1184 01df A8       		.byte	-88
 1185 01e0 0E       		.byte	14
 1186 01e1 40       		.byte	64
 1187 01e2 11       		.byte	17
 1188 01e3 08       		.byte	8
 1189 01e4 12       		.byte	18
 1190 01e5 49       		.byte	73
 1191 01e6 15       		.byte	21
 1192 01e7 10       		.byte	16
 1193 01e8 18       		.byte	24
 1194 01e9 40       		.byte	64
 1195 01ea 19       		.byte	25
 1196 01eb A1       		.byte	-95
 1197 01ec 1D       		.byte	29
 1198 01ed 68       		.byte	104
 1199 01ee 1E       		.byte	30
 1200 01ef 41       		.byte	65
 1201 01f0 1F       		.byte	31
 1202 01f1 08       		.byte	8
 1203 01f2 21       		.byte	33
 1204 01f3 54       		.byte	84
 1205 01f4 22       		.byte	34
 1206 01f5 02       		.byte	2
 1207 01f6 23       		.byte	35
 1208 01f7 10       		.byte	16
 1209 01f8 25       		.byte	37
 1210 01f9 05       		.byte	5
 1211 01fa 26       		.byte	38
 1212 01fb 10       		.byte	16
 1213 01fc 27       		.byte	39
 1214 01fd 01       		.byte	1
 1215 01fe 2C       		.byte	44
 1216 01ff 01       		.byte	1
 1217 0200 30       		.byte	48
 1218 0201 02       		.byte	2
 1219 0202 37       		.byte	55
 1220 0203 15       		.byte	21
 1221 0204 39       		.byte	57
 1222 0205 A8       		.byte	-88
 1223 0206 3D       		.byte	61
 1224 0207 0A       		.byte	10
 1225 0208 5C       		.byte	92
 1226 0209 10       		.byte	16
ARM GAS  C:\Users\gjl\AppData\Local\Temp\cczpiFjR.s 			page 36


 1227 020a 5D       		.byte	93
 1228 020b 40       		.byte	64
 1229 020c 5F       		.byte	95
 1230 020d 05       		.byte	5
 1231 020e 6D       		.byte	109
 1232 020f 90       		.byte	-112
 1233 0210 6F       		.byte	111
 1234 0211 50       		.byte	80
 1235 0212 7A       		.byte	122
 1236 0213 08       		.byte	8
 1237 0214 7B       		.byte	123
 1238 0215 08       		.byte	8
 1239 0216 81       		.byte	-127
 1240 0217 80       		.byte	-128
 1241 0218 83       		.byte	-125
 1242 0219 81       		.byte	-127
 1243 021a 86       		.byte	-122
 1244 021b 10       		.byte	16
 1245 021c 88       		.byte	-120
 1246 021d 01       		.byte	1
 1247 021e 89       		.byte	-119
 1248 021f 80       		.byte	-128
 1249 0220 8A       		.byte	-118
 1250 0221 40       		.byte	64
 1251 0222 8B       		.byte	-117
 1252 0223 44       		.byte	68
 1253 0224 8C       		.byte	-116
 1254 0225 10       		.byte	16
 1255 0226 8D       		.byte	-115
 1256 0227 80       		.byte	-128
 1257 0228 8E       		.byte	-114
 1258 0229 02       		.byte	2
 1259 022a 91       		.byte	-111
 1260 022b 40       		.byte	64
 1261 022c 92       		.byte	-110
 1262 022d 20       		.byte	32
 1263 022e 95       		.byte	-107
 1264 022f 90       		.byte	-112
 1265 0230 97       		.byte	-105
 1266 0231 50       		.byte	80
 1267 0232 9A       		.byte	-102
 1268 0233 01       		.byte	1
 1269 0234 9B       		.byte	-101
 1270 0235 04       		.byte	4
 1271 0236 9C       		.byte	-100
 1272 0237 01       		.byte	1
 1273 0238 9F       		.byte	-97
 1274 0239 50       		.byte	80
 1275 023a A0       		.byte	-96
 1276 023b 02       		.byte	2
 1277 023c A5       		.byte	-91
 1278 023d 40       		.byte	64
 1279 023e A9       		.byte	-87
 1280 023f 48       		.byte	72
 1281 0240 AB       		.byte	-85
 1282 0241 20       		.byte	32
 1283 0242 AD       		.byte	-83
ARM GAS  C:\Users\gjl\AppData\Local\Temp\cczpiFjR.s 			page 37


 1284 0243 04       		.byte	4
 1285 0244 AE       		.byte	-82
 1286 0245 04       		.byte	4
 1287 0246 B6       		.byte	-74
 1288 0247 01       		.byte	1
 1289 0248 B7       		.byte	-73
 1290 0249 01       		.byte	1
 1291 024a C0       		.byte	-64
 1292 024b 9B       		.byte	-101
 1293 024c C2       		.byte	-62
 1294 024d FF       		.byte	-1
 1295 024e C4       		.byte	-60
 1296 024f 4F       		.byte	79
 1297 0250 CA       		.byte	-54
 1298 0251 10       		.byte	16
 1299 0252 CC       		.byte	-52
 1300 0253 E1       		.byte	-31
 1301 0254 CE       		.byte	-50
 1302 0255 CE       		.byte	-50
 1303 0256 D6       		.byte	-42
 1304 0257 F0       		.byte	-16
 1305 0258 E0       		.byte	-32
 1306 0259 04       		.byte	4
 1307 025a E4       		.byte	-28
 1308 025b 08       		.byte	8
 1309 025c E6       		.byte	-26
 1310 025d 14       		.byte	20
 1311 025e EA       		.byte	-22
 1312 025f 50       		.byte	80
 1313 0260 09       		.byte	9
 1314 0261 08       		.byte	8
 1315 0262 0B       		.byte	11
 1316 0263 02       		.byte	2
 1317 0264 50       		.byte	80
 1318 0265 04       		.byte	4
 1319 0266 53       		.byte	83
 1320 0267 02       		.byte	2
 1321 0268 57       		.byte	87
 1322 0269 08       		.byte	8
 1323 026a 63       		.byte	99
 1324 026b 08       		.byte	8
 1325 026c 8B       		.byte	-117
 1326 026d 08       		.byte	8
 1327 026e C2       		.byte	-62
 1328 026f 50       		.byte	80
 1329 0270 D4       		.byte	-44
 1330 0271 E0       		.byte	-32
 1331 0272 D8       		.byte	-40
 1332 0273 40       		.byte	64
 1333 0274 5F       		.byte	95
 1334 0275 80       		.byte	-128
 1335 0276 62       		.byte	98
 1336 0277 04       		.byte	4
 1337 0278 81       		.byte	-127
 1338 0279 08       		.byte	8
 1339 027a 8E       		.byte	-114
 1340 027b 04       		.byte	4
ARM GAS  C:\Users\gjl\AppData\Local\Temp\cczpiFjR.s 			page 38


 1341 027c 9B       		.byte	-101
 1342 027d 80       		.byte	-128
 1343 027e A1       		.byte	-95
 1344 027f 08       		.byte	8
 1345 0280 AB       		.byte	-85
 1346 0281 81       		.byte	-127
 1347 0282 AD       		.byte	-83
 1348 0283 08       		.byte	8
 1349 0284 AF       		.byte	-81
 1350 0285 02       		.byte	2
 1351 0286 B4       		.byte	-76
 1352 0287 04       		.byte	4
 1353 0288 B7       		.byte	-73
 1354 0289 04       		.byte	4
 1355 028a D6       		.byte	-42
 1356 028b 20       		.byte	32
 1357 028c D8       		.byte	-40
 1358 028d 40       		.byte	64
 1359 028e E0       		.byte	-32
 1360 028f 80       		.byte	-128
 1361 0290 E8       		.byte	-24
 1362 0291 40       		.byte	64
 1363 0292 EA       		.byte	-22
 1364 0293 90       		.byte	-112
 1365 0294 EC       		.byte	-20
 1366 0295 20       		.byte	32
 1367 0296 0A       		.byte	10
 1368 0297 04       		.byte	4
 1369 0298 0B       		.byte	11
 1370 0299 20       		.byte	32
 1371 029a 22       		.byte	34
 1372 029b 80       		.byte	-128
 1373 029c 27       		.byte	39
 1374 029d 08       		.byte	8
 1375 029e 63       		.byte	99
 1376 029f 02       		.byte	2
 1377 02a0 65       		.byte	101
 1378 02a1 01       		.byte	1
 1379 02a2 81       		.byte	-127
 1380 02a3 01       		.byte	1
 1381 02a4 82       		.byte	-126
 1382 02a5 80       		.byte	-128
 1383 02a6 87       		.byte	-121
 1384 02a7 01       		.byte	1
 1385 02a8 8A       		.byte	-118
 1386 02a9 04       		.byte	4
 1387 02aa 8B       		.byte	-117
 1388 02ab 18       		.byte	24
 1389 02ac C2       		.byte	-62
 1390 02ad 0A       		.byte	10
 1391 02ae C8       		.byte	-56
 1392 02af 0C       		.byte	12
 1393 02b0 D6       		.byte	-42
 1394 02b1 02       		.byte	2
 1395 02b2 D8       		.byte	-40
 1396 02b3 01       		.byte	1
 1397 02b4 E2       		.byte	-30
ARM GAS  C:\Users\gjl\AppData\Local\Temp\cczpiFjR.s 			page 39


 1398 02b5 04       		.byte	4
 1399 02b6 E6       		.byte	-26
 1400 02b7 05       		.byte	5
 1401 02b8 10       		.byte	16
 1402 02b9 0A       		.byte	10
 1403 02ba 11       		.byte	17
 1404 02bb 01       		.byte	1
 1405              		.text
 1406              	.Letext0:
 1407              		.file 2 "c:\\program files (x86)\\cypress\\psoc creator\\4.2\\psoc creator\\import\\gnu\\arm\\5.4.
 1408              		.file 3 "Generated_Source\\PSoC4\\cytypes.h"