ARM GAS  C:\Users\gjl\AppData\Local\Temp\ccg1YjmT.s 			page 1


   1              		.syntax unified
   2              		.cpu cortex-m0
   3              		.fpu softvfp
   4              		.eabi_attribute 20, 1
   5              		.eabi_attribute 21, 1
   6              		.eabi_attribute 23, 3
   7              		.eabi_attribute 24, 1
   8              		.eabi_attribute 25, 1
   9              		.eabi_attribute 26, 1
  10              		.eabi_attribute 30, 6
  11              		.eabi_attribute 34, 0
  12              		.eabi_attribute 18, 4
  13              		.thumb
  14              		.syntax unified
  15              		.file	"EZI2C_PM.c"
  16              		.text
  17              	.Ltext0:
  18              		.cfi_sections	.debug_frame
  19              		.section	.text.EZI2C_Sleep,"ax",%progbits
  20              		.align	2
  21              		.global	EZI2C_Sleep
  22              		.code	16
  23              		.thumb_func
  24              		.type	EZI2C_Sleep, %function
  25              	EZI2C_Sleep:
  26              	.LFB0:
  27              		.file 1 "Generated_Source\\PSoC4\\EZI2C_PM.c"
   1:Generated_Source\PSoC4/EZI2C_PM.c **** /***************************************************************************//**
   2:Generated_Source\PSoC4/EZI2C_PM.c **** * \file EZI2C_PM.c
   3:Generated_Source\PSoC4/EZI2C_PM.c **** * \version 4.0
   4:Generated_Source\PSoC4/EZI2C_PM.c **** *
   5:Generated_Source\PSoC4/EZI2C_PM.c **** * \brief
   6:Generated_Source\PSoC4/EZI2C_PM.c **** *  This file provides the source code to the Power Management support for
   7:Generated_Source\PSoC4/EZI2C_PM.c **** *  the SCB Component.
   8:Generated_Source\PSoC4/EZI2C_PM.c **** *
   9:Generated_Source\PSoC4/EZI2C_PM.c **** * Note:
  10:Generated_Source\PSoC4/EZI2C_PM.c **** *
  11:Generated_Source\PSoC4/EZI2C_PM.c **** ********************************************************************************
  12:Generated_Source\PSoC4/EZI2C_PM.c **** * \copyright
  13:Generated_Source\PSoC4/EZI2C_PM.c **** * Copyright 2013-2017, Cypress Semiconductor Corporation.  All rights reserved.
  14:Generated_Source\PSoC4/EZI2C_PM.c **** * You may use this file only in accordance with the license, terms, conditions,
  15:Generated_Source\PSoC4/EZI2C_PM.c **** * disclaimers, and limitations in the end user license agreement accompanying
  16:Generated_Source\PSoC4/EZI2C_PM.c **** * the software package with which this file was provided.
  17:Generated_Source\PSoC4/EZI2C_PM.c **** *******************************************************************************/
  18:Generated_Source\PSoC4/EZI2C_PM.c **** 
  19:Generated_Source\PSoC4/EZI2C_PM.c **** #include "EZI2C.h"
  20:Generated_Source\PSoC4/EZI2C_PM.c **** #include "EZI2C_PVT.h"
  21:Generated_Source\PSoC4/EZI2C_PM.c **** 
  22:Generated_Source\PSoC4/EZI2C_PM.c **** #if(EZI2C_SCB_MODE_I2C_INC)
  23:Generated_Source\PSoC4/EZI2C_PM.c ****     #include "EZI2C_I2C_PVT.h"
  24:Generated_Source\PSoC4/EZI2C_PM.c **** #endif /* (EZI2C_SCB_MODE_I2C_INC) */
  25:Generated_Source\PSoC4/EZI2C_PM.c **** 
  26:Generated_Source\PSoC4/EZI2C_PM.c **** #if(EZI2C_SCB_MODE_EZI2C_INC)
  27:Generated_Source\PSoC4/EZI2C_PM.c ****     #include "EZI2C_EZI2C_PVT.h"
  28:Generated_Source\PSoC4/EZI2C_PM.c **** #endif /* (EZI2C_SCB_MODE_EZI2C_INC) */
  29:Generated_Source\PSoC4/EZI2C_PM.c **** 
  30:Generated_Source\PSoC4/EZI2C_PM.c **** #if(EZI2C_SCB_MODE_SPI_INC || EZI2C_SCB_MODE_UART_INC)
ARM GAS  C:\Users\gjl\AppData\Local\Temp\ccg1YjmT.s 			page 2


  31:Generated_Source\PSoC4/EZI2C_PM.c ****     #include "EZI2C_SPI_UART_PVT.h"
  32:Generated_Source\PSoC4/EZI2C_PM.c **** #endif /* (EZI2C_SCB_MODE_SPI_INC || EZI2C_SCB_MODE_UART_INC) */
  33:Generated_Source\PSoC4/EZI2C_PM.c **** 
  34:Generated_Source\PSoC4/EZI2C_PM.c **** 
  35:Generated_Source\PSoC4/EZI2C_PM.c **** /***************************************
  36:Generated_Source\PSoC4/EZI2C_PM.c **** *   Backup Structure declaration
  37:Generated_Source\PSoC4/EZI2C_PM.c **** ***************************************/
  38:Generated_Source\PSoC4/EZI2C_PM.c **** 
  39:Generated_Source\PSoC4/EZI2C_PM.c **** #if(EZI2C_SCB_MODE_UNCONFIG_CONST_CFG || \
  40:Generated_Source\PSoC4/EZI2C_PM.c ****    (EZI2C_SCB_MODE_I2C_CONST_CFG   && (!EZI2C_I2C_WAKE_ENABLE_CONST))   || \
  41:Generated_Source\PSoC4/EZI2C_PM.c ****    (EZI2C_SCB_MODE_EZI2C_CONST_CFG && (!EZI2C_EZI2C_WAKE_ENABLE_CONST)) || \
  42:Generated_Source\PSoC4/EZI2C_PM.c ****    (EZI2C_SCB_MODE_SPI_CONST_CFG   && (!EZI2C_SPI_WAKE_ENABLE_CONST))   || \
  43:Generated_Source\PSoC4/EZI2C_PM.c ****    (EZI2C_SCB_MODE_UART_CONST_CFG  && (!EZI2C_UART_WAKE_ENABLE_CONST)))
  44:Generated_Source\PSoC4/EZI2C_PM.c **** 
  45:Generated_Source\PSoC4/EZI2C_PM.c ****     EZI2C_BACKUP_STRUCT EZI2C_backup =
  46:Generated_Source\PSoC4/EZI2C_PM.c ****     {
  47:Generated_Source\PSoC4/EZI2C_PM.c ****         0u, /* enableState */
  48:Generated_Source\PSoC4/EZI2C_PM.c ****     };
  49:Generated_Source\PSoC4/EZI2C_PM.c **** #endif
  50:Generated_Source\PSoC4/EZI2C_PM.c **** 
  51:Generated_Source\PSoC4/EZI2C_PM.c **** 
  52:Generated_Source\PSoC4/EZI2C_PM.c **** /*******************************************************************************
  53:Generated_Source\PSoC4/EZI2C_PM.c **** * Function Name: EZI2C_Sleep
  54:Generated_Source\PSoC4/EZI2C_PM.c **** ****************************************************************************//**
  55:Generated_Source\PSoC4/EZI2C_PM.c **** *
  56:Generated_Source\PSoC4/EZI2C_PM.c **** *  Prepares the EZI2C component to enter Deep Sleep.
  57:Generated_Source\PSoC4/EZI2C_PM.c **** *  The “Enable wakeup from Deep Sleep Mode” selection has an influence on this 
  58:Generated_Source\PSoC4/EZI2C_PM.c **** *  function implementation:
  59:Generated_Source\PSoC4/EZI2C_PM.c **** *  - Checked: configures the component to be wakeup source from Deep Sleep.
  60:Generated_Source\PSoC4/EZI2C_PM.c **** *  - Unchecked: stores the current component state (enabled or disabled) and 
  61:Generated_Source\PSoC4/EZI2C_PM.c **** *    disables the component. See SCB_Stop() function for details about component 
  62:Generated_Source\PSoC4/EZI2C_PM.c **** *    disabling.
  63:Generated_Source\PSoC4/EZI2C_PM.c **** *
  64:Generated_Source\PSoC4/EZI2C_PM.c **** *  Call the EZI2C_Sleep() function before calling the 
  65:Generated_Source\PSoC4/EZI2C_PM.c **** *  CyPmSysDeepSleep() function. 
  66:Generated_Source\PSoC4/EZI2C_PM.c **** *  Refer to the PSoC Creator System Reference Guide for more information about 
  67:Generated_Source\PSoC4/EZI2C_PM.c **** *  power management functions and Low power section of this document for the 
  68:Generated_Source\PSoC4/EZI2C_PM.c **** *  selected mode.
  69:Generated_Source\PSoC4/EZI2C_PM.c **** *
  70:Generated_Source\PSoC4/EZI2C_PM.c **** *  This function should not be called before entering Sleep.
  71:Generated_Source\PSoC4/EZI2C_PM.c **** *
  72:Generated_Source\PSoC4/EZI2C_PM.c **** *******************************************************************************/
  73:Generated_Source\PSoC4/EZI2C_PM.c **** void EZI2C_Sleep(void)
  74:Generated_Source\PSoC4/EZI2C_PM.c **** {
  28              		.loc 1 74 0
  29              		.cfi_startproc
  30              		@ args = 0, pretend = 0, frame = 0
  31              		@ frame_needed = 1, uses_anonymous_args = 0
  32 0000 80B5     		push	{r7, lr}
  33              		.cfi_def_cfa_offset 8
  34              		.cfi_offset 7, -8
  35              		.cfi_offset 14, -4
  36 0002 00AF     		add	r7, sp, #0
  37              		.cfi_def_cfa_register 7
  75:Generated_Source\PSoC4/EZI2C_PM.c **** #if(EZI2C_SCB_MODE_UNCONFIG_CONST_CFG)
  76:Generated_Source\PSoC4/EZI2C_PM.c **** 
  77:Generated_Source\PSoC4/EZI2C_PM.c ****     if(EZI2C_SCB_WAKE_ENABLE_CHECK)
ARM GAS  C:\Users\gjl\AppData\Local\Temp\ccg1YjmT.s 			page 3


  78:Generated_Source\PSoC4/EZI2C_PM.c ****     {
  79:Generated_Source\PSoC4/EZI2C_PM.c ****         if(EZI2C_SCB_MODE_I2C_RUNTM_CFG)
  80:Generated_Source\PSoC4/EZI2C_PM.c ****         {
  81:Generated_Source\PSoC4/EZI2C_PM.c ****             EZI2C_I2CSaveConfig();
  82:Generated_Source\PSoC4/EZI2C_PM.c ****         }
  83:Generated_Source\PSoC4/EZI2C_PM.c ****         else if(EZI2C_SCB_MODE_EZI2C_RUNTM_CFG)
  84:Generated_Source\PSoC4/EZI2C_PM.c ****         {
  85:Generated_Source\PSoC4/EZI2C_PM.c ****             EZI2C_EzI2CSaveConfig();
  86:Generated_Source\PSoC4/EZI2C_PM.c ****         }
  87:Generated_Source\PSoC4/EZI2C_PM.c ****     #if(!EZI2C_CY_SCBIP_V1)
  88:Generated_Source\PSoC4/EZI2C_PM.c ****         else if(EZI2C_SCB_MODE_SPI_RUNTM_CFG)
  89:Generated_Source\PSoC4/EZI2C_PM.c ****         {
  90:Generated_Source\PSoC4/EZI2C_PM.c ****             EZI2C_SpiSaveConfig();
  91:Generated_Source\PSoC4/EZI2C_PM.c ****         }
  92:Generated_Source\PSoC4/EZI2C_PM.c ****         else if(EZI2C_SCB_MODE_UART_RUNTM_CFG)
  93:Generated_Source\PSoC4/EZI2C_PM.c ****         {
  94:Generated_Source\PSoC4/EZI2C_PM.c ****             EZI2C_UartSaveConfig();
  95:Generated_Source\PSoC4/EZI2C_PM.c ****         }
  96:Generated_Source\PSoC4/EZI2C_PM.c ****     #endif /* (!EZI2C_CY_SCBIP_V1) */
  97:Generated_Source\PSoC4/EZI2C_PM.c ****         else
  98:Generated_Source\PSoC4/EZI2C_PM.c ****         {
  99:Generated_Source\PSoC4/EZI2C_PM.c ****             /* Unknown mode */
 100:Generated_Source\PSoC4/EZI2C_PM.c ****         }
 101:Generated_Source\PSoC4/EZI2C_PM.c ****     }
 102:Generated_Source\PSoC4/EZI2C_PM.c ****     else
 103:Generated_Source\PSoC4/EZI2C_PM.c ****     {
 104:Generated_Source\PSoC4/EZI2C_PM.c ****         EZI2C_backup.enableState = (uint8) EZI2C_GET_CTRL_ENABLED;
 105:Generated_Source\PSoC4/EZI2C_PM.c **** 
 106:Generated_Source\PSoC4/EZI2C_PM.c ****         if(0u != EZI2C_backup.enableState)
 107:Generated_Source\PSoC4/EZI2C_PM.c ****         {
 108:Generated_Source\PSoC4/EZI2C_PM.c ****             EZI2C_Stop();
 109:Generated_Source\PSoC4/EZI2C_PM.c ****         }
 110:Generated_Source\PSoC4/EZI2C_PM.c ****     }
 111:Generated_Source\PSoC4/EZI2C_PM.c **** 
 112:Generated_Source\PSoC4/EZI2C_PM.c **** #else
 113:Generated_Source\PSoC4/EZI2C_PM.c **** 
 114:Generated_Source\PSoC4/EZI2C_PM.c ****     #if (EZI2C_SCB_MODE_I2C_CONST_CFG && EZI2C_I2C_WAKE_ENABLE_CONST)
 115:Generated_Source\PSoC4/EZI2C_PM.c ****         EZI2C_I2CSaveConfig();
 116:Generated_Source\PSoC4/EZI2C_PM.c **** 
 117:Generated_Source\PSoC4/EZI2C_PM.c ****     #elif (EZI2C_SCB_MODE_EZI2C_CONST_CFG && EZI2C_EZI2C_WAKE_ENABLE_CONST)
 118:Generated_Source\PSoC4/EZI2C_PM.c ****         EZI2C_EzI2CSaveConfig();
  38              		.loc 1 118 0
  39 0004 FFF7FEFF 		bl	EZI2C_EzI2CSaveConfig
 119:Generated_Source\PSoC4/EZI2C_PM.c **** 
 120:Generated_Source\PSoC4/EZI2C_PM.c ****     #elif (EZI2C_SCB_MODE_SPI_CONST_CFG && EZI2C_SPI_WAKE_ENABLE_CONST)
 121:Generated_Source\PSoC4/EZI2C_PM.c ****         EZI2C_SpiSaveConfig();
 122:Generated_Source\PSoC4/EZI2C_PM.c **** 
 123:Generated_Source\PSoC4/EZI2C_PM.c ****     #elif (EZI2C_SCB_MODE_UART_CONST_CFG && EZI2C_UART_WAKE_ENABLE_CONST)
 124:Generated_Source\PSoC4/EZI2C_PM.c ****         EZI2C_UartSaveConfig();
 125:Generated_Source\PSoC4/EZI2C_PM.c **** 
 126:Generated_Source\PSoC4/EZI2C_PM.c ****     #else
 127:Generated_Source\PSoC4/EZI2C_PM.c **** 
 128:Generated_Source\PSoC4/EZI2C_PM.c ****         EZI2C_backup.enableState = (uint8) EZI2C_GET_CTRL_ENABLED;
 129:Generated_Source\PSoC4/EZI2C_PM.c **** 
 130:Generated_Source\PSoC4/EZI2C_PM.c ****         if(0u != EZI2C_backup.enableState)
 131:Generated_Source\PSoC4/EZI2C_PM.c ****         {
 132:Generated_Source\PSoC4/EZI2C_PM.c ****             EZI2C_Stop();
ARM GAS  C:\Users\gjl\AppData\Local\Temp\ccg1YjmT.s 			page 4


 133:Generated_Source\PSoC4/EZI2C_PM.c ****         }
 134:Generated_Source\PSoC4/EZI2C_PM.c **** 
 135:Generated_Source\PSoC4/EZI2C_PM.c ****     #endif /* defined (EZI2C_SCB_MODE_I2C_CONST_CFG) && (EZI2C_I2C_WAKE_ENABLE_CONST) */
 136:Generated_Source\PSoC4/EZI2C_PM.c **** 
 137:Generated_Source\PSoC4/EZI2C_PM.c **** #endif /* (EZI2C_SCB_MODE_UNCONFIG_CONST_CFG) */
 138:Generated_Source\PSoC4/EZI2C_PM.c **** }
  40              		.loc 1 138 0
  41 0008 C046     		nop
  42 000a BD46     		mov	sp, r7
  43              		@ sp needed
  44 000c 80BD     		pop	{r7, pc}
  45              		.cfi_endproc
  46              	.LFE0:
  47              		.size	EZI2C_Sleep, .-EZI2C_Sleep
  48 000e C046     		.section	.text.EZI2C_Wakeup,"ax",%progbits
  49              		.align	2
  50              		.global	EZI2C_Wakeup
  51              		.code	16
  52              		.thumb_func
  53              		.type	EZI2C_Wakeup, %function
  54              	EZI2C_Wakeup:
  55              	.LFB1:
 139:Generated_Source\PSoC4/EZI2C_PM.c **** 
 140:Generated_Source\PSoC4/EZI2C_PM.c **** 
 141:Generated_Source\PSoC4/EZI2C_PM.c **** /*******************************************************************************
 142:Generated_Source\PSoC4/EZI2C_PM.c **** * Function Name: EZI2C_Wakeup
 143:Generated_Source\PSoC4/EZI2C_PM.c **** ****************************************************************************//**
 144:Generated_Source\PSoC4/EZI2C_PM.c **** *
 145:Generated_Source\PSoC4/EZI2C_PM.c **** *  Prepares the EZI2C component for Active mode operation after 
 146:Generated_Source\PSoC4/EZI2C_PM.c **** *  Deep Sleep.
 147:Generated_Source\PSoC4/EZI2C_PM.c **** *  The “Enable wakeup from Deep Sleep Mode” selection has influence on this 
 148:Generated_Source\PSoC4/EZI2C_PM.c **** *  function implementation:
 149:Generated_Source\PSoC4/EZI2C_PM.c **** *  - Checked: restores the component Active mode configuration.
 150:Generated_Source\PSoC4/EZI2C_PM.c **** *  - Unchecked: enables the component if it was enabled before enter Deep Sleep.
 151:Generated_Source\PSoC4/EZI2C_PM.c **** *
 152:Generated_Source\PSoC4/EZI2C_PM.c **** *  This function should not be called after exiting Sleep.
 153:Generated_Source\PSoC4/EZI2C_PM.c **** *
 154:Generated_Source\PSoC4/EZI2C_PM.c **** *  \sideeffect
 155:Generated_Source\PSoC4/EZI2C_PM.c **** *   Calling the EZI2C_Wakeup() function without first calling the 
 156:Generated_Source\PSoC4/EZI2C_PM.c **** *   EZI2C_Sleep() function may produce unexpected behavior.
 157:Generated_Source\PSoC4/EZI2C_PM.c **** *
 158:Generated_Source\PSoC4/EZI2C_PM.c **** *******************************************************************************/
 159:Generated_Source\PSoC4/EZI2C_PM.c **** void EZI2C_Wakeup(void)
 160:Generated_Source\PSoC4/EZI2C_PM.c **** {
  56              		.loc 1 160 0
  57              		.cfi_startproc
  58              		@ args = 0, pretend = 0, frame = 0
  59              		@ frame_needed = 1, uses_anonymous_args = 0
  60 0000 80B5     		push	{r7, lr}
  61              		.cfi_def_cfa_offset 8
  62              		.cfi_offset 7, -8
  63              		.cfi_offset 14, -4
  64 0002 00AF     		add	r7, sp, #0
  65              		.cfi_def_cfa_register 7
 161:Generated_Source\PSoC4/EZI2C_PM.c **** #if(EZI2C_SCB_MODE_UNCONFIG_CONST_CFG)
 162:Generated_Source\PSoC4/EZI2C_PM.c **** 
 163:Generated_Source\PSoC4/EZI2C_PM.c ****     if(EZI2C_SCB_WAKE_ENABLE_CHECK)
ARM GAS  C:\Users\gjl\AppData\Local\Temp\ccg1YjmT.s 			page 5


 164:Generated_Source\PSoC4/EZI2C_PM.c ****     {
 165:Generated_Source\PSoC4/EZI2C_PM.c ****         if(EZI2C_SCB_MODE_I2C_RUNTM_CFG)
 166:Generated_Source\PSoC4/EZI2C_PM.c ****         {
 167:Generated_Source\PSoC4/EZI2C_PM.c ****             EZI2C_I2CRestoreConfig();
 168:Generated_Source\PSoC4/EZI2C_PM.c ****         }
 169:Generated_Source\PSoC4/EZI2C_PM.c ****         else if(EZI2C_SCB_MODE_EZI2C_RUNTM_CFG)
 170:Generated_Source\PSoC4/EZI2C_PM.c ****         {
 171:Generated_Source\PSoC4/EZI2C_PM.c ****             EZI2C_EzI2CRestoreConfig();
 172:Generated_Source\PSoC4/EZI2C_PM.c ****         }
 173:Generated_Source\PSoC4/EZI2C_PM.c ****     #if(!EZI2C_CY_SCBIP_V1)
 174:Generated_Source\PSoC4/EZI2C_PM.c ****         else if(EZI2C_SCB_MODE_SPI_RUNTM_CFG)
 175:Generated_Source\PSoC4/EZI2C_PM.c ****         {
 176:Generated_Source\PSoC4/EZI2C_PM.c ****             EZI2C_SpiRestoreConfig();
 177:Generated_Source\PSoC4/EZI2C_PM.c ****         }
 178:Generated_Source\PSoC4/EZI2C_PM.c ****         else if(EZI2C_SCB_MODE_UART_RUNTM_CFG)
 179:Generated_Source\PSoC4/EZI2C_PM.c ****         {
 180:Generated_Source\PSoC4/EZI2C_PM.c ****             EZI2C_UartRestoreConfig();
 181:Generated_Source\PSoC4/EZI2C_PM.c ****         }
 182:Generated_Source\PSoC4/EZI2C_PM.c ****     #endif /* (!EZI2C_CY_SCBIP_V1) */
 183:Generated_Source\PSoC4/EZI2C_PM.c ****         else
 184:Generated_Source\PSoC4/EZI2C_PM.c ****         {
 185:Generated_Source\PSoC4/EZI2C_PM.c ****             /* Unknown mode */
 186:Generated_Source\PSoC4/EZI2C_PM.c ****         }
 187:Generated_Source\PSoC4/EZI2C_PM.c ****     }
 188:Generated_Source\PSoC4/EZI2C_PM.c ****     else
 189:Generated_Source\PSoC4/EZI2C_PM.c ****     {
 190:Generated_Source\PSoC4/EZI2C_PM.c ****         if(0u != EZI2C_backup.enableState)
 191:Generated_Source\PSoC4/EZI2C_PM.c ****         {
 192:Generated_Source\PSoC4/EZI2C_PM.c ****             EZI2C_Enable();
 193:Generated_Source\PSoC4/EZI2C_PM.c ****         }
 194:Generated_Source\PSoC4/EZI2C_PM.c ****     }
 195:Generated_Source\PSoC4/EZI2C_PM.c **** 
 196:Generated_Source\PSoC4/EZI2C_PM.c **** #else
 197:Generated_Source\PSoC4/EZI2C_PM.c **** 
 198:Generated_Source\PSoC4/EZI2C_PM.c ****     #if (EZI2C_SCB_MODE_I2C_CONST_CFG  && EZI2C_I2C_WAKE_ENABLE_CONST)
 199:Generated_Source\PSoC4/EZI2C_PM.c ****         EZI2C_I2CRestoreConfig();
 200:Generated_Source\PSoC4/EZI2C_PM.c **** 
 201:Generated_Source\PSoC4/EZI2C_PM.c ****     #elif (EZI2C_SCB_MODE_EZI2C_CONST_CFG && EZI2C_EZI2C_WAKE_ENABLE_CONST)
 202:Generated_Source\PSoC4/EZI2C_PM.c ****         EZI2C_EzI2CRestoreConfig();
  66              		.loc 1 202 0
  67 0004 FFF7FEFF 		bl	EZI2C_EzI2CRestoreConfig
 203:Generated_Source\PSoC4/EZI2C_PM.c **** 
 204:Generated_Source\PSoC4/EZI2C_PM.c ****     #elif (EZI2C_SCB_MODE_SPI_CONST_CFG && EZI2C_SPI_WAKE_ENABLE_CONST)
 205:Generated_Source\PSoC4/EZI2C_PM.c ****         EZI2C_SpiRestoreConfig();
 206:Generated_Source\PSoC4/EZI2C_PM.c **** 
 207:Generated_Source\PSoC4/EZI2C_PM.c ****     #elif (EZI2C_SCB_MODE_UART_CONST_CFG && EZI2C_UART_WAKE_ENABLE_CONST)
 208:Generated_Source\PSoC4/EZI2C_PM.c ****         EZI2C_UartRestoreConfig();
 209:Generated_Source\PSoC4/EZI2C_PM.c **** 
 210:Generated_Source\PSoC4/EZI2C_PM.c ****     #else
 211:Generated_Source\PSoC4/EZI2C_PM.c **** 
 212:Generated_Source\PSoC4/EZI2C_PM.c ****         if(0u != EZI2C_backup.enableState)
 213:Generated_Source\PSoC4/EZI2C_PM.c ****         {
 214:Generated_Source\PSoC4/EZI2C_PM.c ****             EZI2C_Enable();
 215:Generated_Source\PSoC4/EZI2C_PM.c ****         }
 216:Generated_Source\PSoC4/EZI2C_PM.c **** 
 217:Generated_Source\PSoC4/EZI2C_PM.c ****     #endif /* (EZI2C_I2C_WAKE_ENABLE_CONST) */
 218:Generated_Source\PSoC4/EZI2C_PM.c **** 
ARM GAS  C:\Users\gjl\AppData\Local\Temp\ccg1YjmT.s 			page 6


 219:Generated_Source\PSoC4/EZI2C_PM.c **** #endif /* (EZI2C_SCB_MODE_UNCONFIG_CONST_CFG) */
 220:Generated_Source\PSoC4/EZI2C_PM.c **** }
  68              		.loc 1 220 0
  69 0008 C046     		nop
  70 000a BD46     		mov	sp, r7
  71              		@ sp needed
  72 000c 80BD     		pop	{r7, pc}
  73              		.cfi_endproc
  74              	.LFE1:
  75              		.size	EZI2C_Wakeup, .-EZI2C_Wakeup
  76 000e C046     		.text
  77              	.Letext0: