ARM GAS  C:\Users\gjl\AppData\Local\Temp\ccZf2xKp.s 			page 1


   1              		.syntax unified
   2              		.cpu cortex-m0
   3              		.fpu softvfp
   4              		.eabi_attribute 20, 1
   5              		.eabi_attribute 21, 1
   6              		.eabi_attribute 23, 3
   7              		.eabi_attribute 24, 1
   8              		.eabi_attribute 25, 1
   9              		.eabi_attribute 26, 1
  10              		.eabi_attribute 30, 6
  11              		.eabi_attribute 34, 0
  12              		.eabi_attribute 18, 4
  13              		.thumb
  14              		.syntax unified
  15              		.file	"isr_fail.c"
  16              		.text
  17              	.Ltext0:
  18              		.cfi_sections	.debug_frame
  19              		.section	.text.isr_fail_Start,"ax",%progbits
  20              		.align	2
  21              		.global	isr_fail_Start
  22              		.code	16
  23              		.thumb_func
  24              		.type	isr_fail_Start, %function
  25              	isr_fail_Start:
  26              	.LFB0:
  27              		.file 1 "Generated_Source\\PSoC4\\isr_fail.c"
   1:Generated_Source\PSoC4/isr_fail.c **** /*******************************************************************************
   2:Generated_Source\PSoC4/isr_fail.c **** * File Name: isr_fail.c  
   3:Generated_Source\PSoC4/isr_fail.c **** * Version 1.70
   4:Generated_Source\PSoC4/isr_fail.c **** *
   5:Generated_Source\PSoC4/isr_fail.c **** *  Description:
   6:Generated_Source\PSoC4/isr_fail.c **** *   API for controlling the state of an interrupt.
   7:Generated_Source\PSoC4/isr_fail.c **** *
   8:Generated_Source\PSoC4/isr_fail.c **** *
   9:Generated_Source\PSoC4/isr_fail.c **** *  Note:
  10:Generated_Source\PSoC4/isr_fail.c **** *
  11:Generated_Source\PSoC4/isr_fail.c **** ********************************************************************************
  12:Generated_Source\PSoC4/isr_fail.c **** * Copyright 2008-2015, Cypress Semiconductor Corporation.  All rights reserved.
  13:Generated_Source\PSoC4/isr_fail.c **** * You may use this file only in accordance with the license, terms, conditions, 
  14:Generated_Source\PSoC4/isr_fail.c **** * disclaimers, and limitations in the end user license agreement accompanying 
  15:Generated_Source\PSoC4/isr_fail.c **** * the software package with which this file was provided.
  16:Generated_Source\PSoC4/isr_fail.c **** *******************************************************************************/
  17:Generated_Source\PSoC4/isr_fail.c **** 
  18:Generated_Source\PSoC4/isr_fail.c **** 
  19:Generated_Source\PSoC4/isr_fail.c **** #include <cydevice_trm.h>
  20:Generated_Source\PSoC4/isr_fail.c **** #include <CyLib.h>
  21:Generated_Source\PSoC4/isr_fail.c **** #include <isr_fail.h>
  22:Generated_Source\PSoC4/isr_fail.c **** 
  23:Generated_Source\PSoC4/isr_fail.c **** 
  24:Generated_Source\PSoC4/isr_fail.c **** #if !defined(isr_fail__REMOVED) /* Check for removal by optimization */
  25:Generated_Source\PSoC4/isr_fail.c **** 
  26:Generated_Source\PSoC4/isr_fail.c **** /*******************************************************************************
  27:Generated_Source\PSoC4/isr_fail.c **** *  Place your includes, defines and code here 
  28:Generated_Source\PSoC4/isr_fail.c **** ********************************************************************************/
  29:Generated_Source\PSoC4/isr_fail.c **** /* `#START isr_fail_intc` */
  30:Generated_Source\PSoC4/isr_fail.c **** 
ARM GAS  C:\Users\gjl\AppData\Local\Temp\ccZf2xKp.s 			page 2


  31:Generated_Source\PSoC4/isr_fail.c **** /* `#END` */
  32:Generated_Source\PSoC4/isr_fail.c **** 
  33:Generated_Source\PSoC4/isr_fail.c **** extern cyisraddress CyRamVectors[CYINT_IRQ_BASE + CY_NUM_INTERRUPTS];
  34:Generated_Source\PSoC4/isr_fail.c **** 
  35:Generated_Source\PSoC4/isr_fail.c **** /* Declared in startup, used to set unused interrupts to. */
  36:Generated_Source\PSoC4/isr_fail.c **** CY_ISR_PROTO(IntDefaultHandler);
  37:Generated_Source\PSoC4/isr_fail.c **** 
  38:Generated_Source\PSoC4/isr_fail.c **** 
  39:Generated_Source\PSoC4/isr_fail.c **** /*******************************************************************************
  40:Generated_Source\PSoC4/isr_fail.c **** * Function Name: isr_fail_Start
  41:Generated_Source\PSoC4/isr_fail.c **** ********************************************************************************
  42:Generated_Source\PSoC4/isr_fail.c **** *
  43:Generated_Source\PSoC4/isr_fail.c **** * Summary:
  44:Generated_Source\PSoC4/isr_fail.c **** *  Set up the interrupt and enable it. This function disables the interrupt, 
  45:Generated_Source\PSoC4/isr_fail.c **** *  sets the default interrupt vector, sets the priority from the value in the
  46:Generated_Source\PSoC4/isr_fail.c **** *  Design Wide Resources Interrupt Editor, then enables the interrupt to the 
  47:Generated_Source\PSoC4/isr_fail.c **** *  interrupt controller.
  48:Generated_Source\PSoC4/isr_fail.c **** *
  49:Generated_Source\PSoC4/isr_fail.c **** * Parameters:  
  50:Generated_Source\PSoC4/isr_fail.c **** *   None
  51:Generated_Source\PSoC4/isr_fail.c **** *
  52:Generated_Source\PSoC4/isr_fail.c **** * Return:
  53:Generated_Source\PSoC4/isr_fail.c **** *   None
  54:Generated_Source\PSoC4/isr_fail.c **** *
  55:Generated_Source\PSoC4/isr_fail.c **** *******************************************************************************/
  56:Generated_Source\PSoC4/isr_fail.c **** void isr_fail_Start(void)
  57:Generated_Source\PSoC4/isr_fail.c **** {
  28              		.loc 1 57 0
  29              		.cfi_startproc
  30              		@ args = 0, pretend = 0, frame = 0
  31              		@ frame_needed = 1, uses_anonymous_args = 0
  32 0000 80B5     		push	{r7, lr}
  33              		.cfi_def_cfa_offset 8
  34              		.cfi_offset 7, -8
  35              		.cfi_offset 14, -4
  36 0002 00AF     		add	r7, sp, #0
  37              		.cfi_def_cfa_register 7
  58:Generated_Source\PSoC4/isr_fail.c ****     /* For all we know the interrupt is active. */
  59:Generated_Source\PSoC4/isr_fail.c ****     isr_fail_Disable();
  38              		.loc 1 59 0
  39 0004 FFF7FEFF 		bl	isr_fail_Disable
  60:Generated_Source\PSoC4/isr_fail.c **** 
  61:Generated_Source\PSoC4/isr_fail.c ****     /* Set the ISR to point to the isr_fail Interrupt. */
  62:Generated_Source\PSoC4/isr_fail.c ****     isr_fail_SetVector(&isr_fail_Interrupt);
  40              		.loc 1 62 0
  41 0008 054B     		ldr	r3, .L2
  42 000a 1800     		movs	r0, r3
  43 000c FFF7FEFF 		bl	isr_fail_SetVector
  63:Generated_Source\PSoC4/isr_fail.c **** 
  64:Generated_Source\PSoC4/isr_fail.c ****     /* Set the priority. */
  65:Generated_Source\PSoC4/isr_fail.c ****     isr_fail_SetPriority((uint8)isr_fail_INTC_PRIOR_NUMBER);
  44              		.loc 1 65 0
  45 0010 0320     		movs	r0, #3
  46 0012 FFF7FEFF 		bl	isr_fail_SetPriority
  66:Generated_Source\PSoC4/isr_fail.c **** 
  67:Generated_Source\PSoC4/isr_fail.c ****     /* Enable it. */
  68:Generated_Source\PSoC4/isr_fail.c ****     isr_fail_Enable();
ARM GAS  C:\Users\gjl\AppData\Local\Temp\ccZf2xKp.s 			page 3


  47              		.loc 1 68 0
  48 0016 FFF7FEFF 		bl	isr_fail_Enable
  69:Generated_Source\PSoC4/isr_fail.c **** }
  49              		.loc 1 69 0
  50 001a C046     		nop
  51 001c BD46     		mov	sp, r7
  52              		@ sp needed
  53 001e 80BD     		pop	{r7, pc}
  54              	.L3:
  55              		.align	2
  56              	.L2:
  57 0020 00000000 		.word	isr_fail_Interrupt
  58              		.cfi_endproc
  59              	.LFE0:
  60              		.size	isr_fail_Start, .-isr_fail_Start
  61              		.section	.text.isr_fail_StartEx,"ax",%progbits
  62              		.align	2
  63              		.global	isr_fail_StartEx
  64              		.code	16
  65              		.thumb_func
  66              		.type	isr_fail_StartEx, %function
  67              	isr_fail_StartEx:
  68              	.LFB1:
  70:Generated_Source\PSoC4/isr_fail.c **** 
  71:Generated_Source\PSoC4/isr_fail.c **** 
  72:Generated_Source\PSoC4/isr_fail.c **** /*******************************************************************************
  73:Generated_Source\PSoC4/isr_fail.c **** * Function Name: isr_fail_StartEx
  74:Generated_Source\PSoC4/isr_fail.c **** ********************************************************************************
  75:Generated_Source\PSoC4/isr_fail.c **** *
  76:Generated_Source\PSoC4/isr_fail.c **** * Summary:
  77:Generated_Source\PSoC4/isr_fail.c **** *  Sets up the interrupt and enables it. This function disables the interrupt,
  78:Generated_Source\PSoC4/isr_fail.c **** *  sets the interrupt vector based on the address passed in, sets the priority 
  79:Generated_Source\PSoC4/isr_fail.c **** *  from the value in the Design Wide Resources Interrupt Editor, then enables 
  80:Generated_Source\PSoC4/isr_fail.c **** *  the interrupt to the interrupt controller.
  81:Generated_Source\PSoC4/isr_fail.c **** *  
  82:Generated_Source\PSoC4/isr_fail.c **** *  When defining ISR functions, the CY_ISR and CY_ISR_PROTO macros should be 
  83:Generated_Source\PSoC4/isr_fail.c **** *  used to provide consistent definition across compilers:
  84:Generated_Source\PSoC4/isr_fail.c **** *  
  85:Generated_Source\PSoC4/isr_fail.c **** *  Function definition example:
  86:Generated_Source\PSoC4/isr_fail.c **** *   CY_ISR(MyISR)
  87:Generated_Source\PSoC4/isr_fail.c **** *   {
  88:Generated_Source\PSoC4/isr_fail.c **** *   }
  89:Generated_Source\PSoC4/isr_fail.c **** *   Function prototype example:
  90:Generated_Source\PSoC4/isr_fail.c **** *   CY_ISR_PROTO(MyISR);
  91:Generated_Source\PSoC4/isr_fail.c **** *
  92:Generated_Source\PSoC4/isr_fail.c **** * Parameters:  
  93:Generated_Source\PSoC4/isr_fail.c **** *   address: Address of the ISR to set in the interrupt vector table.
  94:Generated_Source\PSoC4/isr_fail.c **** *
  95:Generated_Source\PSoC4/isr_fail.c **** * Return:
  96:Generated_Source\PSoC4/isr_fail.c **** *   None
  97:Generated_Source\PSoC4/isr_fail.c **** *
  98:Generated_Source\PSoC4/isr_fail.c **** *******************************************************************************/
  99:Generated_Source\PSoC4/isr_fail.c **** void isr_fail_StartEx(cyisraddress address)
 100:Generated_Source\PSoC4/isr_fail.c **** {
  69              		.loc 1 100 0
  70              		.cfi_startproc
  71              		@ args = 0, pretend = 0, frame = 8
ARM GAS  C:\Users\gjl\AppData\Local\Temp\ccZf2xKp.s 			page 4


  72              		@ frame_needed = 1, uses_anonymous_args = 0
  73 0000 80B5     		push	{r7, lr}
  74              		.cfi_def_cfa_offset 8
  75              		.cfi_offset 7, -8
  76              		.cfi_offset 14, -4
  77 0002 82B0     		sub	sp, sp, #8
  78              		.cfi_def_cfa_offset 16
  79 0004 00AF     		add	r7, sp, #0
  80              		.cfi_def_cfa_register 7
  81 0006 7860     		str	r0, [r7, #4]
 101:Generated_Source\PSoC4/isr_fail.c ****     /* For all we know the interrupt is active. */
 102:Generated_Source\PSoC4/isr_fail.c ****     isr_fail_Disable();
  82              		.loc 1 102 0
  83 0008 FFF7FEFF 		bl	isr_fail_Disable
 103:Generated_Source\PSoC4/isr_fail.c **** 
 104:Generated_Source\PSoC4/isr_fail.c ****     /* Set the ISR to point to the isr_fail Interrupt. */
 105:Generated_Source\PSoC4/isr_fail.c ****     isr_fail_SetVector(address);
  84              		.loc 1 105 0
  85 000c 7B68     		ldr	r3, [r7, #4]
  86 000e 1800     		movs	r0, r3
  87 0010 FFF7FEFF 		bl	isr_fail_SetVector
 106:Generated_Source\PSoC4/isr_fail.c **** 
 107:Generated_Source\PSoC4/isr_fail.c ****     /* Set the priority. */
 108:Generated_Source\PSoC4/isr_fail.c ****     isr_fail_SetPriority((uint8)isr_fail_INTC_PRIOR_NUMBER);
  88              		.loc 1 108 0
  89 0014 0320     		movs	r0, #3
  90 0016 FFF7FEFF 		bl	isr_fail_SetPriority
 109:Generated_Source\PSoC4/isr_fail.c **** 
 110:Generated_Source\PSoC4/isr_fail.c ****     /* Enable it. */
 111:Generated_Source\PSoC4/isr_fail.c ****     isr_fail_Enable();
  91              		.loc 1 111 0
  92 001a FFF7FEFF 		bl	isr_fail_Enable
 112:Generated_Source\PSoC4/isr_fail.c **** }
  93              		.loc 1 112 0
  94 001e C046     		nop
  95 0020 BD46     		mov	sp, r7
  96 0022 02B0     		add	sp, sp, #8
  97              		@ sp needed
  98 0024 80BD     		pop	{r7, pc}
  99              		.cfi_endproc
 100              	.LFE1:
 101              		.size	isr_fail_StartEx, .-isr_fail_StartEx
 102 0026 C046     		.section	.text.isr_fail_Stop,"ax",%progbits
 103              		.align	2
 104              		.global	isr_fail_Stop
 105              		.code	16
 106              		.thumb_func
 107              		.type	isr_fail_Stop, %function
 108              	isr_fail_Stop:
 109              	.LFB2:
 113:Generated_Source\PSoC4/isr_fail.c **** 
 114:Generated_Source\PSoC4/isr_fail.c **** 
 115:Generated_Source\PSoC4/isr_fail.c **** /*******************************************************************************
 116:Generated_Source\PSoC4/isr_fail.c **** * Function Name: isr_fail_Stop
 117:Generated_Source\PSoC4/isr_fail.c **** ********************************************************************************
 118:Generated_Source\PSoC4/isr_fail.c **** *
 119:Generated_Source\PSoC4/isr_fail.c **** * Summary:
ARM GAS  C:\Users\gjl\AppData\Local\Temp\ccZf2xKp.s 			page 5


 120:Generated_Source\PSoC4/isr_fail.c **** *   Disables and removes the interrupt.
 121:Generated_Source\PSoC4/isr_fail.c **** *
 122:Generated_Source\PSoC4/isr_fail.c **** * Parameters:  
 123:Generated_Source\PSoC4/isr_fail.c **** *   None
 124:Generated_Source\PSoC4/isr_fail.c **** *
 125:Generated_Source\PSoC4/isr_fail.c **** * Return:
 126:Generated_Source\PSoC4/isr_fail.c **** *   None
 127:Generated_Source\PSoC4/isr_fail.c **** *
 128:Generated_Source\PSoC4/isr_fail.c **** *******************************************************************************/
 129:Generated_Source\PSoC4/isr_fail.c **** void isr_fail_Stop(void)
 130:Generated_Source\PSoC4/isr_fail.c **** {
 110              		.loc 1 130 0
 111              		.cfi_startproc
 112              		@ args = 0, pretend = 0, frame = 0
 113              		@ frame_needed = 1, uses_anonymous_args = 0
 114 0000 80B5     		push	{r7, lr}
 115              		.cfi_def_cfa_offset 8
 116              		.cfi_offset 7, -8
 117              		.cfi_offset 14, -4
 118 0002 00AF     		add	r7, sp, #0
 119              		.cfi_def_cfa_register 7
 131:Generated_Source\PSoC4/isr_fail.c ****     /* Disable this interrupt. */
 132:Generated_Source\PSoC4/isr_fail.c ****     isr_fail_Disable();
 120              		.loc 1 132 0
 121 0004 FFF7FEFF 		bl	isr_fail_Disable
 133:Generated_Source\PSoC4/isr_fail.c **** 
 134:Generated_Source\PSoC4/isr_fail.c ****     /* Set the ISR to point to the passive one. */
 135:Generated_Source\PSoC4/isr_fail.c ****     isr_fail_SetVector(&IntDefaultHandler);
 122              		.loc 1 135 0
 123 0008 034B     		ldr	r3, .L6
 124 000a 1800     		movs	r0, r3
 125 000c FFF7FEFF 		bl	isr_fail_SetVector
 136:Generated_Source\PSoC4/isr_fail.c **** }
 126              		.loc 1 136 0
 127 0010 C046     		nop
 128 0012 BD46     		mov	sp, r7
 129              		@ sp needed
 130 0014 80BD     		pop	{r7, pc}
 131              	.L7:
 132 0016 C046     		.align	2
 133              	.L6:
 134 0018 00000000 		.word	IntDefaultHandler
 135              		.cfi_endproc
 136              	.LFE2:
 137              		.size	isr_fail_Stop, .-isr_fail_Stop
 138              		.section	.text.isr_fail_Interrupt,"ax",%progbits
 139              		.align	2
 140              		.global	isr_fail_Interrupt
 141              		.code	16
 142              		.thumb_func
 143              		.type	isr_fail_Interrupt, %function
 144              	isr_fail_Interrupt:
 145              	.LFB3:
 137:Generated_Source\PSoC4/isr_fail.c **** 
 138:Generated_Source\PSoC4/isr_fail.c **** 
 139:Generated_Source\PSoC4/isr_fail.c **** /*******************************************************************************
 140:Generated_Source\PSoC4/isr_fail.c **** * Function Name: isr_fail_Interrupt
ARM GAS  C:\Users\gjl\AppData\Local\Temp\ccZf2xKp.s 			page 6


 141:Generated_Source\PSoC4/isr_fail.c **** ********************************************************************************
 142:Generated_Source\PSoC4/isr_fail.c **** *
 143:Generated_Source\PSoC4/isr_fail.c **** * Summary:
 144:Generated_Source\PSoC4/isr_fail.c **** *   The default Interrupt Service Routine for isr_fail.
 145:Generated_Source\PSoC4/isr_fail.c **** *
 146:Generated_Source\PSoC4/isr_fail.c **** *   Add custom code between the START and END comments to keep the next version
 147:Generated_Source\PSoC4/isr_fail.c **** *   of this file from over-writing your code.
 148:Generated_Source\PSoC4/isr_fail.c **** *
 149:Generated_Source\PSoC4/isr_fail.c **** *   Note You may use either the default ISR by using this API, or you may define
 150:Generated_Source\PSoC4/isr_fail.c **** *   your own separate ISR through ISR_StartEx().
 151:Generated_Source\PSoC4/isr_fail.c **** *
 152:Generated_Source\PSoC4/isr_fail.c **** * Parameters:  
 153:Generated_Source\PSoC4/isr_fail.c **** *   None
 154:Generated_Source\PSoC4/isr_fail.c **** *
 155:Generated_Source\PSoC4/isr_fail.c **** * Return:
 156:Generated_Source\PSoC4/isr_fail.c **** *   None
 157:Generated_Source\PSoC4/isr_fail.c **** *
 158:Generated_Source\PSoC4/isr_fail.c **** *******************************************************************************/
 159:Generated_Source\PSoC4/isr_fail.c **** CY_ISR(isr_fail_Interrupt)
 160:Generated_Source\PSoC4/isr_fail.c **** {
 146              		.loc 1 160 0
 147              		.cfi_startproc
 148              		@ args = 0, pretend = 0, frame = 0
 149              		@ frame_needed = 1, uses_anonymous_args = 0
 150 0000 80B5     		push	{r7, lr}
 151              		.cfi_def_cfa_offset 8
 152              		.cfi_offset 7, -8
 153              		.cfi_offset 14, -4
 154 0002 00AF     		add	r7, sp, #0
 155              		.cfi_def_cfa_register 7
 161:Generated_Source\PSoC4/isr_fail.c ****     #ifdef isr_fail_INTERRUPT_INTERRUPT_CALLBACK
 162:Generated_Source\PSoC4/isr_fail.c ****         isr_fail_Interrupt_InterruptCallback();
 163:Generated_Source\PSoC4/isr_fail.c ****     #endif /* isr_fail_INTERRUPT_INTERRUPT_CALLBACK */ 
 164:Generated_Source\PSoC4/isr_fail.c **** 
 165:Generated_Source\PSoC4/isr_fail.c ****     /*  Place your Interrupt code here. */
 166:Generated_Source\PSoC4/isr_fail.c ****     /* `#START isr_fail_Interrupt` */
 167:Generated_Source\PSoC4/isr_fail.c **** 
 168:Generated_Source\PSoC4/isr_fail.c ****     /* `#END` */
 169:Generated_Source\PSoC4/isr_fail.c **** }
 156              		.loc 1 169 0
 157 0004 C046     		nop
 158 0006 BD46     		mov	sp, r7
 159              		@ sp needed
 160 0008 80BD     		pop	{r7, pc}
 161              		.cfi_endproc
 162              	.LFE3:
 163              		.size	isr_fail_Interrupt, .-isr_fail_Interrupt
 164              		.section	.text.isr_fail_SetVector,"ax",%progbits
 165              		.align	2
 166              		.global	isr_fail_SetVector
 167              		.code	16
 168              		.thumb_func
 169              		.type	isr_fail_SetVector, %function
 170              	isr_fail_SetVector:
 171              	.LFB4:
 170:Generated_Source\PSoC4/isr_fail.c **** 
 171:Generated_Source\PSoC4/isr_fail.c **** 
ARM GAS  C:\Users\gjl\AppData\Local\Temp\ccZf2xKp.s 			page 7


 172:Generated_Source\PSoC4/isr_fail.c **** /*******************************************************************************
 173:Generated_Source\PSoC4/isr_fail.c **** * Function Name: isr_fail_SetVector
 174:Generated_Source\PSoC4/isr_fail.c **** ********************************************************************************
 175:Generated_Source\PSoC4/isr_fail.c **** *
 176:Generated_Source\PSoC4/isr_fail.c **** * Summary:
 177:Generated_Source\PSoC4/isr_fail.c **** *   Change the ISR vector for the Interrupt. Note calling isr_fail_Start
 178:Generated_Source\PSoC4/isr_fail.c **** *   will override any effect this method would have had. To set the vector 
 179:Generated_Source\PSoC4/isr_fail.c **** *   before the component has been started use isr_fail_StartEx instead.
 180:Generated_Source\PSoC4/isr_fail.c **** * 
 181:Generated_Source\PSoC4/isr_fail.c **** *   When defining ISR functions, the CY_ISR and CY_ISR_PROTO macros should be 
 182:Generated_Source\PSoC4/isr_fail.c **** *   used to provide consistent definition across compilers:
 183:Generated_Source\PSoC4/isr_fail.c **** *
 184:Generated_Source\PSoC4/isr_fail.c **** *   Function definition example:
 185:Generated_Source\PSoC4/isr_fail.c **** *   CY_ISR(MyISR)
 186:Generated_Source\PSoC4/isr_fail.c **** *   {
 187:Generated_Source\PSoC4/isr_fail.c **** *   }
 188:Generated_Source\PSoC4/isr_fail.c **** *
 189:Generated_Source\PSoC4/isr_fail.c **** *   Function prototype example:
 190:Generated_Source\PSoC4/isr_fail.c **** *     CY_ISR_PROTO(MyISR);
 191:Generated_Source\PSoC4/isr_fail.c **** *
 192:Generated_Source\PSoC4/isr_fail.c **** * Parameters:
 193:Generated_Source\PSoC4/isr_fail.c **** *   address: Address of the ISR to set in the interrupt vector table.
 194:Generated_Source\PSoC4/isr_fail.c **** *
 195:Generated_Source\PSoC4/isr_fail.c **** * Return:
 196:Generated_Source\PSoC4/isr_fail.c **** *   None
 197:Generated_Source\PSoC4/isr_fail.c **** *
 198:Generated_Source\PSoC4/isr_fail.c **** *******************************************************************************/
 199:Generated_Source\PSoC4/isr_fail.c **** void isr_fail_SetVector(cyisraddress address)
 200:Generated_Source\PSoC4/isr_fail.c **** {
 172              		.loc 1 200 0
 173              		.cfi_startproc
 174              		@ args = 0, pretend = 0, frame = 8
 175              		@ frame_needed = 1, uses_anonymous_args = 0
 176 0000 80B5     		push	{r7, lr}
 177              		.cfi_def_cfa_offset 8
 178              		.cfi_offset 7, -8
 179              		.cfi_offset 14, -4
 180 0002 82B0     		sub	sp, sp, #8
 181              		.cfi_def_cfa_offset 16
 182 0004 00AF     		add	r7, sp, #0
 183              		.cfi_def_cfa_register 7
 184 0006 7860     		str	r0, [r7, #4]
 201:Generated_Source\PSoC4/isr_fail.c ****     CyRamVectors[CYINT_IRQ_BASE + isr_fail__INTC_NUMBER] = address;
 185              		.loc 1 201 0
 186 0008 034B     		ldr	r3, .L10
 187 000a 8421     		movs	r1, #132
 188 000c 7A68     		ldr	r2, [r7, #4]
 189 000e 5A50     		str	r2, [r3, r1]
 202:Generated_Source\PSoC4/isr_fail.c **** }
 190              		.loc 1 202 0
 191 0010 C046     		nop
 192 0012 BD46     		mov	sp, r7
 193 0014 02B0     		add	sp, sp, #8
 194              		@ sp needed
 195 0016 80BD     		pop	{r7, pc}
 196              	.L11:
 197              		.align	2
ARM GAS  C:\Users\gjl\AppData\Local\Temp\ccZf2xKp.s 			page 8


 198              	.L10:
 199 0018 00000000 		.word	CyRamVectors
 200              		.cfi_endproc
 201              	.LFE4:
 202              		.size	isr_fail_SetVector, .-isr_fail_SetVector
 203              		.section	.text.isr_fail_GetVector,"ax",%progbits
 204              		.align	2
 205              		.global	isr_fail_GetVector
 206              		.code	16
 207              		.thumb_func
 208              		.type	isr_fail_GetVector, %function
 209              	isr_fail_GetVector:
 210              	.LFB5:
 203:Generated_Source\PSoC4/isr_fail.c **** 
 204:Generated_Source\PSoC4/isr_fail.c **** 
 205:Generated_Source\PSoC4/isr_fail.c **** /*******************************************************************************
 206:Generated_Source\PSoC4/isr_fail.c **** * Function Name: isr_fail_GetVector
 207:Generated_Source\PSoC4/isr_fail.c **** ********************************************************************************
 208:Generated_Source\PSoC4/isr_fail.c **** *
 209:Generated_Source\PSoC4/isr_fail.c **** * Summary:
 210:Generated_Source\PSoC4/isr_fail.c **** *   Gets the "address" of the current ISR vector for the Interrupt.
 211:Generated_Source\PSoC4/isr_fail.c **** *
 212:Generated_Source\PSoC4/isr_fail.c **** * Parameters:
 213:Generated_Source\PSoC4/isr_fail.c **** *   None
 214:Generated_Source\PSoC4/isr_fail.c **** *
 215:Generated_Source\PSoC4/isr_fail.c **** * Return:
 216:Generated_Source\PSoC4/isr_fail.c **** *   Address of the ISR in the interrupt vector table.
 217:Generated_Source\PSoC4/isr_fail.c **** *
 218:Generated_Source\PSoC4/isr_fail.c **** *******************************************************************************/
 219:Generated_Source\PSoC4/isr_fail.c **** cyisraddress isr_fail_GetVector(void)
 220:Generated_Source\PSoC4/isr_fail.c **** {
 211              		.loc 1 220 0
 212              		.cfi_startproc
 213              		@ args = 0, pretend = 0, frame = 0
 214              		@ frame_needed = 1, uses_anonymous_args = 0
 215 0000 80B5     		push	{r7, lr}
 216              		.cfi_def_cfa_offset 8
 217              		.cfi_offset 7, -8
 218              		.cfi_offset 14, -4
 219 0002 00AF     		add	r7, sp, #0
 220              		.cfi_def_cfa_register 7
 221:Generated_Source\PSoC4/isr_fail.c ****     return CyRamVectors[CYINT_IRQ_BASE + isr_fail__INTC_NUMBER];
 221              		.loc 1 221 0
 222 0004 024B     		ldr	r3, .L14
 223 0006 8422     		movs	r2, #132
 224 0008 9B58     		ldr	r3, [r3, r2]
 222:Generated_Source\PSoC4/isr_fail.c **** }
 225              		.loc 1 222 0
 226 000a 1800     		movs	r0, r3
 227 000c BD46     		mov	sp, r7
 228              		@ sp needed
 229 000e 80BD     		pop	{r7, pc}
 230              	.L15:
 231              		.align	2
 232              	.L14:
 233 0010 00000000 		.word	CyRamVectors
 234              		.cfi_endproc
ARM GAS  C:\Users\gjl\AppData\Local\Temp\ccZf2xKp.s 			page 9


 235              	.LFE5:
 236              		.size	isr_fail_GetVector, .-isr_fail_GetVector
 237              		.section	.text.isr_fail_SetPriority,"ax",%progbits
 238              		.align	2
 239              		.global	isr_fail_SetPriority
 240              		.code	16
 241              		.thumb_func
 242              		.type	isr_fail_SetPriority, %function
 243              	isr_fail_SetPriority:
 244              	.LFB6:
 223:Generated_Source\PSoC4/isr_fail.c **** 
 224:Generated_Source\PSoC4/isr_fail.c **** 
 225:Generated_Source\PSoC4/isr_fail.c **** /*******************************************************************************
 226:Generated_Source\PSoC4/isr_fail.c **** * Function Name: isr_fail_SetPriority
 227:Generated_Source\PSoC4/isr_fail.c **** ********************************************************************************
 228:Generated_Source\PSoC4/isr_fail.c **** *
 229:Generated_Source\PSoC4/isr_fail.c **** * Summary:
 230:Generated_Source\PSoC4/isr_fail.c **** *   Sets the Priority of the Interrupt. 
 231:Generated_Source\PSoC4/isr_fail.c **** *
 232:Generated_Source\PSoC4/isr_fail.c **** *   Note calling isr_fail_Start or isr_fail_StartEx will 
 233:Generated_Source\PSoC4/isr_fail.c **** *   override any effect this API would have had. This API should only be called
 234:Generated_Source\PSoC4/isr_fail.c **** *   after isr_fail_Start or isr_fail_StartEx has been called. 
 235:Generated_Source\PSoC4/isr_fail.c **** *   To set the initial priority for the component, use the Design-Wide Resources
 236:Generated_Source\PSoC4/isr_fail.c **** *   Interrupt Editor.
 237:Generated_Source\PSoC4/isr_fail.c **** *
 238:Generated_Source\PSoC4/isr_fail.c **** *   Note This API has no effect on Non-maskable interrupt NMI).
 239:Generated_Source\PSoC4/isr_fail.c **** *
 240:Generated_Source\PSoC4/isr_fail.c **** * Parameters:
 241:Generated_Source\PSoC4/isr_fail.c **** *   priority: Priority of the interrupt, 0 being the highest priority
 242:Generated_Source\PSoC4/isr_fail.c **** *             PSoC 3 and PSoC 5LP: Priority is from 0 to 7.
 243:Generated_Source\PSoC4/isr_fail.c **** *             PSoC 4: Priority is from 0 to 3.
 244:Generated_Source\PSoC4/isr_fail.c **** *
 245:Generated_Source\PSoC4/isr_fail.c **** * Return:
 246:Generated_Source\PSoC4/isr_fail.c **** *   None
 247:Generated_Source\PSoC4/isr_fail.c **** *
 248:Generated_Source\PSoC4/isr_fail.c **** *******************************************************************************/
 249:Generated_Source\PSoC4/isr_fail.c **** void isr_fail_SetPriority(uint8 priority)
 250:Generated_Source\PSoC4/isr_fail.c **** {
 245              		.loc 1 250 0
 246              		.cfi_startproc
 247              		@ args = 0, pretend = 0, frame = 16
 248              		@ frame_needed = 1, uses_anonymous_args = 0
 249 0000 90B5     		push	{r4, r7, lr}
 250              		.cfi_def_cfa_offset 12
 251              		.cfi_offset 4, -12
 252              		.cfi_offset 7, -8
 253              		.cfi_offset 14, -4
 254 0002 85B0     		sub	sp, sp, #20
 255              		.cfi_def_cfa_offset 32
 256 0004 00AF     		add	r7, sp, #0
 257              		.cfi_def_cfa_register 7
 258 0006 0200     		movs	r2, r0
 259 0008 FB1D     		adds	r3, r7, #7
 260 000a 1A70     		strb	r2, [r3]
 251:Generated_Source\PSoC4/isr_fail.c **** 	uint8 interruptState;
 252:Generated_Source\PSoC4/isr_fail.c ****     uint32 priorityOffset = ((isr_fail__INTC_NUMBER % 4u) * 8u) + 6u;
 261              		.loc 1 252 0
ARM GAS  C:\Users\gjl\AppData\Local\Temp\ccZf2xKp.s 			page 10


 262 000c 0E23     		movs	r3, #14
 263 000e FB60     		str	r3, [r7, #12]
 253:Generated_Source\PSoC4/isr_fail.c ****     
 254:Generated_Source\PSoC4/isr_fail.c **** 	interruptState = CyEnterCriticalSection();
 264              		.loc 1 254 0
 265 0010 0B23     		movs	r3, #11
 266 0012 FC18     		adds	r4, r7, r3
 267 0014 FFF7FEFF 		bl	CyEnterCriticalSection
 268 0018 0300     		movs	r3, r0
 269 001a 2370     		strb	r3, [r4]
 255:Generated_Source\PSoC4/isr_fail.c ****     *isr_fail_INTC_PRIOR = (*isr_fail_INTC_PRIOR & (uint32)(~isr_fail__INTC_PRIOR_MASK)) |
 270              		.loc 1 255 0
 271 001c 0A4B     		ldr	r3, .L17
 272 001e 0A4A     		ldr	r2, .L17
 273 0020 1268     		ldr	r2, [r2]
 274 0022 0A49     		ldr	r1, .L17+4
 275 0024 1140     		ands	r1, r2
 256:Generated_Source\PSoC4/isr_fail.c ****                                     ((uint32)priority << priorityOffset);
 276              		.loc 1 256 0
 277 0026 FA1D     		adds	r2, r7, #7
 278 0028 1078     		ldrb	r0, [r2]
 279 002a FA68     		ldr	r2, [r7, #12]
 280 002c 9040     		lsls	r0, r0, r2
 281 002e 0200     		movs	r2, r0
 255:Generated_Source\PSoC4/isr_fail.c ****     *isr_fail_INTC_PRIOR = (*isr_fail_INTC_PRIOR & (uint32)(~isr_fail__INTC_PRIOR_MASK)) |
 282              		.loc 1 255 0
 283 0030 0A43     		orrs	r2, r1
 284 0032 1A60     		str	r2, [r3]
 257:Generated_Source\PSoC4/isr_fail.c **** 	CyExitCriticalSection(interruptState);
 285              		.loc 1 257 0
 286 0034 0B23     		movs	r3, #11
 287 0036 FB18     		adds	r3, r7, r3
 288 0038 1B78     		ldrb	r3, [r3]
 289 003a 1800     		movs	r0, r3
 290 003c FFF7FEFF 		bl	CyExitCriticalSection
 258:Generated_Source\PSoC4/isr_fail.c **** }
 291              		.loc 1 258 0
 292 0040 C046     		nop
 293 0042 BD46     		mov	sp, r7
 294 0044 05B0     		add	sp, sp, #20
 295              		@ sp needed
 296 0046 90BD     		pop	{r4, r7, pc}
 297              	.L18:
 298              		.align	2
 299              	.L17:
 300 0048 10E400E0 		.word	-536812528
 301 004c FF3FFFFF 		.word	-49153
 302              		.cfi_endproc
 303              	.LFE6:
 304              		.size	isr_fail_SetPriority, .-isr_fail_SetPriority
 305              		.section	.text.isr_fail_GetPriority,"ax",%progbits
 306              		.align	2
 307              		.global	isr_fail_GetPriority
 308              		.code	16
 309              		.thumb_func
 310              		.type	isr_fail_GetPriority, %function
 311              	isr_fail_GetPriority:
ARM GAS  C:\Users\gjl\AppData\Local\Temp\ccZf2xKp.s 			page 11


 312              	.LFB7:
 259:Generated_Source\PSoC4/isr_fail.c **** 
 260:Generated_Source\PSoC4/isr_fail.c **** 
 261:Generated_Source\PSoC4/isr_fail.c **** /*******************************************************************************
 262:Generated_Source\PSoC4/isr_fail.c **** * Function Name: isr_fail_GetPriority
 263:Generated_Source\PSoC4/isr_fail.c **** ********************************************************************************
 264:Generated_Source\PSoC4/isr_fail.c **** *
 265:Generated_Source\PSoC4/isr_fail.c **** * Summary:
 266:Generated_Source\PSoC4/isr_fail.c **** *   Gets the Priority of the Interrupt.
 267:Generated_Source\PSoC4/isr_fail.c **** *
 268:Generated_Source\PSoC4/isr_fail.c **** * Parameters:
 269:Generated_Source\PSoC4/isr_fail.c **** *   None
 270:Generated_Source\PSoC4/isr_fail.c **** *
 271:Generated_Source\PSoC4/isr_fail.c **** * Return:
 272:Generated_Source\PSoC4/isr_fail.c **** *   Priority of the interrupt, 0 being the highest priority
 273:Generated_Source\PSoC4/isr_fail.c **** *    PSoC 3 and PSoC 5LP: Priority is from 0 to 7.
 274:Generated_Source\PSoC4/isr_fail.c **** *    PSoC 4: Priority is from 0 to 3.
 275:Generated_Source\PSoC4/isr_fail.c **** *
 276:Generated_Source\PSoC4/isr_fail.c **** *******************************************************************************/
 277:Generated_Source\PSoC4/isr_fail.c **** uint8 isr_fail_GetPriority(void)
 278:Generated_Source\PSoC4/isr_fail.c **** {
 313              		.loc 1 278 0
 314              		.cfi_startproc
 315              		@ args = 0, pretend = 0, frame = 8
 316              		@ frame_needed = 1, uses_anonymous_args = 0
 317 0000 80B5     		push	{r7, lr}
 318              		.cfi_def_cfa_offset 8
 319              		.cfi_offset 7, -8
 320              		.cfi_offset 14, -4
 321 0002 82B0     		sub	sp, sp, #8
 322              		.cfi_def_cfa_offset 16
 323 0004 00AF     		add	r7, sp, #0
 324              		.cfi_def_cfa_register 7
 279:Generated_Source\PSoC4/isr_fail.c ****     uint32 priority;
 280:Generated_Source\PSoC4/isr_fail.c **** 	uint32 priorityOffset = ((isr_fail__INTC_NUMBER % 4u) * 8u) + 6u;
 325              		.loc 1 280 0
 326 0006 0E23     		movs	r3, #14
 327 0008 7B60     		str	r3, [r7, #4]
 281:Generated_Source\PSoC4/isr_fail.c **** 
 282:Generated_Source\PSoC4/isr_fail.c ****     priority = (*isr_fail_INTC_PRIOR & isr_fail__INTC_PRIOR_MASK) >> priorityOffset;
 328              		.loc 1 282 0
 329 000a 074B     		ldr	r3, .L21
 330 000c 1A68     		ldr	r2, [r3]
 331 000e C023     		movs	r3, #192
 332 0010 1B02     		lsls	r3, r3, #8
 333 0012 1A40     		ands	r2, r3
 334 0014 7B68     		ldr	r3, [r7, #4]
 335 0016 DA40     		lsrs	r2, r2, r3
 336 0018 1300     		movs	r3, r2
 337 001a 3B60     		str	r3, [r7]
 283:Generated_Source\PSoC4/isr_fail.c **** 
 284:Generated_Source\PSoC4/isr_fail.c ****     return (uint8)priority;
 338              		.loc 1 284 0
 339 001c 3B68     		ldr	r3, [r7]
 340 001e DBB2     		uxtb	r3, r3
 285:Generated_Source\PSoC4/isr_fail.c **** }
 341              		.loc 1 285 0
ARM GAS  C:\Users\gjl\AppData\Local\Temp\ccZf2xKp.s 			page 12


 342 0020 1800     		movs	r0, r3
 343 0022 BD46     		mov	sp, r7
 344 0024 02B0     		add	sp, sp, #8
 345              		@ sp needed
 346 0026 80BD     		pop	{r7, pc}
 347              	.L22:
 348              		.align	2
 349              	.L21:
 350 0028 10E400E0 		.word	-536812528
 351              		.cfi_endproc
 352              	.LFE7:
 353              		.size	isr_fail_GetPriority, .-isr_fail_GetPriority
 354              		.section	.text.isr_fail_Enable,"ax",%progbits
 355              		.align	2
 356              		.global	isr_fail_Enable
 357              		.code	16
 358              		.thumb_func
 359              		.type	isr_fail_Enable, %function
 360              	isr_fail_Enable:
 361              	.LFB8:
 286:Generated_Source\PSoC4/isr_fail.c **** 
 287:Generated_Source\PSoC4/isr_fail.c **** 
 288:Generated_Source\PSoC4/isr_fail.c **** /*******************************************************************************
 289:Generated_Source\PSoC4/isr_fail.c **** * Function Name: isr_fail_Enable
 290:Generated_Source\PSoC4/isr_fail.c **** ********************************************************************************
 291:Generated_Source\PSoC4/isr_fail.c **** *
 292:Generated_Source\PSoC4/isr_fail.c **** * Summary:
 293:Generated_Source\PSoC4/isr_fail.c **** *   Enables the interrupt to the interrupt controller. Do not call this function
 294:Generated_Source\PSoC4/isr_fail.c **** *   unless ISR_Start() has been called or the functionality of the ISR_Start() 
 295:Generated_Source\PSoC4/isr_fail.c **** *   function, which sets the vector and the priority, has been called.
 296:Generated_Source\PSoC4/isr_fail.c **** *
 297:Generated_Source\PSoC4/isr_fail.c **** * Parameters:
 298:Generated_Source\PSoC4/isr_fail.c **** *   None
 299:Generated_Source\PSoC4/isr_fail.c **** *
 300:Generated_Source\PSoC4/isr_fail.c **** * Return:
 301:Generated_Source\PSoC4/isr_fail.c **** *   None
 302:Generated_Source\PSoC4/isr_fail.c **** *
 303:Generated_Source\PSoC4/isr_fail.c **** *******************************************************************************/
 304:Generated_Source\PSoC4/isr_fail.c **** void isr_fail_Enable(void)
 305:Generated_Source\PSoC4/isr_fail.c **** {
 362              		.loc 1 305 0
 363              		.cfi_startproc
 364              		@ args = 0, pretend = 0, frame = 0
 365              		@ frame_needed = 1, uses_anonymous_args = 0
 366 0000 80B5     		push	{r7, lr}
 367              		.cfi_def_cfa_offset 8
 368              		.cfi_offset 7, -8
 369              		.cfi_offset 14, -4
 370 0002 00AF     		add	r7, sp, #0
 371              		.cfi_def_cfa_register 7
 306:Generated_Source\PSoC4/isr_fail.c ****     /* Enable the general interrupt. */
 307:Generated_Source\PSoC4/isr_fail.c ****     *isr_fail_INTC_SET_EN = isr_fail__INTC_MASK;
 372              		.loc 1 307 0
 373 0004 034B     		ldr	r3, .L24
 374 0006 8022     		movs	r2, #128
 375 0008 9202     		lsls	r2, r2, #10
 376 000a 1A60     		str	r2, [r3]
ARM GAS  C:\Users\gjl\AppData\Local\Temp\ccZf2xKp.s 			page 13


 308:Generated_Source\PSoC4/isr_fail.c **** }
 377              		.loc 1 308 0
 378 000c C046     		nop
 379 000e BD46     		mov	sp, r7
 380              		@ sp needed
 381 0010 80BD     		pop	{r7, pc}
 382              	.L25:
 383 0012 C046     		.align	2
 384              	.L24:
 385 0014 00E100E0 		.word	-536813312
 386              		.cfi_endproc
 387              	.LFE8:
 388              		.size	isr_fail_Enable, .-isr_fail_Enable
 389              		.section	.text.isr_fail_GetState,"ax",%progbits
 390              		.align	2
 391              		.global	isr_fail_GetState
 392              		.code	16
 393              		.thumb_func
 394              		.type	isr_fail_GetState, %function
 395              	isr_fail_GetState:
 396              	.LFB9:
 309:Generated_Source\PSoC4/isr_fail.c **** 
 310:Generated_Source\PSoC4/isr_fail.c **** 
 311:Generated_Source\PSoC4/isr_fail.c **** /*******************************************************************************
 312:Generated_Source\PSoC4/isr_fail.c **** * Function Name: isr_fail_GetState
 313:Generated_Source\PSoC4/isr_fail.c **** ********************************************************************************
 314:Generated_Source\PSoC4/isr_fail.c **** *
 315:Generated_Source\PSoC4/isr_fail.c **** * Summary:
 316:Generated_Source\PSoC4/isr_fail.c **** *   Gets the state (enabled, disabled) of the Interrupt.
 317:Generated_Source\PSoC4/isr_fail.c **** *
 318:Generated_Source\PSoC4/isr_fail.c **** * Parameters:
 319:Generated_Source\PSoC4/isr_fail.c **** *   None
 320:Generated_Source\PSoC4/isr_fail.c **** *
 321:Generated_Source\PSoC4/isr_fail.c **** * Return:
 322:Generated_Source\PSoC4/isr_fail.c **** *   1 if enabled, 0 if disabled.
 323:Generated_Source\PSoC4/isr_fail.c **** *
 324:Generated_Source\PSoC4/isr_fail.c **** *******************************************************************************/
 325:Generated_Source\PSoC4/isr_fail.c **** uint8 isr_fail_GetState(void)
 326:Generated_Source\PSoC4/isr_fail.c **** {
 397              		.loc 1 326 0
 398              		.cfi_startproc
 399              		@ args = 0, pretend = 0, frame = 0
 400              		@ frame_needed = 1, uses_anonymous_args = 0
 401 0000 80B5     		push	{r7, lr}
 402              		.cfi_def_cfa_offset 8
 403              		.cfi_offset 7, -8
 404              		.cfi_offset 14, -4
 405 0002 00AF     		add	r7, sp, #0
 406              		.cfi_def_cfa_register 7
 327:Generated_Source\PSoC4/isr_fail.c ****     /* Get the state of the general interrupt. */
 328:Generated_Source\PSoC4/isr_fail.c ****     return ((*isr_fail_INTC_SET_EN & (uint32)isr_fail__INTC_MASK) != 0u) ? 1u:0u;
 407              		.loc 1 328 0
 408 0004 054B     		ldr	r3, .L30
 409 0006 1A68     		ldr	r2, [r3]
 410 0008 8023     		movs	r3, #128
 411 000a 9B02     		lsls	r3, r3, #10
 412 000c 1340     		ands	r3, r2
ARM GAS  C:\Users\gjl\AppData\Local\Temp\ccZf2xKp.s 			page 14


 413 000e 01D0     		beq	.L27
 414              		.loc 1 328 0 is_stmt 0 discriminator 1
 415 0010 0123     		movs	r3, #1
 416 0012 00E0     		b	.L28
 417              	.L27:
 418              		.loc 1 328 0 discriminator 2
 419 0014 0023     		movs	r3, #0
 420              	.L28:
 329:Generated_Source\PSoC4/isr_fail.c **** }
 421              		.loc 1 329 0 is_stmt 1 discriminator 4
 422 0016 1800     		movs	r0, r3
 423 0018 BD46     		mov	sp, r7
 424              		@ sp needed
 425 001a 80BD     		pop	{r7, pc}
 426              	.L31:
 427              		.align	2
 428              	.L30:
 429 001c 00E100E0 		.word	-536813312
 430              		.cfi_endproc
 431              	.LFE9:
 432              		.size	isr_fail_GetState, .-isr_fail_GetState
 433              		.section	.text.isr_fail_Disable,"ax",%progbits
 434              		.align	2
 435              		.global	isr_fail_Disable
 436              		.code	16
 437              		.thumb_func
 438              		.type	isr_fail_Disable, %function
 439              	isr_fail_Disable:
 440              	.LFB10:
 330:Generated_Source\PSoC4/isr_fail.c **** 
 331:Generated_Source\PSoC4/isr_fail.c **** 
 332:Generated_Source\PSoC4/isr_fail.c **** /*******************************************************************************
 333:Generated_Source\PSoC4/isr_fail.c **** * Function Name: isr_fail_Disable
 334:Generated_Source\PSoC4/isr_fail.c **** ********************************************************************************
 335:Generated_Source\PSoC4/isr_fail.c **** *
 336:Generated_Source\PSoC4/isr_fail.c **** * Summary:
 337:Generated_Source\PSoC4/isr_fail.c **** *   Disables the Interrupt in the interrupt controller.
 338:Generated_Source\PSoC4/isr_fail.c **** *
 339:Generated_Source\PSoC4/isr_fail.c **** * Parameters:
 340:Generated_Source\PSoC4/isr_fail.c **** *   None
 341:Generated_Source\PSoC4/isr_fail.c **** *
 342:Generated_Source\PSoC4/isr_fail.c **** * Return:
 343:Generated_Source\PSoC4/isr_fail.c **** *   None
 344:Generated_Source\PSoC4/isr_fail.c **** *
 345:Generated_Source\PSoC4/isr_fail.c **** *******************************************************************************/
 346:Generated_Source\PSoC4/isr_fail.c **** void isr_fail_Disable(void)
 347:Generated_Source\PSoC4/isr_fail.c **** {
 441              		.loc 1 347 0
 442              		.cfi_startproc
 443              		@ args = 0, pretend = 0, frame = 0
 444              		@ frame_needed = 1, uses_anonymous_args = 0
 445 0000 80B5     		push	{r7, lr}
 446              		.cfi_def_cfa_offset 8
 447              		.cfi_offset 7, -8
 448              		.cfi_offset 14, -4
 449 0002 00AF     		add	r7, sp, #0
 450              		.cfi_def_cfa_register 7
ARM GAS  C:\Users\gjl\AppData\Local\Temp\ccZf2xKp.s 			page 15


 348:Generated_Source\PSoC4/isr_fail.c ****     /* Disable the general interrupt. */
 349:Generated_Source\PSoC4/isr_fail.c ****     *isr_fail_INTC_CLR_EN = isr_fail__INTC_MASK;
 451              		.loc 1 349 0
 452 0004 034B     		ldr	r3, .L33
 453 0006 8022     		movs	r2, #128
 454 0008 9202     		lsls	r2, r2, #10
 455 000a 1A60     		str	r2, [r3]
 350:Generated_Source\PSoC4/isr_fail.c **** }
 456              		.loc 1 350 0
 457 000c C046     		nop
 458 000e BD46     		mov	sp, r7
 459              		@ sp needed
 460 0010 80BD     		pop	{r7, pc}
 461              	.L34:
 462 0012 C046     		.align	2
 463              	.L33:
 464 0014 80E100E0 		.word	-536813184
 465              		.cfi_endproc
 466              	.LFE10:
 467              		.size	isr_fail_Disable, .-isr_fail_Disable
 468              		.section	.text.isr_fail_SetPending,"ax",%progbits
 469              		.align	2
 470              		.global	isr_fail_SetPending
 471              		.code	16
 472              		.thumb_func
 473              		.type	isr_fail_SetPending, %function
 474              	isr_fail_SetPending:
 475              	.LFB11:
 351:Generated_Source\PSoC4/isr_fail.c **** 
 352:Generated_Source\PSoC4/isr_fail.c **** 
 353:Generated_Source\PSoC4/isr_fail.c **** /*******************************************************************************
 354:Generated_Source\PSoC4/isr_fail.c **** * Function Name: isr_fail_SetPending
 355:Generated_Source\PSoC4/isr_fail.c **** ********************************************************************************
 356:Generated_Source\PSoC4/isr_fail.c **** *
 357:Generated_Source\PSoC4/isr_fail.c **** * Summary:
 358:Generated_Source\PSoC4/isr_fail.c **** *   Causes the Interrupt to enter the pending state, a software method of
 359:Generated_Source\PSoC4/isr_fail.c **** *   generating the interrupt.
 360:Generated_Source\PSoC4/isr_fail.c **** *
 361:Generated_Source\PSoC4/isr_fail.c **** * Parameters:
 362:Generated_Source\PSoC4/isr_fail.c **** *   None
 363:Generated_Source\PSoC4/isr_fail.c **** *
 364:Generated_Source\PSoC4/isr_fail.c **** * Return:
 365:Generated_Source\PSoC4/isr_fail.c **** *   None
 366:Generated_Source\PSoC4/isr_fail.c **** *
 367:Generated_Source\PSoC4/isr_fail.c **** * Side Effects:
 368:Generated_Source\PSoC4/isr_fail.c **** *   If interrupts are enabled and the interrupt is set up properly, the ISR is
 369:Generated_Source\PSoC4/isr_fail.c **** *   entered (depending on the priority of this interrupt and other pending 
 370:Generated_Source\PSoC4/isr_fail.c **** *   interrupts).
 371:Generated_Source\PSoC4/isr_fail.c **** *
 372:Generated_Source\PSoC4/isr_fail.c **** *******************************************************************************/
 373:Generated_Source\PSoC4/isr_fail.c **** void isr_fail_SetPending(void)
 374:Generated_Source\PSoC4/isr_fail.c **** {
 476              		.loc 1 374 0
 477              		.cfi_startproc
 478              		@ args = 0, pretend = 0, frame = 0
 479              		@ frame_needed = 1, uses_anonymous_args = 0
 480 0000 80B5     		push	{r7, lr}
ARM GAS  C:\Users\gjl\AppData\Local\Temp\ccZf2xKp.s 			page 16


 481              		.cfi_def_cfa_offset 8
 482              		.cfi_offset 7, -8
 483              		.cfi_offset 14, -4
 484 0002 00AF     		add	r7, sp, #0
 485              		.cfi_def_cfa_register 7
 375:Generated_Source\PSoC4/isr_fail.c ****     *isr_fail_INTC_SET_PD = isr_fail__INTC_MASK;
 486              		.loc 1 375 0
 487 0004 034B     		ldr	r3, .L36
 488 0006 8022     		movs	r2, #128
 489 0008 9202     		lsls	r2, r2, #10
 490 000a 1A60     		str	r2, [r3]
 376:Generated_Source\PSoC4/isr_fail.c **** }
 491              		.loc 1 376 0
 492 000c C046     		nop
 493 000e BD46     		mov	sp, r7
 494              		@ sp needed
 495 0010 80BD     		pop	{r7, pc}
 496              	.L37:
 497 0012 C046     		.align	2
 498              	.L36:
 499 0014 00E200E0 		.word	-536813056
 500              		.cfi_endproc
 501              	.LFE11:
 502              		.size	isr_fail_SetPending, .-isr_fail_SetPending
 503              		.section	.text.isr_fail_ClearPending,"ax",%progbits
 504              		.align	2
 505              		.global	isr_fail_ClearPending
 506              		.code	16
 507              		.thumb_func
 508              		.type	isr_fail_ClearPending, %function
 509              	isr_fail_ClearPending:
 510              	.LFB12:
 377:Generated_Source\PSoC4/isr_fail.c **** 
 378:Generated_Source\PSoC4/isr_fail.c **** 
 379:Generated_Source\PSoC4/isr_fail.c **** /*******************************************************************************
 380:Generated_Source\PSoC4/isr_fail.c **** * Function Name: isr_fail_ClearPending
 381:Generated_Source\PSoC4/isr_fail.c **** ********************************************************************************
 382:Generated_Source\PSoC4/isr_fail.c **** *
 383:Generated_Source\PSoC4/isr_fail.c **** * Summary:
 384:Generated_Source\PSoC4/isr_fail.c **** *   Clears a pending interrupt in the interrupt controller.
 385:Generated_Source\PSoC4/isr_fail.c **** *
 386:Generated_Source\PSoC4/isr_fail.c **** *   Note Some interrupt sources are clear-on-read and require the block 
 387:Generated_Source\PSoC4/isr_fail.c **** *   interrupt/status register to be read/cleared with the appropriate block API 
 388:Generated_Source\PSoC4/isr_fail.c **** *   (GPIO, UART, and so on). Otherwise the ISR will continue to remain in 
 389:Generated_Source\PSoC4/isr_fail.c **** *   pending state even though the interrupt itself is cleared using this API.
 390:Generated_Source\PSoC4/isr_fail.c **** *
 391:Generated_Source\PSoC4/isr_fail.c **** * Parameters:
 392:Generated_Source\PSoC4/isr_fail.c **** *   None
 393:Generated_Source\PSoC4/isr_fail.c **** *
 394:Generated_Source\PSoC4/isr_fail.c **** * Return:
 395:Generated_Source\PSoC4/isr_fail.c **** *   None
 396:Generated_Source\PSoC4/isr_fail.c **** *
 397:Generated_Source\PSoC4/isr_fail.c **** *******************************************************************************/
 398:Generated_Source\PSoC4/isr_fail.c **** void isr_fail_ClearPending(void)
 399:Generated_Source\PSoC4/isr_fail.c **** {
 511              		.loc 1 399 0
 512              		.cfi_startproc
ARM GAS  C:\Users\gjl\AppData\Local\Temp\ccZf2xKp.s 			page 17


 513              		@ args = 0, pretend = 0, frame = 0
 514              		@ frame_needed = 1, uses_anonymous_args = 0
 515 0000 80B5     		push	{r7, lr}
 516              		.cfi_def_cfa_offset 8
 517              		.cfi_offset 7, -8
 518              		.cfi_offset 14, -4
 519 0002 00AF     		add	r7, sp, #0
 520              		.cfi_def_cfa_register 7
 400:Generated_Source\PSoC4/isr_fail.c ****     *isr_fail_INTC_CLR_PD = isr_fail__INTC_MASK;
 521              		.loc 1 400 0
 522 0004 034B     		ldr	r3, .L39
 523 0006 8022     		movs	r2, #128
 524 0008 9202     		lsls	r2, r2, #10
 525 000a 1A60     		str	r2, [r3]
 401:Generated_Source\PSoC4/isr_fail.c **** }
 526              		.loc 1 401 0
 527 000c C046     		nop
 528 000e BD46     		mov	sp, r7
 529              		@ sp needed
 530 0010 80BD     		pop	{r7, pc}
 531              	.L40:
 532 0012 C046     		.align	2
 533              	.L39:
 534 0014 80E200E0 		.word	-536812928
 535              		.cfi_endproc
 536              	.LFE12:
 537              		.size	isr_fail_ClearPending, .-isr_fail_ClearPending
 538              		.text
 539              	.Letext0:
 540              		.file 2 "Generated_Source\\PSoC4/cytypes.h"