ARM GAS  C:\Users\gjl\AppData\Local\Temp\cc8yHSzD.s 			page 1


   1              		.syntax unified
   2              		.cpu cortex-m0
   3              		.fpu softvfp
   4              		.eabi_attribute 20, 1
   5              		.eabi_attribute 21, 1
   6              		.eabi_attribute 23, 3
   7              		.eabi_attribute 24, 1
   8              		.eabi_attribute 25, 1
   9              		.eabi_attribute 26, 1
  10              		.eabi_attribute 30, 6
  11              		.eabi_attribute 34, 0
  12              		.eabi_attribute 18, 4
  13              		.thumb
  14              		.syntax unified
  15              		.file	"PWM_Fail.c"
  16              		.text
  17              	.Ltext0:
  18              		.cfi_sections	.debug_frame
  19              		.global	PWM_Fail_initVar
  20              		.bss
  21              		.type	PWM_Fail_initVar, %object
  22              		.size	PWM_Fail_initVar, 1
  23              	PWM_Fail_initVar:
  24 0000 00       		.space	1
  25              		.section	.text.PWM_Fail_Init,"ax",%progbits
  26              		.align	2
  27              		.global	PWM_Fail_Init
  28              		.code	16
  29              		.thumb_func
  30              		.type	PWM_Fail_Init, %function
  31              	PWM_Fail_Init:
  32              	.LFB0:
  33              		.file 1 "Generated_Source\\PSoC4\\PWM_Fail.c"
   1:Generated_Source\PSoC4/PWM_Fail.c **** /*******************************************************************************
   2:Generated_Source\PSoC4/PWM_Fail.c **** * File Name: PWM_Fail.c
   3:Generated_Source\PSoC4/PWM_Fail.c **** * Version 2.10
   4:Generated_Source\PSoC4/PWM_Fail.c **** *
   5:Generated_Source\PSoC4/PWM_Fail.c **** * Description:
   6:Generated_Source\PSoC4/PWM_Fail.c **** *  This file provides the source code to the API for the PWM_Fail
   7:Generated_Source\PSoC4/PWM_Fail.c **** *  component
   8:Generated_Source\PSoC4/PWM_Fail.c **** *
   9:Generated_Source\PSoC4/PWM_Fail.c **** * Note:
  10:Generated_Source\PSoC4/PWM_Fail.c **** *  None
  11:Generated_Source\PSoC4/PWM_Fail.c **** *
  12:Generated_Source\PSoC4/PWM_Fail.c **** ********************************************************************************
  13:Generated_Source\PSoC4/PWM_Fail.c **** * Copyright 2013-2015, Cypress Semiconductor Corporation.  All rights reserved.
  14:Generated_Source\PSoC4/PWM_Fail.c **** * You may use this file only in accordance with the license, terms, conditions,
  15:Generated_Source\PSoC4/PWM_Fail.c **** * disclaimers, and limitations in the end user license agreement accompanying
  16:Generated_Source\PSoC4/PWM_Fail.c **** * the software package with which this file was provided.
  17:Generated_Source\PSoC4/PWM_Fail.c **** *******************************************************************************/
  18:Generated_Source\PSoC4/PWM_Fail.c **** 
  19:Generated_Source\PSoC4/PWM_Fail.c **** #include "PWM_Fail.h"
  20:Generated_Source\PSoC4/PWM_Fail.c **** 
  21:Generated_Source\PSoC4/PWM_Fail.c **** uint8 PWM_Fail_initVar = 0u;
  22:Generated_Source\PSoC4/PWM_Fail.c **** 
  23:Generated_Source\PSoC4/PWM_Fail.c **** 
  24:Generated_Source\PSoC4/PWM_Fail.c **** /*******************************************************************************
ARM GAS  C:\Users\gjl\AppData\Local\Temp\cc8yHSzD.s 			page 2


  25:Generated_Source\PSoC4/PWM_Fail.c **** * Function Name: PWM_Fail_Init
  26:Generated_Source\PSoC4/PWM_Fail.c **** ********************************************************************************
  27:Generated_Source\PSoC4/PWM_Fail.c **** *
  28:Generated_Source\PSoC4/PWM_Fail.c **** * Summary:
  29:Generated_Source\PSoC4/PWM_Fail.c **** *  Initialize/Restore default PWM_Fail configuration.
  30:Generated_Source\PSoC4/PWM_Fail.c **** *
  31:Generated_Source\PSoC4/PWM_Fail.c **** * Parameters:
  32:Generated_Source\PSoC4/PWM_Fail.c **** *  None
  33:Generated_Source\PSoC4/PWM_Fail.c **** *
  34:Generated_Source\PSoC4/PWM_Fail.c **** * Return:
  35:Generated_Source\PSoC4/PWM_Fail.c **** *  None
  36:Generated_Source\PSoC4/PWM_Fail.c **** *
  37:Generated_Source\PSoC4/PWM_Fail.c **** *******************************************************************************/
  38:Generated_Source\PSoC4/PWM_Fail.c **** void PWM_Fail_Init(void)
  39:Generated_Source\PSoC4/PWM_Fail.c **** {
  34              		.loc 1 39 0
  35              		.cfi_startproc
  36              		@ args = 0, pretend = 0, frame = 0
  37              		@ frame_needed = 1, uses_anonymous_args = 0
  38 0000 80B5     		push	{r7, lr}
  39              		.cfi_def_cfa_offset 8
  40              		.cfi_offset 7, -8
  41              		.cfi_offset 14, -4
  42 0002 00AF     		add	r7, sp, #0
  43              		.cfi_def_cfa_register 7
  40:Generated_Source\PSoC4/PWM_Fail.c **** 
  41:Generated_Source\PSoC4/PWM_Fail.c ****     /* Set values from customizer to CTRL */
  42:Generated_Source\PSoC4/PWM_Fail.c ****     #if (PWM_Fail__QUAD == PWM_Fail_CONFIG)
  43:Generated_Source\PSoC4/PWM_Fail.c ****         PWM_Fail_CONTROL_REG = PWM_Fail_CTRL_QUAD_BASE_CONFIG;
  44:Generated_Source\PSoC4/PWM_Fail.c ****         
  45:Generated_Source\PSoC4/PWM_Fail.c ****         /* Set values from customizer to CTRL1 */
  46:Generated_Source\PSoC4/PWM_Fail.c ****         PWM_Fail_TRIG_CONTROL1_REG  = PWM_Fail_QUAD_SIGNALS_MODES;
  47:Generated_Source\PSoC4/PWM_Fail.c **** 
  48:Generated_Source\PSoC4/PWM_Fail.c ****         /* Set values from customizer to INTR */
  49:Generated_Source\PSoC4/PWM_Fail.c ****         PWM_Fail_SetInterruptMode(PWM_Fail_QUAD_INTERRUPT_MASK);
  50:Generated_Source\PSoC4/PWM_Fail.c ****         
  51:Generated_Source\PSoC4/PWM_Fail.c ****          /* Set other values */
  52:Generated_Source\PSoC4/PWM_Fail.c ****         PWM_Fail_SetCounterMode(PWM_Fail_COUNT_DOWN);
  53:Generated_Source\PSoC4/PWM_Fail.c ****         PWM_Fail_WritePeriod(PWM_Fail_QUAD_PERIOD_INIT_VALUE);
  54:Generated_Source\PSoC4/PWM_Fail.c ****         PWM_Fail_WriteCounter(PWM_Fail_QUAD_PERIOD_INIT_VALUE);
  55:Generated_Source\PSoC4/PWM_Fail.c ****     #endif  /* (PWM_Fail__QUAD == PWM_Fail_CONFIG) */
  56:Generated_Source\PSoC4/PWM_Fail.c **** 
  57:Generated_Source\PSoC4/PWM_Fail.c ****     #if (PWM_Fail__TIMER == PWM_Fail_CONFIG)
  58:Generated_Source\PSoC4/PWM_Fail.c ****         PWM_Fail_CONTROL_REG = PWM_Fail_CTRL_TIMER_BASE_CONFIG;
  59:Generated_Source\PSoC4/PWM_Fail.c ****         
  60:Generated_Source\PSoC4/PWM_Fail.c ****         /* Set values from customizer to CTRL1 */
  61:Generated_Source\PSoC4/PWM_Fail.c ****         PWM_Fail_TRIG_CONTROL1_REG  = PWM_Fail_TIMER_SIGNALS_MODES;
  62:Generated_Source\PSoC4/PWM_Fail.c ****     
  63:Generated_Source\PSoC4/PWM_Fail.c ****         /* Set values from customizer to INTR */
  64:Generated_Source\PSoC4/PWM_Fail.c ****         PWM_Fail_SetInterruptMode(PWM_Fail_TC_INTERRUPT_MASK);
  65:Generated_Source\PSoC4/PWM_Fail.c ****         
  66:Generated_Source\PSoC4/PWM_Fail.c ****         /* Set other values from customizer */
  67:Generated_Source\PSoC4/PWM_Fail.c ****         PWM_Fail_WritePeriod(PWM_Fail_TC_PERIOD_VALUE );
  68:Generated_Source\PSoC4/PWM_Fail.c **** 
  69:Generated_Source\PSoC4/PWM_Fail.c ****         #if (PWM_Fail__COMPARE == PWM_Fail_TC_COMP_CAP_MODE)
  70:Generated_Source\PSoC4/PWM_Fail.c ****             PWM_Fail_WriteCompare(PWM_Fail_TC_COMPARE_VALUE);
  71:Generated_Source\PSoC4/PWM_Fail.c **** 
ARM GAS  C:\Users\gjl\AppData\Local\Temp\cc8yHSzD.s 			page 3


  72:Generated_Source\PSoC4/PWM_Fail.c ****             #if (1u == PWM_Fail_TC_COMPARE_SWAP)
  73:Generated_Source\PSoC4/PWM_Fail.c ****                 PWM_Fail_SetCompareSwap(1u);
  74:Generated_Source\PSoC4/PWM_Fail.c ****                 PWM_Fail_WriteCompareBuf(PWM_Fail_TC_COMPARE_BUF_VALUE);
  75:Generated_Source\PSoC4/PWM_Fail.c ****             #endif  /* (1u == PWM_Fail_TC_COMPARE_SWAP) */
  76:Generated_Source\PSoC4/PWM_Fail.c ****         #endif  /* (PWM_Fail__COMPARE == PWM_Fail_TC_COMP_CAP_MODE) */
  77:Generated_Source\PSoC4/PWM_Fail.c **** 
  78:Generated_Source\PSoC4/PWM_Fail.c ****         /* Initialize counter value */
  79:Generated_Source\PSoC4/PWM_Fail.c ****         #if (PWM_Fail_CY_TCPWM_V2 && PWM_Fail_TIMER_UPDOWN_CNT_USED && !PWM_Fail_CY_TCPWM_4000)
  80:Generated_Source\PSoC4/PWM_Fail.c ****             PWM_Fail_WriteCounter(1u);
  81:Generated_Source\PSoC4/PWM_Fail.c ****         #elif(PWM_Fail__COUNT_DOWN == PWM_Fail_TC_COUNTER_MODE)
  82:Generated_Source\PSoC4/PWM_Fail.c ****             PWM_Fail_WriteCounter(PWM_Fail_TC_PERIOD_VALUE);
  83:Generated_Source\PSoC4/PWM_Fail.c ****         #else
  84:Generated_Source\PSoC4/PWM_Fail.c ****             PWM_Fail_WriteCounter(0u);
  85:Generated_Source\PSoC4/PWM_Fail.c ****         #endif /* (PWM_Fail_CY_TCPWM_V2 && PWM_Fail_TIMER_UPDOWN_CNT_USED && !PWM_Fail_CY_TCPWM_400
  86:Generated_Source\PSoC4/PWM_Fail.c ****     #endif  /* (PWM_Fail__TIMER == PWM_Fail_CONFIG) */
  87:Generated_Source\PSoC4/PWM_Fail.c **** 
  88:Generated_Source\PSoC4/PWM_Fail.c ****     #if (PWM_Fail__PWM_SEL == PWM_Fail_CONFIG)
  89:Generated_Source\PSoC4/PWM_Fail.c ****         PWM_Fail_CONTROL_REG = PWM_Fail_CTRL_PWM_BASE_CONFIG;
  44              		.loc 1 89 0
  45 0004 104B     		ldr	r3, .L2
  46 0006 8022     		movs	r2, #128
  47 0008 D204     		lsls	r2, r2, #19
  48 000a 1A60     		str	r2, [r3]
  90:Generated_Source\PSoC4/PWM_Fail.c **** 
  91:Generated_Source\PSoC4/PWM_Fail.c ****         #if (PWM_Fail__PWM_PR == PWM_Fail_PWM_MODE)
  92:Generated_Source\PSoC4/PWM_Fail.c ****             PWM_Fail_CONTROL_REG |= PWM_Fail_CTRL_PWM_RUN_MODE;
  93:Generated_Source\PSoC4/PWM_Fail.c ****             PWM_Fail_WriteCounter(PWM_Fail_PWM_PR_INIT_VALUE);
  94:Generated_Source\PSoC4/PWM_Fail.c ****         #else
  95:Generated_Source\PSoC4/PWM_Fail.c ****             PWM_Fail_CONTROL_REG |= PWM_Fail_CTRL_PWM_ALIGN | PWM_Fail_CTRL_PWM_KILL_EVENT;
  49              		.loc 1 95 0
  50 000c 0E4B     		ldr	r3, .L2
  51 000e 0E4A     		ldr	r2, .L2
  52 0010 1268     		ldr	r2, [r2]
  53 0012 1A60     		str	r2, [r3]
  96:Generated_Source\PSoC4/PWM_Fail.c ****             
  97:Generated_Source\PSoC4/PWM_Fail.c ****             /* Initialize counter value */
  98:Generated_Source\PSoC4/PWM_Fail.c ****             #if (PWM_Fail_CY_TCPWM_V2 && PWM_Fail_PWM_UPDOWN_CNT_USED && !PWM_Fail_CY_TCPWM_4000)
  99:Generated_Source\PSoC4/PWM_Fail.c ****                 PWM_Fail_WriteCounter(1u);
 100:Generated_Source\PSoC4/PWM_Fail.c ****             #elif (PWM_Fail__RIGHT == PWM_Fail_PWM_ALIGN)
 101:Generated_Source\PSoC4/PWM_Fail.c ****                 PWM_Fail_WriteCounter(PWM_Fail_PWM_PERIOD_VALUE);
 102:Generated_Source\PSoC4/PWM_Fail.c ****             #else 
 103:Generated_Source\PSoC4/PWM_Fail.c ****                 PWM_Fail_WriteCounter(0u);
  54              		.loc 1 103 0
  55 0014 0020     		movs	r0, #0
  56 0016 FFF7FEFF 		bl	PWM_Fail_WriteCounter
 104:Generated_Source\PSoC4/PWM_Fail.c ****             #endif  /* (PWM_Fail_CY_TCPWM_V2 && PWM_Fail_PWM_UPDOWN_CNT_USED && !PWM_Fail_CY_TCPWM_
 105:Generated_Source\PSoC4/PWM_Fail.c ****         #endif  /* (PWM_Fail__PWM_PR == PWM_Fail_PWM_MODE) */
 106:Generated_Source\PSoC4/PWM_Fail.c **** 
 107:Generated_Source\PSoC4/PWM_Fail.c ****         #if (PWM_Fail__PWM_DT == PWM_Fail_PWM_MODE)
 108:Generated_Source\PSoC4/PWM_Fail.c ****             PWM_Fail_CONTROL_REG |= PWM_Fail_CTRL_PWM_DEAD_TIME_CYCLE;
 109:Generated_Source\PSoC4/PWM_Fail.c ****         #endif  /* (PWM_Fail__PWM_DT == PWM_Fail_PWM_MODE) */
 110:Generated_Source\PSoC4/PWM_Fail.c **** 
 111:Generated_Source\PSoC4/PWM_Fail.c ****         #if (PWM_Fail__PWM == PWM_Fail_PWM_MODE)
 112:Generated_Source\PSoC4/PWM_Fail.c ****             PWM_Fail_CONTROL_REG |= PWM_Fail_CTRL_PWM_PRESCALER;
  57              		.loc 1 112 0
  58 001a 0B4B     		ldr	r3, .L2
  59 001c 0A4A     		ldr	r2, .L2
ARM GAS  C:\Users\gjl\AppData\Local\Temp\cc8yHSzD.s 			page 4


  60 001e 1268     		ldr	r2, [r2]
  61 0020 1A60     		str	r2, [r3]
 113:Generated_Source\PSoC4/PWM_Fail.c ****         #endif  /* (PWM_Fail__PWM == PWM_Fail_PWM_MODE) */
 114:Generated_Source\PSoC4/PWM_Fail.c **** 
 115:Generated_Source\PSoC4/PWM_Fail.c ****         /* Set values from customizer to CTRL1 */
 116:Generated_Source\PSoC4/PWM_Fail.c ****         PWM_Fail_TRIG_CONTROL1_REG  = PWM_Fail_PWM_SIGNALS_MODES;
  62              		.loc 1 116 0
  63 0022 0A4B     		ldr	r3, .L2+4
  64 0024 0C22     		movs	r2, #12
  65 0026 1A60     		str	r2, [r3]
 117:Generated_Source\PSoC4/PWM_Fail.c ****     
 118:Generated_Source\PSoC4/PWM_Fail.c ****         /* Set values from customizer to INTR */
 119:Generated_Source\PSoC4/PWM_Fail.c ****         PWM_Fail_SetInterruptMode(PWM_Fail_PWM_INTERRUPT_MASK);
  66              		.loc 1 119 0
  67 0028 0120     		movs	r0, #1
  68 002a FFF7FEFF 		bl	PWM_Fail_SetInterruptMode
 120:Generated_Source\PSoC4/PWM_Fail.c **** 
 121:Generated_Source\PSoC4/PWM_Fail.c ****         /* Set values from customizer to CTRL2 */
 122:Generated_Source\PSoC4/PWM_Fail.c ****         #if (PWM_Fail__PWM_PR == PWM_Fail_PWM_MODE)
 123:Generated_Source\PSoC4/PWM_Fail.c ****             PWM_Fail_TRIG_CONTROL2_REG =
 124:Generated_Source\PSoC4/PWM_Fail.c ****                     (PWM_Fail_CC_MATCH_NO_CHANGE    |
 125:Generated_Source\PSoC4/PWM_Fail.c ****                     PWM_Fail_OVERLOW_NO_CHANGE      |
 126:Generated_Source\PSoC4/PWM_Fail.c ****                     PWM_Fail_UNDERFLOW_NO_CHANGE);
 127:Generated_Source\PSoC4/PWM_Fail.c ****         #else
 128:Generated_Source\PSoC4/PWM_Fail.c ****             #if (PWM_Fail__LEFT == PWM_Fail_PWM_ALIGN)
 129:Generated_Source\PSoC4/PWM_Fail.c ****                 PWM_Fail_TRIG_CONTROL2_REG = PWM_Fail_PWM_MODE_LEFT;
  69              		.loc 1 129 0
  70 002e 084B     		ldr	r3, .L2+8
  71 0030 3122     		movs	r2, #49
  72 0032 1A60     		str	r2, [r3]
 130:Generated_Source\PSoC4/PWM_Fail.c ****             #endif  /* ( PWM_Fail_PWM_LEFT == PWM_Fail_PWM_ALIGN) */
 131:Generated_Source\PSoC4/PWM_Fail.c **** 
 132:Generated_Source\PSoC4/PWM_Fail.c ****             #if (PWM_Fail__RIGHT == PWM_Fail_PWM_ALIGN)
 133:Generated_Source\PSoC4/PWM_Fail.c ****                 PWM_Fail_TRIG_CONTROL2_REG = PWM_Fail_PWM_MODE_RIGHT;
 134:Generated_Source\PSoC4/PWM_Fail.c ****             #endif  /* ( PWM_Fail_PWM_RIGHT == PWM_Fail_PWM_ALIGN) */
 135:Generated_Source\PSoC4/PWM_Fail.c **** 
 136:Generated_Source\PSoC4/PWM_Fail.c ****             #if (PWM_Fail__CENTER == PWM_Fail_PWM_ALIGN)
 137:Generated_Source\PSoC4/PWM_Fail.c ****                 PWM_Fail_TRIG_CONTROL2_REG = PWM_Fail_PWM_MODE_CENTER;
 138:Generated_Source\PSoC4/PWM_Fail.c ****             #endif  /* ( PWM_Fail_PWM_CENTER == PWM_Fail_PWM_ALIGN) */
 139:Generated_Source\PSoC4/PWM_Fail.c **** 
 140:Generated_Source\PSoC4/PWM_Fail.c ****             #if (PWM_Fail__ASYMMETRIC == PWM_Fail_PWM_ALIGN)
 141:Generated_Source\PSoC4/PWM_Fail.c ****                 PWM_Fail_TRIG_CONTROL2_REG = PWM_Fail_PWM_MODE_ASYM;
 142:Generated_Source\PSoC4/PWM_Fail.c ****             #endif  /* (PWM_Fail__ASYMMETRIC == PWM_Fail_PWM_ALIGN) */
 143:Generated_Source\PSoC4/PWM_Fail.c ****         #endif  /* (PWM_Fail__PWM_PR == PWM_Fail_PWM_MODE) */
 144:Generated_Source\PSoC4/PWM_Fail.c **** 
 145:Generated_Source\PSoC4/PWM_Fail.c ****         /* Set other values from customizer */
 146:Generated_Source\PSoC4/PWM_Fail.c ****         PWM_Fail_WritePeriod(PWM_Fail_PWM_PERIOD_VALUE );
  73              		.loc 1 146 0
  74 0034 1E20     		movs	r0, #30
  75 0036 FFF7FEFF 		bl	PWM_Fail_WritePeriod
 147:Generated_Source\PSoC4/PWM_Fail.c ****         PWM_Fail_WriteCompare(PWM_Fail_PWM_COMPARE_VALUE);
  76              		.loc 1 147 0
  77 003a 0F20     		movs	r0, #15
  78 003c FFF7FEFF 		bl	PWM_Fail_WriteCompare
 148:Generated_Source\PSoC4/PWM_Fail.c **** 
 149:Generated_Source\PSoC4/PWM_Fail.c ****         #if (1u == PWM_Fail_PWM_COMPARE_SWAP)
 150:Generated_Source\PSoC4/PWM_Fail.c ****             PWM_Fail_SetCompareSwap(1u);
ARM GAS  C:\Users\gjl\AppData\Local\Temp\cc8yHSzD.s 			page 5


 151:Generated_Source\PSoC4/PWM_Fail.c ****             PWM_Fail_WriteCompareBuf(PWM_Fail_PWM_COMPARE_BUF_VALUE);
 152:Generated_Source\PSoC4/PWM_Fail.c ****         #endif  /* (1u == PWM_Fail_PWM_COMPARE_SWAP) */
 153:Generated_Source\PSoC4/PWM_Fail.c **** 
 154:Generated_Source\PSoC4/PWM_Fail.c ****         #if (1u == PWM_Fail_PWM_PERIOD_SWAP)
 155:Generated_Source\PSoC4/PWM_Fail.c ****             PWM_Fail_SetPeriodSwap(1u);
 156:Generated_Source\PSoC4/PWM_Fail.c ****             PWM_Fail_WritePeriodBuf(PWM_Fail_PWM_PERIOD_BUF_VALUE);
 157:Generated_Source\PSoC4/PWM_Fail.c ****         #endif  /* (1u == PWM_Fail_PWM_PERIOD_SWAP) */
 158:Generated_Source\PSoC4/PWM_Fail.c ****     #endif  /* (PWM_Fail__PWM_SEL == PWM_Fail_CONFIG) */
 159:Generated_Source\PSoC4/PWM_Fail.c ****     
 160:Generated_Source\PSoC4/PWM_Fail.c **** }
  79              		.loc 1 160 0
  80 0040 C046     		nop
  81 0042 BD46     		mov	sp, r7
  82              		@ sp needed
  83 0044 80BD     		pop	{r7, pc}
  84              	.L3:
  85 0046 C046     		.align	2
  86              	.L2:
  87 0048 40010540 		.word	1074069824
  88 004c 64010540 		.word	1074069860
  89 0050 68010540 		.word	1074069864
  90              		.cfi_endproc
  91              	.LFE0:
  92              		.size	PWM_Fail_Init, .-PWM_Fail_Init
  93              		.section	.text.PWM_Fail_Enable,"ax",%progbits
  94              		.align	2
  95              		.global	PWM_Fail_Enable
  96              		.code	16
  97              		.thumb_func
  98              		.type	PWM_Fail_Enable, %function
  99              	PWM_Fail_Enable:
 100              	.LFB1:
 161:Generated_Source\PSoC4/PWM_Fail.c **** 
 162:Generated_Source\PSoC4/PWM_Fail.c **** 
 163:Generated_Source\PSoC4/PWM_Fail.c **** /*******************************************************************************
 164:Generated_Source\PSoC4/PWM_Fail.c **** * Function Name: PWM_Fail_Enable
 165:Generated_Source\PSoC4/PWM_Fail.c **** ********************************************************************************
 166:Generated_Source\PSoC4/PWM_Fail.c **** *
 167:Generated_Source\PSoC4/PWM_Fail.c **** * Summary:
 168:Generated_Source\PSoC4/PWM_Fail.c **** *  Enables the PWM_Fail.
 169:Generated_Source\PSoC4/PWM_Fail.c **** *
 170:Generated_Source\PSoC4/PWM_Fail.c **** * Parameters:
 171:Generated_Source\PSoC4/PWM_Fail.c **** *  None
 172:Generated_Source\PSoC4/PWM_Fail.c **** *
 173:Generated_Source\PSoC4/PWM_Fail.c **** * Return:
 174:Generated_Source\PSoC4/PWM_Fail.c **** *  None
 175:Generated_Source\PSoC4/PWM_Fail.c **** *
 176:Generated_Source\PSoC4/PWM_Fail.c **** *******************************************************************************/
 177:Generated_Source\PSoC4/PWM_Fail.c **** void PWM_Fail_Enable(void)
 178:Generated_Source\PSoC4/PWM_Fail.c **** {
 101              		.loc 1 178 0
 102              		.cfi_startproc
 103              		@ args = 0, pretend = 0, frame = 8
 104              		@ frame_needed = 1, uses_anonymous_args = 0
 105 0000 90B5     		push	{r4, r7, lr}
 106              		.cfi_def_cfa_offset 12
 107              		.cfi_offset 4, -12
ARM GAS  C:\Users\gjl\AppData\Local\Temp\cc8yHSzD.s 			page 6


 108              		.cfi_offset 7, -8
 109              		.cfi_offset 14, -4
 110 0002 83B0     		sub	sp, sp, #12
 111              		.cfi_def_cfa_offset 24
 112 0004 00AF     		add	r7, sp, #0
 113              		.cfi_def_cfa_register 7
 179:Generated_Source\PSoC4/PWM_Fail.c ****     uint8 enableInterrupts;
 180:Generated_Source\PSoC4/PWM_Fail.c **** 
 181:Generated_Source\PSoC4/PWM_Fail.c ****     enableInterrupts = CyEnterCriticalSection();
 114              		.loc 1 181 0
 115 0006 FC1D     		adds	r4, r7, #7
 116 0008 FFF7FEFF 		bl	CyEnterCriticalSection
 117 000c 0300     		movs	r3, r0
 118 000e 2370     		strb	r3, [r4]
 182:Generated_Source\PSoC4/PWM_Fail.c ****     PWM_Fail_BLOCK_CONTROL_REG |= PWM_Fail_MASK;
 119              		.loc 1 182 0
 120 0010 094B     		ldr	r3, .L5
 121 0012 094A     		ldr	r2, .L5
 122 0014 1268     		ldr	r2, [r2]
 123 0016 0221     		movs	r1, #2
 124 0018 0A43     		orrs	r2, r1
 125 001a 1A60     		str	r2, [r3]
 183:Generated_Source\PSoC4/PWM_Fail.c ****     CyExitCriticalSection(enableInterrupts);
 126              		.loc 1 183 0
 127 001c FB1D     		adds	r3, r7, #7
 128 001e 1B78     		ldrb	r3, [r3]
 129 0020 1800     		movs	r0, r3
 130 0022 FFF7FEFF 		bl	CyExitCriticalSection
 184:Generated_Source\PSoC4/PWM_Fail.c **** 
 185:Generated_Source\PSoC4/PWM_Fail.c ****     /* Start Timer or PWM if start input is absent */
 186:Generated_Source\PSoC4/PWM_Fail.c ****     #if (PWM_Fail__PWM_SEL == PWM_Fail_CONFIG)
 187:Generated_Source\PSoC4/PWM_Fail.c ****         #if (0u == PWM_Fail_PWM_START_SIGNAL_PRESENT)
 188:Generated_Source\PSoC4/PWM_Fail.c ****             PWM_Fail_TriggerCommand(PWM_Fail_MASK, PWM_Fail_CMD_START);
 131              		.loc 1 188 0
 132 0026 1821     		movs	r1, #24
 133 0028 0220     		movs	r0, #2
 134 002a FFF7FEFF 		bl	PWM_Fail_TriggerCommand
 189:Generated_Source\PSoC4/PWM_Fail.c ****         #endif /* (0u == PWM_Fail_PWM_START_SIGNAL_PRESENT) */
 190:Generated_Source\PSoC4/PWM_Fail.c ****     #endif /* (PWM_Fail__PWM_SEL == PWM_Fail_CONFIG) */
 191:Generated_Source\PSoC4/PWM_Fail.c **** 
 192:Generated_Source\PSoC4/PWM_Fail.c ****     #if (PWM_Fail__TIMER == PWM_Fail_CONFIG)
 193:Generated_Source\PSoC4/PWM_Fail.c ****         #if (0u == PWM_Fail_TC_START_SIGNAL_PRESENT)
 194:Generated_Source\PSoC4/PWM_Fail.c ****             PWM_Fail_TriggerCommand(PWM_Fail_MASK, PWM_Fail_CMD_START);
 195:Generated_Source\PSoC4/PWM_Fail.c ****         #endif /* (0u == PWM_Fail_TC_START_SIGNAL_PRESENT) */
 196:Generated_Source\PSoC4/PWM_Fail.c ****     #endif /* (PWM_Fail__TIMER == PWM_Fail_CONFIG) */
 197:Generated_Source\PSoC4/PWM_Fail.c ****     
 198:Generated_Source\PSoC4/PWM_Fail.c ****     #if (PWM_Fail__QUAD == PWM_Fail_CONFIG)
 199:Generated_Source\PSoC4/PWM_Fail.c ****         #if (0u != PWM_Fail_QUAD_AUTO_START)
 200:Generated_Source\PSoC4/PWM_Fail.c ****             PWM_Fail_TriggerCommand(PWM_Fail_MASK, PWM_Fail_CMD_RELOAD);
 201:Generated_Source\PSoC4/PWM_Fail.c ****         #endif /* (0u != PWM_Fail_QUAD_AUTO_START) */
 202:Generated_Source\PSoC4/PWM_Fail.c ****     #endif  /* (PWM_Fail__QUAD == PWM_Fail_CONFIG) */
 203:Generated_Source\PSoC4/PWM_Fail.c **** }
 135              		.loc 1 203 0
 136 002e C046     		nop
 137 0030 BD46     		mov	sp, r7
 138 0032 03B0     		add	sp, sp, #12
 139              		@ sp needed
ARM GAS  C:\Users\gjl\AppData\Local\Temp\cc8yHSzD.s 			page 7


 140 0034 90BD     		pop	{r4, r7, pc}
 141              	.L6:
 142 0036 C046     		.align	2
 143              	.L5:
 144 0038 00000540 		.word	1074069504
 145              		.cfi_endproc
 146              	.LFE1:
 147              		.size	PWM_Fail_Enable, .-PWM_Fail_Enable
 148              		.section	.text.PWM_Fail_Start,"ax",%progbits
 149              		.align	2
 150              		.global	PWM_Fail_Start
 151              		.code	16
 152              		.thumb_func
 153              		.type	PWM_Fail_Start, %function
 154              	PWM_Fail_Start:
 155              	.LFB2:
 204:Generated_Source\PSoC4/PWM_Fail.c **** 
 205:Generated_Source\PSoC4/PWM_Fail.c **** 
 206:Generated_Source\PSoC4/PWM_Fail.c **** /*******************************************************************************
 207:Generated_Source\PSoC4/PWM_Fail.c **** * Function Name: PWM_Fail_Start
 208:Generated_Source\PSoC4/PWM_Fail.c **** ********************************************************************************
 209:Generated_Source\PSoC4/PWM_Fail.c **** *
 210:Generated_Source\PSoC4/PWM_Fail.c **** * Summary:
 211:Generated_Source\PSoC4/PWM_Fail.c **** *  Initializes the PWM_Fail with default customizer
 212:Generated_Source\PSoC4/PWM_Fail.c **** *  values when called the first time and enables the PWM_Fail.
 213:Generated_Source\PSoC4/PWM_Fail.c **** *  For subsequent calls the configuration is left unchanged and the component is
 214:Generated_Source\PSoC4/PWM_Fail.c **** *  just enabled.
 215:Generated_Source\PSoC4/PWM_Fail.c **** *
 216:Generated_Source\PSoC4/PWM_Fail.c **** * Parameters:
 217:Generated_Source\PSoC4/PWM_Fail.c **** *  None
 218:Generated_Source\PSoC4/PWM_Fail.c **** *
 219:Generated_Source\PSoC4/PWM_Fail.c **** * Return:
 220:Generated_Source\PSoC4/PWM_Fail.c **** *  None
 221:Generated_Source\PSoC4/PWM_Fail.c **** *
 222:Generated_Source\PSoC4/PWM_Fail.c **** * Global variables:
 223:Generated_Source\PSoC4/PWM_Fail.c **** *  PWM_Fail_initVar: global variable is used to indicate initial
 224:Generated_Source\PSoC4/PWM_Fail.c **** *  configuration of this component.  The variable is initialized to zero and set
 225:Generated_Source\PSoC4/PWM_Fail.c **** *  to 1 the first time PWM_Fail_Start() is called. This allows
 226:Generated_Source\PSoC4/PWM_Fail.c **** *  enabling/disabling a component without re-initialization in all subsequent
 227:Generated_Source\PSoC4/PWM_Fail.c **** *  calls to the PWM_Fail_Start() routine.
 228:Generated_Source\PSoC4/PWM_Fail.c **** *
 229:Generated_Source\PSoC4/PWM_Fail.c **** *******************************************************************************/
 230:Generated_Source\PSoC4/PWM_Fail.c **** void PWM_Fail_Start(void)
 231:Generated_Source\PSoC4/PWM_Fail.c **** {
 156              		.loc 1 231 0
 157              		.cfi_startproc
 158              		@ args = 0, pretend = 0, frame = 0
 159              		@ frame_needed = 1, uses_anonymous_args = 0
 160 0000 80B5     		push	{r7, lr}
 161              		.cfi_def_cfa_offset 8
 162              		.cfi_offset 7, -8
 163              		.cfi_offset 14, -4
 164 0002 00AF     		add	r7, sp, #0
 165              		.cfi_def_cfa_register 7
 232:Generated_Source\PSoC4/PWM_Fail.c ****     if (0u == PWM_Fail_initVar)
 166              		.loc 1 232 0
 167 0004 064B     		ldr	r3, .L9
ARM GAS  C:\Users\gjl\AppData\Local\Temp\cc8yHSzD.s 			page 8


 168 0006 1B78     		ldrb	r3, [r3]
 169 0008 002B     		cmp	r3, #0
 170 000a 04D1     		bne	.L8
 233:Generated_Source\PSoC4/PWM_Fail.c ****     {
 234:Generated_Source\PSoC4/PWM_Fail.c ****         PWM_Fail_Init();
 171              		.loc 1 234 0
 172 000c FFF7FEFF 		bl	PWM_Fail_Init
 235:Generated_Source\PSoC4/PWM_Fail.c ****         PWM_Fail_initVar = 1u;
 173              		.loc 1 235 0
 174 0010 034B     		ldr	r3, .L9
 175 0012 0122     		movs	r2, #1
 176 0014 1A70     		strb	r2, [r3]
 177              	.L8:
 236:Generated_Source\PSoC4/PWM_Fail.c ****     }
 237:Generated_Source\PSoC4/PWM_Fail.c **** 
 238:Generated_Source\PSoC4/PWM_Fail.c ****     PWM_Fail_Enable();
 178              		.loc 1 238 0
 179 0016 FFF7FEFF 		bl	PWM_Fail_Enable
 239:Generated_Source\PSoC4/PWM_Fail.c **** }
 180              		.loc 1 239 0
 181 001a C046     		nop
 182 001c BD46     		mov	sp, r7
 183              		@ sp needed
 184 001e 80BD     		pop	{r7, pc}
 185              	.L10:
 186              		.align	2
 187              	.L9:
 188 0020 00000000 		.word	PWM_Fail_initVar
 189              		.cfi_endproc
 190              	.LFE2:
 191              		.size	PWM_Fail_Start, .-PWM_Fail_Start
 192              		.section	.text.PWM_Fail_Stop,"ax",%progbits
 193              		.align	2
 194              		.global	PWM_Fail_Stop
 195              		.code	16
 196              		.thumb_func
 197              		.type	PWM_Fail_Stop, %function
 198              	PWM_Fail_Stop:
 199              	.LFB3:
 240:Generated_Source\PSoC4/PWM_Fail.c **** 
 241:Generated_Source\PSoC4/PWM_Fail.c **** 
 242:Generated_Source\PSoC4/PWM_Fail.c **** /*******************************************************************************
 243:Generated_Source\PSoC4/PWM_Fail.c **** * Function Name: PWM_Fail_Stop
 244:Generated_Source\PSoC4/PWM_Fail.c **** ********************************************************************************
 245:Generated_Source\PSoC4/PWM_Fail.c **** *
 246:Generated_Source\PSoC4/PWM_Fail.c **** * Summary:
 247:Generated_Source\PSoC4/PWM_Fail.c **** *  Disables the PWM_Fail.
 248:Generated_Source\PSoC4/PWM_Fail.c **** *
 249:Generated_Source\PSoC4/PWM_Fail.c **** * Parameters:
 250:Generated_Source\PSoC4/PWM_Fail.c **** *  None
 251:Generated_Source\PSoC4/PWM_Fail.c **** *
 252:Generated_Source\PSoC4/PWM_Fail.c **** * Return:
 253:Generated_Source\PSoC4/PWM_Fail.c **** *  None
 254:Generated_Source\PSoC4/PWM_Fail.c **** *
 255:Generated_Source\PSoC4/PWM_Fail.c **** *******************************************************************************/
 256:Generated_Source\PSoC4/PWM_Fail.c **** void PWM_Fail_Stop(void)
 257:Generated_Source\PSoC4/PWM_Fail.c **** {
ARM GAS  C:\Users\gjl\AppData\Local\Temp\cc8yHSzD.s 			page 9


 200              		.loc 1 257 0
 201              		.cfi_startproc
 202              		@ args = 0, pretend = 0, frame = 8
 203              		@ frame_needed = 1, uses_anonymous_args = 0
 204 0000 90B5     		push	{r4, r7, lr}
 205              		.cfi_def_cfa_offset 12
 206              		.cfi_offset 4, -12
 207              		.cfi_offset 7, -8
 208              		.cfi_offset 14, -4
 209 0002 83B0     		sub	sp, sp, #12
 210              		.cfi_def_cfa_offset 24
 211 0004 00AF     		add	r7, sp, #0
 212              		.cfi_def_cfa_register 7
 258:Generated_Source\PSoC4/PWM_Fail.c ****     uint8 enableInterrupts;
 259:Generated_Source\PSoC4/PWM_Fail.c **** 
 260:Generated_Source\PSoC4/PWM_Fail.c ****     enableInterrupts = CyEnterCriticalSection();
 213              		.loc 1 260 0
 214 0006 FC1D     		adds	r4, r7, #7
 215 0008 FFF7FEFF 		bl	CyEnterCriticalSection
 216 000c 0300     		movs	r3, r0
 217 000e 2370     		strb	r3, [r4]
 261:Generated_Source\PSoC4/PWM_Fail.c **** 
 262:Generated_Source\PSoC4/PWM_Fail.c ****     PWM_Fail_BLOCK_CONTROL_REG &= (uint32)~PWM_Fail_MASK;
 218              		.loc 1 262 0
 219 0010 074B     		ldr	r3, .L12
 220 0012 074A     		ldr	r2, .L12
 221 0014 1268     		ldr	r2, [r2]
 222 0016 0221     		movs	r1, #2
 223 0018 8A43     		bics	r2, r1
 224 001a 1A60     		str	r2, [r3]
 263:Generated_Source\PSoC4/PWM_Fail.c **** 
 264:Generated_Source\PSoC4/PWM_Fail.c ****     CyExitCriticalSection(enableInterrupts);
 225              		.loc 1 264 0
 226 001c FB1D     		adds	r3, r7, #7
 227 001e 1B78     		ldrb	r3, [r3]
 228 0020 1800     		movs	r0, r3
 229 0022 FFF7FEFF 		bl	CyExitCriticalSection
 265:Generated_Source\PSoC4/PWM_Fail.c **** }
 230              		.loc 1 265 0
 231 0026 C046     		nop
 232 0028 BD46     		mov	sp, r7
 233 002a 03B0     		add	sp, sp, #12
 234              		@ sp needed
 235 002c 90BD     		pop	{r4, r7, pc}
 236              	.L13:
 237 002e C046     		.align	2
 238              	.L12:
 239 0030 00000540 		.word	1074069504
 240              		.cfi_endproc
 241              	.LFE3:
 242              		.size	PWM_Fail_Stop, .-PWM_Fail_Stop
 243              		.section	.text.PWM_Fail_SetMode,"ax",%progbits
 244              		.align	2
 245              		.global	PWM_Fail_SetMode
 246              		.code	16
 247              		.thumb_func
 248              		.type	PWM_Fail_SetMode, %function
ARM GAS  C:\Users\gjl\AppData\Local\Temp\cc8yHSzD.s 			page 10


 249              	PWM_Fail_SetMode:
 250              	.LFB4:
 266:Generated_Source\PSoC4/PWM_Fail.c **** 
 267:Generated_Source\PSoC4/PWM_Fail.c **** 
 268:Generated_Source\PSoC4/PWM_Fail.c **** /*******************************************************************************
 269:Generated_Source\PSoC4/PWM_Fail.c **** * Function Name: PWM_Fail_SetMode
 270:Generated_Source\PSoC4/PWM_Fail.c **** ********************************************************************************
 271:Generated_Source\PSoC4/PWM_Fail.c **** *
 272:Generated_Source\PSoC4/PWM_Fail.c **** * Summary:
 273:Generated_Source\PSoC4/PWM_Fail.c **** *  Sets the operation mode of the PWM_Fail. This function is used when
 274:Generated_Source\PSoC4/PWM_Fail.c **** *  configured as a generic PWM_Fail and the actual mode of operation is
 275:Generated_Source\PSoC4/PWM_Fail.c **** *  set at runtime. The mode must be set while the component is disabled.
 276:Generated_Source\PSoC4/PWM_Fail.c **** *
 277:Generated_Source\PSoC4/PWM_Fail.c **** * Parameters:
 278:Generated_Source\PSoC4/PWM_Fail.c **** *  mode: Mode for the PWM_Fail to operate in
 279:Generated_Source\PSoC4/PWM_Fail.c **** *   Values:
 280:Generated_Source\PSoC4/PWM_Fail.c **** *   - PWM_Fail_MODE_TIMER_COMPARE - Timer / Counter with
 281:Generated_Source\PSoC4/PWM_Fail.c **** *                                                 compare capability
 282:Generated_Source\PSoC4/PWM_Fail.c **** *         - PWM_Fail_MODE_TIMER_CAPTURE - Timer / Counter with
 283:Generated_Source\PSoC4/PWM_Fail.c **** *                                                 capture capability
 284:Generated_Source\PSoC4/PWM_Fail.c **** *         - PWM_Fail_MODE_QUAD - Quadrature decoder
 285:Generated_Source\PSoC4/PWM_Fail.c **** *         - PWM_Fail_MODE_PWM - PWM
 286:Generated_Source\PSoC4/PWM_Fail.c **** *         - PWM_Fail_MODE_PWM_DT - PWM with dead time
 287:Generated_Source\PSoC4/PWM_Fail.c **** *         - PWM_Fail_MODE_PWM_PR - PWM with pseudo random capability
 288:Generated_Source\PSoC4/PWM_Fail.c **** *
 289:Generated_Source\PSoC4/PWM_Fail.c **** * Return:
 290:Generated_Source\PSoC4/PWM_Fail.c **** *  None
 291:Generated_Source\PSoC4/PWM_Fail.c **** *
 292:Generated_Source\PSoC4/PWM_Fail.c **** *******************************************************************************/
 293:Generated_Source\PSoC4/PWM_Fail.c **** void PWM_Fail_SetMode(uint32 mode)
 294:Generated_Source\PSoC4/PWM_Fail.c **** {
 251              		.loc 1 294 0
 252              		.cfi_startproc
 253              		@ args = 0, pretend = 0, frame = 16
 254              		@ frame_needed = 1, uses_anonymous_args = 0
 255 0000 90B5     		push	{r4, r7, lr}
 256              		.cfi_def_cfa_offset 12
 257              		.cfi_offset 4, -12
 258              		.cfi_offset 7, -8
 259              		.cfi_offset 14, -4
 260 0002 85B0     		sub	sp, sp, #20
 261              		.cfi_def_cfa_offset 32
 262 0004 00AF     		add	r7, sp, #0
 263              		.cfi_def_cfa_register 7
 264 0006 7860     		str	r0, [r7, #4]
 295:Generated_Source\PSoC4/PWM_Fail.c ****     uint8 enableInterrupts;
 296:Generated_Source\PSoC4/PWM_Fail.c **** 
 297:Generated_Source\PSoC4/PWM_Fail.c ****     enableInterrupts = CyEnterCriticalSection();
 265              		.loc 1 297 0
 266 0008 0F23     		movs	r3, #15
 267 000a FC18     		adds	r4, r7, r3
 268 000c FFF7FEFF 		bl	CyEnterCriticalSection
 269 0010 0300     		movs	r3, r0
 270 0012 2370     		strb	r3, [r4]
 298:Generated_Source\PSoC4/PWM_Fail.c **** 
 299:Generated_Source\PSoC4/PWM_Fail.c ****     PWM_Fail_CONTROL_REG &= (uint32)~PWM_Fail_MODE_MASK;
 271              		.loc 1 299 0
ARM GAS  C:\Users\gjl\AppData\Local\Temp\cc8yHSzD.s 			page 11


 272 0014 0A4B     		ldr	r3, .L15
 273 0016 0A4A     		ldr	r2, .L15
 274 0018 1268     		ldr	r2, [r2]
 275 001a 0A49     		ldr	r1, .L15+4
 276 001c 0A40     		ands	r2, r1
 277 001e 1A60     		str	r2, [r3]
 300:Generated_Source\PSoC4/PWM_Fail.c ****     PWM_Fail_CONTROL_REG |= mode;
 278              		.loc 1 300 0
 279 0020 074B     		ldr	r3, .L15
 280 0022 074A     		ldr	r2, .L15
 281 0024 1168     		ldr	r1, [r2]
 282 0026 7A68     		ldr	r2, [r7, #4]
 283 0028 0A43     		orrs	r2, r1
 284 002a 1A60     		str	r2, [r3]
 301:Generated_Source\PSoC4/PWM_Fail.c **** 
 302:Generated_Source\PSoC4/PWM_Fail.c ****     CyExitCriticalSection(enableInterrupts);
 285              		.loc 1 302 0
 286 002c 0F23     		movs	r3, #15
 287 002e FB18     		adds	r3, r7, r3
 288 0030 1B78     		ldrb	r3, [r3]
 289 0032 1800     		movs	r0, r3
 290 0034 FFF7FEFF 		bl	CyExitCriticalSection
 303:Generated_Source\PSoC4/PWM_Fail.c **** }
 291              		.loc 1 303 0
 292 0038 C046     		nop
 293 003a BD46     		mov	sp, r7
 294 003c 05B0     		add	sp, sp, #20
 295              		@ sp needed
 296 003e 90BD     		pop	{r4, r7, pc}
 297              	.L16:
 298              		.align	2
 299              	.L15:
 300 0040 40010540 		.word	1074069824
 301 0044 FFFFFFF8 		.word	-117440513
 302              		.cfi_endproc
 303              	.LFE4:
 304              		.size	PWM_Fail_SetMode, .-PWM_Fail_SetMode
 305              		.section	.text.PWM_Fail_SetQDMode,"ax",%progbits
 306              		.align	2
 307              		.global	PWM_Fail_SetQDMode
 308              		.code	16
 309              		.thumb_func
 310              		.type	PWM_Fail_SetQDMode, %function
 311              	PWM_Fail_SetQDMode:
 312              	.LFB5:
 304:Generated_Source\PSoC4/PWM_Fail.c **** 
 305:Generated_Source\PSoC4/PWM_Fail.c **** 
 306:Generated_Source\PSoC4/PWM_Fail.c **** /*******************************************************************************
 307:Generated_Source\PSoC4/PWM_Fail.c **** * Function Name: PWM_Fail_SetQDMode
 308:Generated_Source\PSoC4/PWM_Fail.c **** ********************************************************************************
 309:Generated_Source\PSoC4/PWM_Fail.c **** *
 310:Generated_Source\PSoC4/PWM_Fail.c **** * Summary:
 311:Generated_Source\PSoC4/PWM_Fail.c **** *  Sets the the Quadrature Decoder to one of the 3 supported modes.
 312:Generated_Source\PSoC4/PWM_Fail.c **** *  Its functionality is only applicable to Quadrature Decoder operation.
 313:Generated_Source\PSoC4/PWM_Fail.c **** *
 314:Generated_Source\PSoC4/PWM_Fail.c **** * Parameters:
 315:Generated_Source\PSoC4/PWM_Fail.c **** *  qdMode: Quadrature Decoder mode
ARM GAS  C:\Users\gjl\AppData\Local\Temp\cc8yHSzD.s 			page 12


 316:Generated_Source\PSoC4/PWM_Fail.c **** *   Values:
 317:Generated_Source\PSoC4/PWM_Fail.c **** *         - PWM_Fail_MODE_X1 - Counts on phi 1 rising
 318:Generated_Source\PSoC4/PWM_Fail.c **** *         - PWM_Fail_MODE_X2 - Counts on both edges of phi1 (2x faster)
 319:Generated_Source\PSoC4/PWM_Fail.c **** *         - PWM_Fail_MODE_X4 - Counts on both edges of phi1 and phi2
 320:Generated_Source\PSoC4/PWM_Fail.c **** *                                        (4x faster)
 321:Generated_Source\PSoC4/PWM_Fail.c **** *
 322:Generated_Source\PSoC4/PWM_Fail.c **** * Return:
 323:Generated_Source\PSoC4/PWM_Fail.c **** *  None
 324:Generated_Source\PSoC4/PWM_Fail.c **** *
 325:Generated_Source\PSoC4/PWM_Fail.c **** *******************************************************************************/
 326:Generated_Source\PSoC4/PWM_Fail.c **** void PWM_Fail_SetQDMode(uint32 qdMode)
 327:Generated_Source\PSoC4/PWM_Fail.c **** {
 313              		.loc 1 327 0
 314              		.cfi_startproc
 315              		@ args = 0, pretend = 0, frame = 16
 316              		@ frame_needed = 1, uses_anonymous_args = 0
 317 0000 90B5     		push	{r4, r7, lr}
 318              		.cfi_def_cfa_offset 12
 319              		.cfi_offset 4, -12
 320              		.cfi_offset 7, -8
 321              		.cfi_offset 14, -4
 322 0002 85B0     		sub	sp, sp, #20
 323              		.cfi_def_cfa_offset 32
 324 0004 00AF     		add	r7, sp, #0
 325              		.cfi_def_cfa_register 7
 326 0006 7860     		str	r0, [r7, #4]
 328:Generated_Source\PSoC4/PWM_Fail.c ****     uint8 enableInterrupts;
 329:Generated_Source\PSoC4/PWM_Fail.c **** 
 330:Generated_Source\PSoC4/PWM_Fail.c ****     enableInterrupts = CyEnterCriticalSection();
 327              		.loc 1 330 0
 328 0008 0F23     		movs	r3, #15
 329 000a FC18     		adds	r4, r7, r3
 330 000c FFF7FEFF 		bl	CyEnterCriticalSection
 331 0010 0300     		movs	r3, r0
 332 0012 2370     		strb	r3, [r4]
 331:Generated_Source\PSoC4/PWM_Fail.c **** 
 332:Generated_Source\PSoC4/PWM_Fail.c ****     PWM_Fail_CONTROL_REG &= (uint32)~PWM_Fail_QUAD_MODE_MASK;
 333              		.loc 1 332 0
 334 0014 0A4B     		ldr	r3, .L18
 335 0016 0A4A     		ldr	r2, .L18
 336 0018 1268     		ldr	r2, [r2]
 337 001a 0A49     		ldr	r1, .L18+4
 338 001c 0A40     		ands	r2, r1
 339 001e 1A60     		str	r2, [r3]
 333:Generated_Source\PSoC4/PWM_Fail.c ****     PWM_Fail_CONTROL_REG |= qdMode;
 340              		.loc 1 333 0
 341 0020 074B     		ldr	r3, .L18
 342 0022 074A     		ldr	r2, .L18
 343 0024 1168     		ldr	r1, [r2]
 344 0026 7A68     		ldr	r2, [r7, #4]
 345 0028 0A43     		orrs	r2, r1
 346 002a 1A60     		str	r2, [r3]
 334:Generated_Source\PSoC4/PWM_Fail.c **** 
 335:Generated_Source\PSoC4/PWM_Fail.c ****     CyExitCriticalSection(enableInterrupts);
 347              		.loc 1 335 0
 348 002c 0F23     		movs	r3, #15
 349 002e FB18     		adds	r3, r7, r3
ARM GAS  C:\Users\gjl\AppData\Local\Temp\cc8yHSzD.s 			page 13


 350 0030 1B78     		ldrb	r3, [r3]
 351 0032 1800     		movs	r0, r3
 352 0034 FFF7FEFF 		bl	CyExitCriticalSection
 336:Generated_Source\PSoC4/PWM_Fail.c **** }
 353              		.loc 1 336 0
 354 0038 C046     		nop
 355 003a BD46     		mov	sp, r7
 356 003c 05B0     		add	sp, sp, #20
 357              		@ sp needed
 358 003e 90BD     		pop	{r4, r7, pc}
 359              	.L19:
 360              		.align	2
 361              	.L18:
 362 0040 40010540 		.word	1074069824
 363 0044 FFFF8FFF 		.word	-7340033
 364              		.cfi_endproc
 365              	.LFE5:
 366              		.size	PWM_Fail_SetQDMode, .-PWM_Fail_SetQDMode
 367              		.section	.text.PWM_Fail_SetPrescaler,"ax",%progbits
 368              		.align	2
 369              		.global	PWM_Fail_SetPrescaler
 370              		.code	16
 371              		.thumb_func
 372              		.type	PWM_Fail_SetPrescaler, %function
 373              	PWM_Fail_SetPrescaler:
 374              	.LFB6:
 337:Generated_Source\PSoC4/PWM_Fail.c **** 
 338:Generated_Source\PSoC4/PWM_Fail.c **** 
 339:Generated_Source\PSoC4/PWM_Fail.c **** /*******************************************************************************
 340:Generated_Source\PSoC4/PWM_Fail.c **** * Function Name: PWM_Fail_SetPrescaler
 341:Generated_Source\PSoC4/PWM_Fail.c **** ********************************************************************************
 342:Generated_Source\PSoC4/PWM_Fail.c **** *
 343:Generated_Source\PSoC4/PWM_Fail.c **** * Summary:
 344:Generated_Source\PSoC4/PWM_Fail.c **** *  Sets the prescaler value that is applied to the clock input.  Not applicable
 345:Generated_Source\PSoC4/PWM_Fail.c **** *  to a PWM with the dead time mode or Quadrature Decoder mode.
 346:Generated_Source\PSoC4/PWM_Fail.c **** *
 347:Generated_Source\PSoC4/PWM_Fail.c **** * Parameters:
 348:Generated_Source\PSoC4/PWM_Fail.c **** *  prescaler: Prescaler divider value
 349:Generated_Source\PSoC4/PWM_Fail.c **** *   Values:
 350:Generated_Source\PSoC4/PWM_Fail.c **** *         - PWM_Fail_PRESCALE_DIVBY1    - Divide by 1 (no prescaling)
 351:Generated_Source\PSoC4/PWM_Fail.c **** *         - PWM_Fail_PRESCALE_DIVBY2    - Divide by 2
 352:Generated_Source\PSoC4/PWM_Fail.c **** *         - PWM_Fail_PRESCALE_DIVBY4    - Divide by 4
 353:Generated_Source\PSoC4/PWM_Fail.c **** *         - PWM_Fail_PRESCALE_DIVBY8    - Divide by 8
 354:Generated_Source\PSoC4/PWM_Fail.c **** *         - PWM_Fail_PRESCALE_DIVBY16   - Divide by 16
 355:Generated_Source\PSoC4/PWM_Fail.c **** *         - PWM_Fail_PRESCALE_DIVBY32   - Divide by 32
 356:Generated_Source\PSoC4/PWM_Fail.c **** *         - PWM_Fail_PRESCALE_DIVBY64   - Divide by 64
 357:Generated_Source\PSoC4/PWM_Fail.c **** *         - PWM_Fail_PRESCALE_DIVBY128  - Divide by 128
 358:Generated_Source\PSoC4/PWM_Fail.c **** *
 359:Generated_Source\PSoC4/PWM_Fail.c **** * Return:
 360:Generated_Source\PSoC4/PWM_Fail.c **** *  None
 361:Generated_Source\PSoC4/PWM_Fail.c **** *
 362:Generated_Source\PSoC4/PWM_Fail.c **** *******************************************************************************/
 363:Generated_Source\PSoC4/PWM_Fail.c **** void PWM_Fail_SetPrescaler(uint32 prescaler)
 364:Generated_Source\PSoC4/PWM_Fail.c **** {
 375              		.loc 1 364 0
 376              		.cfi_startproc
 377              		@ args = 0, pretend = 0, frame = 16
ARM GAS  C:\Users\gjl\AppData\Local\Temp\cc8yHSzD.s 			page 14


 378              		@ frame_needed = 1, uses_anonymous_args = 0
 379 0000 90B5     		push	{r4, r7, lr}
 380              		.cfi_def_cfa_offset 12
 381              		.cfi_offset 4, -12
 382              		.cfi_offset 7, -8
 383              		.cfi_offset 14, -4
 384 0002 85B0     		sub	sp, sp, #20
 385              		.cfi_def_cfa_offset 32
 386 0004 00AF     		add	r7, sp, #0
 387              		.cfi_def_cfa_register 7
 388 0006 7860     		str	r0, [r7, #4]
 365:Generated_Source\PSoC4/PWM_Fail.c ****     uint8 enableInterrupts;
 366:Generated_Source\PSoC4/PWM_Fail.c **** 
 367:Generated_Source\PSoC4/PWM_Fail.c ****     enableInterrupts = CyEnterCriticalSection();
 389              		.loc 1 367 0
 390 0008 0F23     		movs	r3, #15
 391 000a FC18     		adds	r4, r7, r3
 392 000c FFF7FEFF 		bl	CyEnterCriticalSection
 393 0010 0300     		movs	r3, r0
 394 0012 2370     		strb	r3, [r4]
 368:Generated_Source\PSoC4/PWM_Fail.c **** 
 369:Generated_Source\PSoC4/PWM_Fail.c ****     PWM_Fail_CONTROL_REG &= (uint32)~PWM_Fail_PRESCALER_MASK;
 395              		.loc 1 369 0
 396 0014 0A4B     		ldr	r3, .L21
 397 0016 0A4A     		ldr	r2, .L21
 398 0018 1268     		ldr	r2, [r2]
 399 001a 0A49     		ldr	r1, .L21+4
 400 001c 0A40     		ands	r2, r1
 401 001e 1A60     		str	r2, [r3]
 370:Generated_Source\PSoC4/PWM_Fail.c ****     PWM_Fail_CONTROL_REG |= prescaler;
 402              		.loc 1 370 0
 403 0020 074B     		ldr	r3, .L21
 404 0022 074A     		ldr	r2, .L21
 405 0024 1168     		ldr	r1, [r2]
 406 0026 7A68     		ldr	r2, [r7, #4]
 407 0028 0A43     		orrs	r2, r1
 408 002a 1A60     		str	r2, [r3]
 371:Generated_Source\PSoC4/PWM_Fail.c **** 
 372:Generated_Source\PSoC4/PWM_Fail.c ****     CyExitCriticalSection(enableInterrupts);
 409              		.loc 1 372 0
 410 002c 0F23     		movs	r3, #15
 411 002e FB18     		adds	r3, r7, r3
 412 0030 1B78     		ldrb	r3, [r3]
 413 0032 1800     		movs	r0, r3
 414 0034 FFF7FEFF 		bl	CyExitCriticalSection
 373:Generated_Source\PSoC4/PWM_Fail.c **** }
 415              		.loc 1 373 0
 416 0038 C046     		nop
 417 003a BD46     		mov	sp, r7
 418 003c 05B0     		add	sp, sp, #20
 419              		@ sp needed
 420 003e 90BD     		pop	{r4, r7, pc}
 421              	.L22:
 422              		.align	2
 423              	.L21:
 424 0040 40010540 		.word	1074069824
 425 0044 FF00FFFF 		.word	-65281
ARM GAS  C:\Users\gjl\AppData\Local\Temp\cc8yHSzD.s 			page 15


 426              		.cfi_endproc
 427              	.LFE6:
 428              		.size	PWM_Fail_SetPrescaler, .-PWM_Fail_SetPrescaler
 429              		.section	.text.PWM_Fail_SetOneShot,"ax",%progbits
 430              		.align	2
 431              		.global	PWM_Fail_SetOneShot
 432              		.code	16
 433              		.thumb_func
 434              		.type	PWM_Fail_SetOneShot, %function
 435              	PWM_Fail_SetOneShot:
 436              	.LFB7:
 374:Generated_Source\PSoC4/PWM_Fail.c **** 
 375:Generated_Source\PSoC4/PWM_Fail.c **** 
 376:Generated_Source\PSoC4/PWM_Fail.c **** /*******************************************************************************
 377:Generated_Source\PSoC4/PWM_Fail.c **** * Function Name: PWM_Fail_SetOneShot
 378:Generated_Source\PSoC4/PWM_Fail.c **** ********************************************************************************
 379:Generated_Source\PSoC4/PWM_Fail.c **** *
 380:Generated_Source\PSoC4/PWM_Fail.c **** * Summary:
 381:Generated_Source\PSoC4/PWM_Fail.c **** *  Writes the register that controls whether the PWM_Fail runs
 382:Generated_Source\PSoC4/PWM_Fail.c **** *  continuously or stops when terminal count is reached.  By default the
 383:Generated_Source\PSoC4/PWM_Fail.c **** *  PWM_Fail operates in the continuous mode.
 384:Generated_Source\PSoC4/PWM_Fail.c **** *
 385:Generated_Source\PSoC4/PWM_Fail.c **** * Parameters:
 386:Generated_Source\PSoC4/PWM_Fail.c **** *  oneShotEnable
 387:Generated_Source\PSoC4/PWM_Fail.c **** *   Values:
 388:Generated_Source\PSoC4/PWM_Fail.c **** *     - 0 - Continuous
 389:Generated_Source\PSoC4/PWM_Fail.c **** *     - 1 - Enable One Shot
 390:Generated_Source\PSoC4/PWM_Fail.c **** *
 391:Generated_Source\PSoC4/PWM_Fail.c **** * Return:
 392:Generated_Source\PSoC4/PWM_Fail.c **** *  None
 393:Generated_Source\PSoC4/PWM_Fail.c **** *
 394:Generated_Source\PSoC4/PWM_Fail.c **** *******************************************************************************/
 395:Generated_Source\PSoC4/PWM_Fail.c **** void PWM_Fail_SetOneShot(uint32 oneShotEnable)
 396:Generated_Source\PSoC4/PWM_Fail.c **** {
 437              		.loc 1 396 0
 438              		.cfi_startproc
 439              		@ args = 0, pretend = 0, frame = 16
 440              		@ frame_needed = 1, uses_anonymous_args = 0
 441 0000 90B5     		push	{r4, r7, lr}
 442              		.cfi_def_cfa_offset 12
 443              		.cfi_offset 4, -12
 444              		.cfi_offset 7, -8
 445              		.cfi_offset 14, -4
 446 0002 85B0     		sub	sp, sp, #20
 447              		.cfi_def_cfa_offset 32
 448 0004 00AF     		add	r7, sp, #0
 449              		.cfi_def_cfa_register 7
 450 0006 7860     		str	r0, [r7, #4]
 397:Generated_Source\PSoC4/PWM_Fail.c ****     uint8 enableInterrupts;
 398:Generated_Source\PSoC4/PWM_Fail.c **** 
 399:Generated_Source\PSoC4/PWM_Fail.c ****     enableInterrupts = CyEnterCriticalSection();
 451              		.loc 1 399 0
 452 0008 0F23     		movs	r3, #15
 453 000a FC18     		adds	r4, r7, r3
 454 000c FFF7FEFF 		bl	CyEnterCriticalSection
 455 0010 0300     		movs	r3, r0
 456 0012 2370     		strb	r3, [r4]
ARM GAS  C:\Users\gjl\AppData\Local\Temp\cc8yHSzD.s 			page 16


 400:Generated_Source\PSoC4/PWM_Fail.c **** 
 401:Generated_Source\PSoC4/PWM_Fail.c ****     PWM_Fail_CONTROL_REG &= (uint32)~PWM_Fail_ONESHOT_MASK;
 457              		.loc 1 401 0
 458 0014 0C4B     		ldr	r3, .L24
 459 0016 0C4A     		ldr	r2, .L24
 460 0018 1268     		ldr	r2, [r2]
 461 001a 0C49     		ldr	r1, .L24+4
 462 001c 0A40     		ands	r2, r1
 463 001e 1A60     		str	r2, [r3]
 402:Generated_Source\PSoC4/PWM_Fail.c ****     PWM_Fail_CONTROL_REG |= ((uint32)((oneShotEnable & PWM_Fail_1BIT_MASK) <<
 464              		.loc 1 402 0
 465 0020 094B     		ldr	r3, .L24
 466 0022 094A     		ldr	r2, .L24
 467 0024 1168     		ldr	r1, [r2]
 468 0026 7A68     		ldr	r2, [r7, #4]
 469 0028 9004     		lsls	r0, r2, #18
 470 002a 8022     		movs	r2, #128
 471 002c D202     		lsls	r2, r2, #11
 472 002e 0240     		ands	r2, r0
 473 0030 0A43     		orrs	r2, r1
 474 0032 1A60     		str	r2, [r3]
 403:Generated_Source\PSoC4/PWM_Fail.c ****                                                                PWM_Fail_ONESHOT_SHIFT));
 404:Generated_Source\PSoC4/PWM_Fail.c **** 
 405:Generated_Source\PSoC4/PWM_Fail.c ****     CyExitCriticalSection(enableInterrupts);
 475              		.loc 1 405 0
 476 0034 0F23     		movs	r3, #15
 477 0036 FB18     		adds	r3, r7, r3
 478 0038 1B78     		ldrb	r3, [r3]
 479 003a 1800     		movs	r0, r3
 480 003c FFF7FEFF 		bl	CyExitCriticalSection
 406:Generated_Source\PSoC4/PWM_Fail.c **** }
 481              		.loc 1 406 0
 482 0040 C046     		nop
 483 0042 BD46     		mov	sp, r7
 484 0044 05B0     		add	sp, sp, #20
 485              		@ sp needed
 486 0046 90BD     		pop	{r4, r7, pc}
 487              	.L25:
 488              		.align	2
 489              	.L24:
 490 0048 40010540 		.word	1074069824
 491 004c FFFFFBFF 		.word	-262145
 492              		.cfi_endproc
 493              	.LFE7:
 494              		.size	PWM_Fail_SetOneShot, .-PWM_Fail_SetOneShot
 495              		.section	.text.PWM_Fail_SetPWMMode,"ax",%progbits
 496              		.align	2
 497              		.global	PWM_Fail_SetPWMMode
 498              		.code	16
 499              		.thumb_func
 500              		.type	PWM_Fail_SetPWMMode, %function
 501              	PWM_Fail_SetPWMMode:
 502              	.LFB8:
 407:Generated_Source\PSoC4/PWM_Fail.c **** 
 408:Generated_Source\PSoC4/PWM_Fail.c **** 
 409:Generated_Source\PSoC4/PWM_Fail.c **** /*******************************************************************************
 410:Generated_Source\PSoC4/PWM_Fail.c **** * Function Name: PWM_Fail_SetPWMMode
ARM GAS  C:\Users\gjl\AppData\Local\Temp\cc8yHSzD.s 			page 17


 411:Generated_Source\PSoC4/PWM_Fail.c **** ********************************************************************************
 412:Generated_Source\PSoC4/PWM_Fail.c **** *
 413:Generated_Source\PSoC4/PWM_Fail.c **** * Summary:
 414:Generated_Source\PSoC4/PWM_Fail.c **** *  Writes the control register that determines what mode of operation the PWM
 415:Generated_Source\PSoC4/PWM_Fail.c **** *  output lines are driven in.  There is a setting for what to do on a
 416:Generated_Source\PSoC4/PWM_Fail.c **** *  comparison match (CC_MATCH), on an overflow (OVERFLOW) and on an underflow
 417:Generated_Source\PSoC4/PWM_Fail.c **** *  (UNDERFLOW).  The value for each of the three must be ORed together to form
 418:Generated_Source\PSoC4/PWM_Fail.c **** *  the mode.
 419:Generated_Source\PSoC4/PWM_Fail.c **** *
 420:Generated_Source\PSoC4/PWM_Fail.c **** * Parameters:
 421:Generated_Source\PSoC4/PWM_Fail.c **** *  modeMask: A combination of three mode settings.  Mask must include a value
 422:Generated_Source\PSoC4/PWM_Fail.c **** *  for each of the three or use one of the preconfigured PWM settings.
 423:Generated_Source\PSoC4/PWM_Fail.c **** *   Values:
 424:Generated_Source\PSoC4/PWM_Fail.c **** *     - CC_MATCH_SET        - Set on comparison match
 425:Generated_Source\PSoC4/PWM_Fail.c **** *     - CC_MATCH_CLEAR      - Clear on comparison match
 426:Generated_Source\PSoC4/PWM_Fail.c **** *     - CC_MATCH_INVERT     - Invert on comparison match
 427:Generated_Source\PSoC4/PWM_Fail.c **** *     - CC_MATCH_NO_CHANGE  - No change on comparison match
 428:Generated_Source\PSoC4/PWM_Fail.c **** *     - OVERLOW_SET         - Set on overflow
 429:Generated_Source\PSoC4/PWM_Fail.c **** *     - OVERLOW_CLEAR       - Clear on  overflow
 430:Generated_Source\PSoC4/PWM_Fail.c **** *     - OVERLOW_INVERT      - Invert on overflow
 431:Generated_Source\PSoC4/PWM_Fail.c **** *     - OVERLOW_NO_CHANGE   - No change on overflow
 432:Generated_Source\PSoC4/PWM_Fail.c **** *     - UNDERFLOW_SET       - Set on underflow
 433:Generated_Source\PSoC4/PWM_Fail.c **** *     - UNDERFLOW_CLEAR     - Clear on underflow
 434:Generated_Source\PSoC4/PWM_Fail.c **** *     - UNDERFLOW_INVERT    - Invert on underflow
 435:Generated_Source\PSoC4/PWM_Fail.c **** *     - UNDERFLOW_NO_CHANGE - No change on underflow
 436:Generated_Source\PSoC4/PWM_Fail.c **** *     - PWM_MODE_LEFT       - Setting for left aligned PWM.  Should be combined
 437:Generated_Source\PSoC4/PWM_Fail.c **** *                             with up counting mode
 438:Generated_Source\PSoC4/PWM_Fail.c **** *     - PWM_MODE_RIGHT      - Setting for right aligned PWM.  Should be combined
 439:Generated_Source\PSoC4/PWM_Fail.c **** *                             with down counting mode
 440:Generated_Source\PSoC4/PWM_Fail.c **** *     - PWM_MODE_CENTER     - Setting for center aligned PWM.  Should be
 441:Generated_Source\PSoC4/PWM_Fail.c **** *                             combined with up/down 0 mode
 442:Generated_Source\PSoC4/PWM_Fail.c **** *     - PWM_MODE_ASYM       - Setting for asymmetric PWM.  Should be combined
 443:Generated_Source\PSoC4/PWM_Fail.c **** *                             with up/down 1 mode
 444:Generated_Source\PSoC4/PWM_Fail.c **** *
 445:Generated_Source\PSoC4/PWM_Fail.c **** * Return:
 446:Generated_Source\PSoC4/PWM_Fail.c **** *  None
 447:Generated_Source\PSoC4/PWM_Fail.c **** *
 448:Generated_Source\PSoC4/PWM_Fail.c **** *******************************************************************************/
 449:Generated_Source\PSoC4/PWM_Fail.c **** void PWM_Fail_SetPWMMode(uint32 modeMask)
 450:Generated_Source\PSoC4/PWM_Fail.c **** {
 503              		.loc 1 450 0
 504              		.cfi_startproc
 505              		@ args = 0, pretend = 0, frame = 8
 506              		@ frame_needed = 1, uses_anonymous_args = 0
 507 0000 80B5     		push	{r7, lr}
 508              		.cfi_def_cfa_offset 8
 509              		.cfi_offset 7, -8
 510              		.cfi_offset 14, -4
 511 0002 82B0     		sub	sp, sp, #8
 512              		.cfi_def_cfa_offset 16
 513 0004 00AF     		add	r7, sp, #0
 514              		.cfi_def_cfa_register 7
 515 0006 7860     		str	r0, [r7, #4]
 451:Generated_Source\PSoC4/PWM_Fail.c ****     PWM_Fail_TRIG_CONTROL2_REG = (modeMask & PWM_Fail_6BIT_MASK);
 516              		.loc 1 451 0
 517 0008 044B     		ldr	r3, .L27
 518 000a 7A68     		ldr	r2, [r7, #4]
ARM GAS  C:\Users\gjl\AppData\Local\Temp\cc8yHSzD.s 			page 18


 519 000c 3F21     		movs	r1, #63
 520 000e 0A40     		ands	r2, r1
 521 0010 1A60     		str	r2, [r3]
 452:Generated_Source\PSoC4/PWM_Fail.c **** }
 522              		.loc 1 452 0
 523 0012 C046     		nop
 524 0014 BD46     		mov	sp, r7
 525 0016 02B0     		add	sp, sp, #8
 526              		@ sp needed
 527 0018 80BD     		pop	{r7, pc}
 528              	.L28:
 529 001a C046     		.align	2
 530              	.L27:
 531 001c 68010540 		.word	1074069864
 532              		.cfi_endproc
 533              	.LFE8:
 534              		.size	PWM_Fail_SetPWMMode, .-PWM_Fail_SetPWMMode
 535              		.section	.text.PWM_Fail_SetPWMSyncKill,"ax",%progbits
 536              		.align	2
 537              		.global	PWM_Fail_SetPWMSyncKill
 538              		.code	16
 539              		.thumb_func
 540              		.type	PWM_Fail_SetPWMSyncKill, %function
 541              	PWM_Fail_SetPWMSyncKill:
 542              	.LFB9:
 453:Generated_Source\PSoC4/PWM_Fail.c **** 
 454:Generated_Source\PSoC4/PWM_Fail.c **** 
 455:Generated_Source\PSoC4/PWM_Fail.c **** 
 456:Generated_Source\PSoC4/PWM_Fail.c **** /*******************************************************************************
 457:Generated_Source\PSoC4/PWM_Fail.c **** * Function Name: PWM_Fail_SetPWMSyncKill
 458:Generated_Source\PSoC4/PWM_Fail.c **** ********************************************************************************
 459:Generated_Source\PSoC4/PWM_Fail.c **** *
 460:Generated_Source\PSoC4/PWM_Fail.c **** * Summary:
 461:Generated_Source\PSoC4/PWM_Fail.c **** *  Writes the register that controls whether the PWM kill signal (stop input)
 462:Generated_Source\PSoC4/PWM_Fail.c **** *  causes asynchronous or synchronous kill operation.  By default the kill
 463:Generated_Source\PSoC4/PWM_Fail.c **** *  operation is asynchronous.  This functionality is only applicable to the PWM
 464:Generated_Source\PSoC4/PWM_Fail.c **** *  and PWM with dead time modes.
 465:Generated_Source\PSoC4/PWM_Fail.c **** *
 466:Generated_Source\PSoC4/PWM_Fail.c **** *  For Synchronous mode the kill signal disables both the line and line_n
 467:Generated_Source\PSoC4/PWM_Fail.c **** *  signals until the next terminal count.
 468:Generated_Source\PSoC4/PWM_Fail.c **** *
 469:Generated_Source\PSoC4/PWM_Fail.c **** *  For Asynchronous mode the kill signal disables both the line and line_n
 470:Generated_Source\PSoC4/PWM_Fail.c **** *  signals when the kill signal is present.  This mode should only be used
 471:Generated_Source\PSoC4/PWM_Fail.c **** *  when the kill signal (stop input) is configured in the pass through mode
 472:Generated_Source\PSoC4/PWM_Fail.c **** *  (Level sensitive signal).
 473:Generated_Source\PSoC4/PWM_Fail.c **** 
 474:Generated_Source\PSoC4/PWM_Fail.c **** *
 475:Generated_Source\PSoC4/PWM_Fail.c **** * Parameters:
 476:Generated_Source\PSoC4/PWM_Fail.c **** *  syncKillEnable
 477:Generated_Source\PSoC4/PWM_Fail.c **** *   Values:
 478:Generated_Source\PSoC4/PWM_Fail.c **** *     - 0 - Asynchronous
 479:Generated_Source\PSoC4/PWM_Fail.c **** *     - 1 - Synchronous
 480:Generated_Source\PSoC4/PWM_Fail.c **** *
 481:Generated_Source\PSoC4/PWM_Fail.c **** * Return:
 482:Generated_Source\PSoC4/PWM_Fail.c **** *  None
 483:Generated_Source\PSoC4/PWM_Fail.c **** *
 484:Generated_Source\PSoC4/PWM_Fail.c **** *******************************************************************************/
ARM GAS  C:\Users\gjl\AppData\Local\Temp\cc8yHSzD.s 			page 19


 485:Generated_Source\PSoC4/PWM_Fail.c **** void PWM_Fail_SetPWMSyncKill(uint32 syncKillEnable)
 486:Generated_Source\PSoC4/PWM_Fail.c **** {
 543              		.loc 1 486 0
 544              		.cfi_startproc
 545              		@ args = 0, pretend = 0, frame = 16
 546              		@ frame_needed = 1, uses_anonymous_args = 0
 547 0000 90B5     		push	{r4, r7, lr}
 548              		.cfi_def_cfa_offset 12
 549              		.cfi_offset 4, -12
 550              		.cfi_offset 7, -8
 551              		.cfi_offset 14, -4
 552 0002 85B0     		sub	sp, sp, #20
 553              		.cfi_def_cfa_offset 32
 554 0004 00AF     		add	r7, sp, #0
 555              		.cfi_def_cfa_register 7
 556 0006 7860     		str	r0, [r7, #4]
 487:Generated_Source\PSoC4/PWM_Fail.c ****     uint8 enableInterrupts;
 488:Generated_Source\PSoC4/PWM_Fail.c **** 
 489:Generated_Source\PSoC4/PWM_Fail.c ****     enableInterrupts = CyEnterCriticalSection();
 557              		.loc 1 489 0
 558 0008 0F23     		movs	r3, #15
 559 000a FC18     		adds	r4, r7, r3
 560 000c FFF7FEFF 		bl	CyEnterCriticalSection
 561 0010 0300     		movs	r3, r0
 562 0012 2370     		strb	r3, [r4]
 490:Generated_Source\PSoC4/PWM_Fail.c **** 
 491:Generated_Source\PSoC4/PWM_Fail.c ****     PWM_Fail_CONTROL_REG &= (uint32)~PWM_Fail_PWM_SYNC_KILL_MASK;
 563              		.loc 1 491 0
 564 0014 0C4B     		ldr	r3, .L30
 565 0016 0C4A     		ldr	r2, .L30
 566 0018 1268     		ldr	r2, [r2]
 567 001a 0421     		movs	r1, #4
 568 001c 8A43     		bics	r2, r1
 569 001e 1A60     		str	r2, [r3]
 492:Generated_Source\PSoC4/PWM_Fail.c ****     PWM_Fail_CONTROL_REG |= ((uint32)((syncKillEnable & PWM_Fail_1BIT_MASK)  <<
 570              		.loc 1 492 0
 571 0020 094B     		ldr	r3, .L30
 572 0022 094A     		ldr	r2, .L30
 573 0024 1168     		ldr	r1, [r2]
 574 0026 7A68     		ldr	r2, [r7, #4]
 575 0028 9200     		lsls	r2, r2, #2
 576 002a 0420     		movs	r0, #4
 577 002c 0240     		ands	r2, r0
 578 002e 0A43     		orrs	r2, r1
 579 0030 1A60     		str	r2, [r3]
 493:Generated_Source\PSoC4/PWM_Fail.c ****                                                PWM_Fail_PWM_SYNC_KILL_SHIFT));
 494:Generated_Source\PSoC4/PWM_Fail.c **** 
 495:Generated_Source\PSoC4/PWM_Fail.c ****     CyExitCriticalSection(enableInterrupts);
 580              		.loc 1 495 0
 581 0032 0F23     		movs	r3, #15
 582 0034 FB18     		adds	r3, r7, r3
 583 0036 1B78     		ldrb	r3, [r3]
 584 0038 1800     		movs	r0, r3
 585 003a FFF7FEFF 		bl	CyExitCriticalSection
 496:Generated_Source\PSoC4/PWM_Fail.c **** }
 586              		.loc 1 496 0
 587 003e C046     		nop
ARM GAS  C:\Users\gjl\AppData\Local\Temp\cc8yHSzD.s 			page 20


 588 0040 BD46     		mov	sp, r7
 589 0042 05B0     		add	sp, sp, #20
 590              		@ sp needed
 591 0044 90BD     		pop	{r4, r7, pc}
 592              	.L31:
 593 0046 C046     		.align	2
 594              	.L30:
 595 0048 40010540 		.word	1074069824
 596              		.cfi_endproc
 597              	.LFE9:
 598              		.size	PWM_Fail_SetPWMSyncKill, .-PWM_Fail_SetPWMSyncKill
 599              		.section	.text.PWM_Fail_SetPWMStopOnKill,"ax",%progbits
 600              		.align	2
 601              		.global	PWM_Fail_SetPWMStopOnKill
 602              		.code	16
 603              		.thumb_func
 604              		.type	PWM_Fail_SetPWMStopOnKill, %function
 605              	PWM_Fail_SetPWMStopOnKill:
 606              	.LFB10:
 497:Generated_Source\PSoC4/PWM_Fail.c **** 
 498:Generated_Source\PSoC4/PWM_Fail.c **** 
 499:Generated_Source\PSoC4/PWM_Fail.c **** /*******************************************************************************
 500:Generated_Source\PSoC4/PWM_Fail.c **** * Function Name: PWM_Fail_SetPWMStopOnKill
 501:Generated_Source\PSoC4/PWM_Fail.c **** ********************************************************************************
 502:Generated_Source\PSoC4/PWM_Fail.c **** *
 503:Generated_Source\PSoC4/PWM_Fail.c **** * Summary:
 504:Generated_Source\PSoC4/PWM_Fail.c **** *  Writes the register that controls whether the PWM kill signal (stop input)
 505:Generated_Source\PSoC4/PWM_Fail.c **** *  causes the PWM counter to stop.  By default the kill operation does not stop
 506:Generated_Source\PSoC4/PWM_Fail.c **** *  the counter.  This functionality is only applicable to the three PWM modes.
 507:Generated_Source\PSoC4/PWM_Fail.c **** *
 508:Generated_Source\PSoC4/PWM_Fail.c **** *
 509:Generated_Source\PSoC4/PWM_Fail.c **** * Parameters:
 510:Generated_Source\PSoC4/PWM_Fail.c **** *  stopOnKillEnable
 511:Generated_Source\PSoC4/PWM_Fail.c **** *   Values:
 512:Generated_Source\PSoC4/PWM_Fail.c **** *     - 0 - Don't stop
 513:Generated_Source\PSoC4/PWM_Fail.c **** *     - 1 - Stop
 514:Generated_Source\PSoC4/PWM_Fail.c **** *
 515:Generated_Source\PSoC4/PWM_Fail.c **** * Return:
 516:Generated_Source\PSoC4/PWM_Fail.c **** *  None
 517:Generated_Source\PSoC4/PWM_Fail.c **** *
 518:Generated_Source\PSoC4/PWM_Fail.c **** *******************************************************************************/
 519:Generated_Source\PSoC4/PWM_Fail.c **** void PWM_Fail_SetPWMStopOnKill(uint32 stopOnKillEnable)
 520:Generated_Source\PSoC4/PWM_Fail.c **** {
 607              		.loc 1 520 0
 608              		.cfi_startproc
 609              		@ args = 0, pretend = 0, frame = 16
 610              		@ frame_needed = 1, uses_anonymous_args = 0
 611 0000 90B5     		push	{r4, r7, lr}
 612              		.cfi_def_cfa_offset 12
 613              		.cfi_offset 4, -12
 614              		.cfi_offset 7, -8
 615              		.cfi_offset 14, -4
 616 0002 85B0     		sub	sp, sp, #20
 617              		.cfi_def_cfa_offset 32
 618 0004 00AF     		add	r7, sp, #0
 619              		.cfi_def_cfa_register 7
 620 0006 7860     		str	r0, [r7, #4]
ARM GAS  C:\Users\gjl\AppData\Local\Temp\cc8yHSzD.s 			page 21


 521:Generated_Source\PSoC4/PWM_Fail.c ****     uint8 enableInterrupts;
 522:Generated_Source\PSoC4/PWM_Fail.c **** 
 523:Generated_Source\PSoC4/PWM_Fail.c ****     enableInterrupts = CyEnterCriticalSection();
 621              		.loc 1 523 0
 622 0008 0F23     		movs	r3, #15
 623 000a FC18     		adds	r4, r7, r3
 624 000c FFF7FEFF 		bl	CyEnterCriticalSection
 625 0010 0300     		movs	r3, r0
 626 0012 2370     		strb	r3, [r4]
 524:Generated_Source\PSoC4/PWM_Fail.c **** 
 525:Generated_Source\PSoC4/PWM_Fail.c ****     PWM_Fail_CONTROL_REG &= (uint32)~PWM_Fail_PWM_STOP_KILL_MASK;
 627              		.loc 1 525 0
 628 0014 0C4B     		ldr	r3, .L33
 629 0016 0C4A     		ldr	r2, .L33
 630 0018 1268     		ldr	r2, [r2]
 631 001a 0821     		movs	r1, #8
 632 001c 8A43     		bics	r2, r1
 633 001e 1A60     		str	r2, [r3]
 526:Generated_Source\PSoC4/PWM_Fail.c ****     PWM_Fail_CONTROL_REG |= ((uint32)((stopOnKillEnable & PWM_Fail_1BIT_MASK)  <<
 634              		.loc 1 526 0
 635 0020 094B     		ldr	r3, .L33
 636 0022 094A     		ldr	r2, .L33
 637 0024 1168     		ldr	r1, [r2]
 638 0026 7A68     		ldr	r2, [r7, #4]
 639 0028 D200     		lsls	r2, r2, #3
 640 002a 0820     		movs	r0, #8
 641 002c 0240     		ands	r2, r0
 642 002e 0A43     		orrs	r2, r1
 643 0030 1A60     		str	r2, [r3]
 527:Generated_Source\PSoC4/PWM_Fail.c ****                                                          PWM_Fail_PWM_STOP_KILL_SHIFT));
 528:Generated_Source\PSoC4/PWM_Fail.c **** 
 529:Generated_Source\PSoC4/PWM_Fail.c ****     CyExitCriticalSection(enableInterrupts);
 644              		.loc 1 529 0
 645 0032 0F23     		movs	r3, #15
 646 0034 FB18     		adds	r3, r7, r3
 647 0036 1B78     		ldrb	r3, [r3]
 648 0038 1800     		movs	r0, r3
 649 003a FFF7FEFF 		bl	CyExitCriticalSection
 530:Generated_Source\PSoC4/PWM_Fail.c **** }
 650              		.loc 1 530 0
 651 003e C046     		nop
 652 0040 BD46     		mov	sp, r7
 653 0042 05B0     		add	sp, sp, #20
 654              		@ sp needed
 655 0044 90BD     		pop	{r4, r7, pc}
 656              	.L34:
 657 0046 C046     		.align	2
 658              	.L33:
 659 0048 40010540 		.word	1074069824
 660              		.cfi_endproc
 661              	.LFE10:
 662              		.size	PWM_Fail_SetPWMStopOnKill, .-PWM_Fail_SetPWMStopOnKill
 663              		.section	.text.PWM_Fail_SetPWMDeadTime,"ax",%progbits
 664              		.align	2
 665              		.global	PWM_Fail_SetPWMDeadTime
 666              		.code	16
 667              		.thumb_func
ARM GAS  C:\Users\gjl\AppData\Local\Temp\cc8yHSzD.s 			page 22


 668              		.type	PWM_Fail_SetPWMDeadTime, %function
 669              	PWM_Fail_SetPWMDeadTime:
 670              	.LFB11:
 531:Generated_Source\PSoC4/PWM_Fail.c **** 
 532:Generated_Source\PSoC4/PWM_Fail.c **** 
 533:Generated_Source\PSoC4/PWM_Fail.c **** /*******************************************************************************
 534:Generated_Source\PSoC4/PWM_Fail.c **** * Function Name: PWM_Fail_SetPWMDeadTime
 535:Generated_Source\PSoC4/PWM_Fail.c **** ********************************************************************************
 536:Generated_Source\PSoC4/PWM_Fail.c **** *
 537:Generated_Source\PSoC4/PWM_Fail.c **** * Summary:
 538:Generated_Source\PSoC4/PWM_Fail.c **** *  Writes the dead time control value.  This value delays the rising edge of
 539:Generated_Source\PSoC4/PWM_Fail.c **** *  both the line and line_n signals the designated number of cycles resulting
 540:Generated_Source\PSoC4/PWM_Fail.c **** *  in both signals being inactive for that many cycles.  This functionality is
 541:Generated_Source\PSoC4/PWM_Fail.c **** *  only applicable to the PWM in the dead time mode.
 542:Generated_Source\PSoC4/PWM_Fail.c **** 
 543:Generated_Source\PSoC4/PWM_Fail.c **** *
 544:Generated_Source\PSoC4/PWM_Fail.c **** * Parameters:
 545:Generated_Source\PSoC4/PWM_Fail.c **** *  Dead time to insert
 546:Generated_Source\PSoC4/PWM_Fail.c **** *   Values: 0 to 255
 547:Generated_Source\PSoC4/PWM_Fail.c **** *
 548:Generated_Source\PSoC4/PWM_Fail.c **** * Return:
 549:Generated_Source\PSoC4/PWM_Fail.c **** *  None
 550:Generated_Source\PSoC4/PWM_Fail.c **** *
 551:Generated_Source\PSoC4/PWM_Fail.c **** *******************************************************************************/
 552:Generated_Source\PSoC4/PWM_Fail.c **** void PWM_Fail_SetPWMDeadTime(uint32 deadTime)
 553:Generated_Source\PSoC4/PWM_Fail.c **** {
 671              		.loc 1 553 0
 672              		.cfi_startproc
 673              		@ args = 0, pretend = 0, frame = 16
 674              		@ frame_needed = 1, uses_anonymous_args = 0
 675 0000 90B5     		push	{r4, r7, lr}
 676              		.cfi_def_cfa_offset 12
 677              		.cfi_offset 4, -12
 678              		.cfi_offset 7, -8
 679              		.cfi_offset 14, -4
 680 0002 85B0     		sub	sp, sp, #20
 681              		.cfi_def_cfa_offset 32
 682 0004 00AF     		add	r7, sp, #0
 683              		.cfi_def_cfa_register 7
 684 0006 7860     		str	r0, [r7, #4]
 554:Generated_Source\PSoC4/PWM_Fail.c ****     uint8 enableInterrupts;
 555:Generated_Source\PSoC4/PWM_Fail.c **** 
 556:Generated_Source\PSoC4/PWM_Fail.c ****     enableInterrupts = CyEnterCriticalSection();
 685              		.loc 1 556 0
 686 0008 0F23     		movs	r3, #15
 687 000a FC18     		adds	r4, r7, r3
 688 000c FFF7FEFF 		bl	CyEnterCriticalSection
 689 0010 0300     		movs	r3, r0
 690 0012 2370     		strb	r3, [r4]
 557:Generated_Source\PSoC4/PWM_Fail.c **** 
 558:Generated_Source\PSoC4/PWM_Fail.c ****     PWM_Fail_CONTROL_REG &= (uint32)~PWM_Fail_PRESCALER_MASK;
 691              		.loc 1 558 0
 692 0014 0C4B     		ldr	r3, .L36
 693 0016 0C4A     		ldr	r2, .L36
 694 0018 1268     		ldr	r2, [r2]
 695 001a 0C49     		ldr	r1, .L36+4
 696 001c 0A40     		ands	r2, r1
ARM GAS  C:\Users\gjl\AppData\Local\Temp\cc8yHSzD.s 			page 23


 697 001e 1A60     		str	r2, [r3]
 559:Generated_Source\PSoC4/PWM_Fail.c ****     PWM_Fail_CONTROL_REG |= ((uint32)((deadTime & PWM_Fail_8BIT_MASK) <<
 698              		.loc 1 559 0
 699 0020 094B     		ldr	r3, .L36
 700 0022 094A     		ldr	r2, .L36
 701 0024 1168     		ldr	r1, [r2]
 702 0026 7A68     		ldr	r2, [r7, #4]
 703 0028 1202     		lsls	r2, r2, #8
 704 002a 1204     		lsls	r2, r2, #16
 705 002c 120C     		lsrs	r2, r2, #16
 706 002e 0A43     		orrs	r2, r1
 707 0030 1A60     		str	r2, [r3]
 560:Generated_Source\PSoC4/PWM_Fail.c ****                                                           PWM_Fail_PRESCALER_SHIFT));
 561:Generated_Source\PSoC4/PWM_Fail.c **** 
 562:Generated_Source\PSoC4/PWM_Fail.c ****     CyExitCriticalSection(enableInterrupts);
 708              		.loc 1 562 0
 709 0032 0F23     		movs	r3, #15
 710 0034 FB18     		adds	r3, r7, r3
 711 0036 1B78     		ldrb	r3, [r3]
 712 0038 1800     		movs	r0, r3
 713 003a FFF7FEFF 		bl	CyExitCriticalSection
 563:Generated_Source\PSoC4/PWM_Fail.c **** }
 714              		.loc 1 563 0
 715 003e C046     		nop
 716 0040 BD46     		mov	sp, r7
 717 0042 05B0     		add	sp, sp, #20
 718              		@ sp needed
 719 0044 90BD     		pop	{r4, r7, pc}
 720              	.L37:
 721 0046 C046     		.align	2
 722              	.L36:
 723 0048 40010540 		.word	1074069824
 724 004c FF00FFFF 		.word	-65281
 725              		.cfi_endproc
 726              	.LFE11:
 727              		.size	PWM_Fail_SetPWMDeadTime, .-PWM_Fail_SetPWMDeadTime
 728              		.section	.text.PWM_Fail_SetPWMInvert,"ax",%progbits
 729              		.align	2
 730              		.global	PWM_Fail_SetPWMInvert
 731              		.code	16
 732              		.thumb_func
 733              		.type	PWM_Fail_SetPWMInvert, %function
 734              	PWM_Fail_SetPWMInvert:
 735              	.LFB12:
 564:Generated_Source\PSoC4/PWM_Fail.c **** 
 565:Generated_Source\PSoC4/PWM_Fail.c **** 
 566:Generated_Source\PSoC4/PWM_Fail.c **** /*******************************************************************************
 567:Generated_Source\PSoC4/PWM_Fail.c **** * Function Name: PWM_Fail_SetPWMInvert
 568:Generated_Source\PSoC4/PWM_Fail.c **** ********************************************************************************
 569:Generated_Source\PSoC4/PWM_Fail.c **** *
 570:Generated_Source\PSoC4/PWM_Fail.c **** * Summary:
 571:Generated_Source\PSoC4/PWM_Fail.c **** *  Writes the bits that control whether the line and line_n outputs are
 572:Generated_Source\PSoC4/PWM_Fail.c **** *  inverted from their normal output values.  This functionality is only
 573:Generated_Source\PSoC4/PWM_Fail.c **** *  applicable to the three PWM modes.
 574:Generated_Source\PSoC4/PWM_Fail.c **** *
 575:Generated_Source\PSoC4/PWM_Fail.c **** * Parameters:
 576:Generated_Source\PSoC4/PWM_Fail.c **** *  mask: Mask of outputs to invert.
ARM GAS  C:\Users\gjl\AppData\Local\Temp\cc8yHSzD.s 			page 24


 577:Generated_Source\PSoC4/PWM_Fail.c **** *   Values:
 578:Generated_Source\PSoC4/PWM_Fail.c **** *         - PWM_Fail_INVERT_LINE   - Inverts the line output
 579:Generated_Source\PSoC4/PWM_Fail.c **** *         - PWM_Fail_INVERT_LINE_N - Inverts the line_n output
 580:Generated_Source\PSoC4/PWM_Fail.c **** *
 581:Generated_Source\PSoC4/PWM_Fail.c **** * Return:
 582:Generated_Source\PSoC4/PWM_Fail.c **** *  None
 583:Generated_Source\PSoC4/PWM_Fail.c **** *
 584:Generated_Source\PSoC4/PWM_Fail.c **** *******************************************************************************/
 585:Generated_Source\PSoC4/PWM_Fail.c **** void PWM_Fail_SetPWMInvert(uint32 mask)
 586:Generated_Source\PSoC4/PWM_Fail.c **** {
 736              		.loc 1 586 0
 737              		.cfi_startproc
 738              		@ args = 0, pretend = 0, frame = 16
 739              		@ frame_needed = 1, uses_anonymous_args = 0
 740 0000 90B5     		push	{r4, r7, lr}
 741              		.cfi_def_cfa_offset 12
 742              		.cfi_offset 4, -12
 743              		.cfi_offset 7, -8
 744              		.cfi_offset 14, -4
 745 0002 85B0     		sub	sp, sp, #20
 746              		.cfi_def_cfa_offset 32
 747 0004 00AF     		add	r7, sp, #0
 748              		.cfi_def_cfa_register 7
 749 0006 7860     		str	r0, [r7, #4]
 587:Generated_Source\PSoC4/PWM_Fail.c ****     uint8 enableInterrupts;
 588:Generated_Source\PSoC4/PWM_Fail.c **** 
 589:Generated_Source\PSoC4/PWM_Fail.c ****     enableInterrupts = CyEnterCriticalSection();
 750              		.loc 1 589 0
 751 0008 0F23     		movs	r3, #15
 752 000a FC18     		adds	r4, r7, r3
 753 000c FFF7FEFF 		bl	CyEnterCriticalSection
 754 0010 0300     		movs	r3, r0
 755 0012 2370     		strb	r3, [r4]
 590:Generated_Source\PSoC4/PWM_Fail.c **** 
 591:Generated_Source\PSoC4/PWM_Fail.c ****     PWM_Fail_CONTROL_REG &= (uint32)~PWM_Fail_INV_OUT_MASK;
 756              		.loc 1 591 0
 757 0014 0A4B     		ldr	r3, .L39
 758 0016 0A4A     		ldr	r2, .L39
 759 0018 1268     		ldr	r2, [r2]
 760 001a 0A49     		ldr	r1, .L39+4
 761 001c 0A40     		ands	r2, r1
 762 001e 1A60     		str	r2, [r3]
 592:Generated_Source\PSoC4/PWM_Fail.c ****     PWM_Fail_CONTROL_REG |= mask;
 763              		.loc 1 592 0
 764 0020 074B     		ldr	r3, .L39
 765 0022 074A     		ldr	r2, .L39
 766 0024 1168     		ldr	r1, [r2]
 767 0026 7A68     		ldr	r2, [r7, #4]
 768 0028 0A43     		orrs	r2, r1
 769 002a 1A60     		str	r2, [r3]
 593:Generated_Source\PSoC4/PWM_Fail.c **** 
 594:Generated_Source\PSoC4/PWM_Fail.c ****     CyExitCriticalSection(enableInterrupts);
 770              		.loc 1 594 0
 771 002c 0F23     		movs	r3, #15
 772 002e FB18     		adds	r3, r7, r3
 773 0030 1B78     		ldrb	r3, [r3]
 774 0032 1800     		movs	r0, r3
ARM GAS  C:\Users\gjl\AppData\Local\Temp\cc8yHSzD.s 			page 25


 775 0034 FFF7FEFF 		bl	CyExitCriticalSection
 595:Generated_Source\PSoC4/PWM_Fail.c **** }
 776              		.loc 1 595 0
 777 0038 C046     		nop
 778 003a BD46     		mov	sp, r7
 779 003c 05B0     		add	sp, sp, #20
 780              		@ sp needed
 781 003e 90BD     		pop	{r4, r7, pc}
 782              	.L40:
 783              		.align	2
 784              	.L39:
 785 0040 40010540 		.word	1074069824
 786 0044 FFFFCFFF 		.word	-3145729
 787              		.cfi_endproc
 788              	.LFE12:
 789              		.size	PWM_Fail_SetPWMInvert, .-PWM_Fail_SetPWMInvert
 790              		.section	.text.PWM_Fail_WriteCounter,"ax",%progbits
 791              		.align	2
 792              		.global	PWM_Fail_WriteCounter
 793              		.code	16
 794              		.thumb_func
 795              		.type	PWM_Fail_WriteCounter, %function
 796              	PWM_Fail_WriteCounter:
 797              	.LFB13:
 596:Generated_Source\PSoC4/PWM_Fail.c **** 
 597:Generated_Source\PSoC4/PWM_Fail.c **** 
 598:Generated_Source\PSoC4/PWM_Fail.c **** 
 599:Generated_Source\PSoC4/PWM_Fail.c **** /*******************************************************************************
 600:Generated_Source\PSoC4/PWM_Fail.c **** * Function Name: PWM_Fail_WriteCounter
 601:Generated_Source\PSoC4/PWM_Fail.c **** ********************************************************************************
 602:Generated_Source\PSoC4/PWM_Fail.c **** *
 603:Generated_Source\PSoC4/PWM_Fail.c **** * Summary:
 604:Generated_Source\PSoC4/PWM_Fail.c **** *  Writes a new 16bit counter value directly into the counter register, thus
 605:Generated_Source\PSoC4/PWM_Fail.c **** *  setting the counter (not the period) to the value written. It is not
 606:Generated_Source\PSoC4/PWM_Fail.c **** *  advised to write to this field when the counter is running.
 607:Generated_Source\PSoC4/PWM_Fail.c **** *
 608:Generated_Source\PSoC4/PWM_Fail.c **** * Parameters:
 609:Generated_Source\PSoC4/PWM_Fail.c **** *  count: value to write
 610:Generated_Source\PSoC4/PWM_Fail.c **** *
 611:Generated_Source\PSoC4/PWM_Fail.c **** * Return:
 612:Generated_Source\PSoC4/PWM_Fail.c **** *  None
 613:Generated_Source\PSoC4/PWM_Fail.c **** *
 614:Generated_Source\PSoC4/PWM_Fail.c **** *******************************************************************************/
 615:Generated_Source\PSoC4/PWM_Fail.c **** void PWM_Fail_WriteCounter(uint32 count)
 616:Generated_Source\PSoC4/PWM_Fail.c **** {
 798              		.loc 1 616 0
 799              		.cfi_startproc
 800              		@ args = 0, pretend = 0, frame = 8
 801              		@ frame_needed = 1, uses_anonymous_args = 0
 802 0000 80B5     		push	{r7, lr}
 803              		.cfi_def_cfa_offset 8
 804              		.cfi_offset 7, -8
 805              		.cfi_offset 14, -4
 806 0002 82B0     		sub	sp, sp, #8
 807              		.cfi_def_cfa_offset 16
 808 0004 00AF     		add	r7, sp, #0
 809              		.cfi_def_cfa_register 7
ARM GAS  C:\Users\gjl\AppData\Local\Temp\cc8yHSzD.s 			page 26


 810 0006 7860     		str	r0, [r7, #4]
 617:Generated_Source\PSoC4/PWM_Fail.c ****     PWM_Fail_COUNTER_REG = (count & PWM_Fail_16BIT_MASK);
 811              		.loc 1 617 0
 812 0008 044B     		ldr	r3, .L42
 813 000a 7A68     		ldr	r2, [r7, #4]
 814 000c 1204     		lsls	r2, r2, #16
 815 000e 120C     		lsrs	r2, r2, #16
 816 0010 1A60     		str	r2, [r3]
 618:Generated_Source\PSoC4/PWM_Fail.c **** }
 817              		.loc 1 618 0
 818 0012 C046     		nop
 819 0014 BD46     		mov	sp, r7
 820 0016 02B0     		add	sp, sp, #8
 821              		@ sp needed
 822 0018 80BD     		pop	{r7, pc}
 823              	.L43:
 824 001a C046     		.align	2
 825              	.L42:
 826 001c 48010540 		.word	1074069832
 827              		.cfi_endproc
 828              	.LFE13:
 829              		.size	PWM_Fail_WriteCounter, .-PWM_Fail_WriteCounter
 830              		.section	.text.PWM_Fail_ReadCounter,"ax",%progbits
 831              		.align	2
 832              		.global	PWM_Fail_ReadCounter
 833              		.code	16
 834              		.thumb_func
 835              		.type	PWM_Fail_ReadCounter, %function
 836              	PWM_Fail_ReadCounter:
 837              	.LFB14:
 619:Generated_Source\PSoC4/PWM_Fail.c **** 
 620:Generated_Source\PSoC4/PWM_Fail.c **** 
 621:Generated_Source\PSoC4/PWM_Fail.c **** /*******************************************************************************
 622:Generated_Source\PSoC4/PWM_Fail.c **** * Function Name: PWM_Fail_ReadCounter
 623:Generated_Source\PSoC4/PWM_Fail.c **** ********************************************************************************
 624:Generated_Source\PSoC4/PWM_Fail.c **** *
 625:Generated_Source\PSoC4/PWM_Fail.c **** * Summary:
 626:Generated_Source\PSoC4/PWM_Fail.c **** *  Reads the current counter value.
 627:Generated_Source\PSoC4/PWM_Fail.c **** *
 628:Generated_Source\PSoC4/PWM_Fail.c **** * Parameters:
 629:Generated_Source\PSoC4/PWM_Fail.c **** *  None
 630:Generated_Source\PSoC4/PWM_Fail.c **** *
 631:Generated_Source\PSoC4/PWM_Fail.c **** * Return:
 632:Generated_Source\PSoC4/PWM_Fail.c **** *  Current counter value
 633:Generated_Source\PSoC4/PWM_Fail.c **** *
 634:Generated_Source\PSoC4/PWM_Fail.c **** *******************************************************************************/
 635:Generated_Source\PSoC4/PWM_Fail.c **** uint32 PWM_Fail_ReadCounter(void)
 636:Generated_Source\PSoC4/PWM_Fail.c **** {
 838              		.loc 1 636 0
 839              		.cfi_startproc
 840              		@ args = 0, pretend = 0, frame = 0
 841              		@ frame_needed = 1, uses_anonymous_args = 0
 842 0000 80B5     		push	{r7, lr}
 843              		.cfi_def_cfa_offset 8
 844              		.cfi_offset 7, -8
 845              		.cfi_offset 14, -4
 846 0002 00AF     		add	r7, sp, #0
ARM GAS  C:\Users\gjl\AppData\Local\Temp\cc8yHSzD.s 			page 27


 847              		.cfi_def_cfa_register 7
 637:Generated_Source\PSoC4/PWM_Fail.c ****     return (PWM_Fail_COUNTER_REG & PWM_Fail_16BIT_MASK);
 848              		.loc 1 637 0
 849 0004 034B     		ldr	r3, .L46
 850 0006 1B68     		ldr	r3, [r3]
 851 0008 1B04     		lsls	r3, r3, #16
 852 000a 1B0C     		lsrs	r3, r3, #16
 638:Generated_Source\PSoC4/PWM_Fail.c **** }
 853              		.loc 1 638 0
 854 000c 1800     		movs	r0, r3
 855 000e BD46     		mov	sp, r7
 856              		@ sp needed
 857 0010 80BD     		pop	{r7, pc}
 858              	.L47:
 859 0012 C046     		.align	2
 860              	.L46:
 861 0014 48010540 		.word	1074069832
 862              		.cfi_endproc
 863              	.LFE14:
 864              		.size	PWM_Fail_ReadCounter, .-PWM_Fail_ReadCounter
 865              		.section	.text.PWM_Fail_SetCounterMode,"ax",%progbits
 866              		.align	2
 867              		.global	PWM_Fail_SetCounterMode
 868              		.code	16
 869              		.thumb_func
 870              		.type	PWM_Fail_SetCounterMode, %function
 871              	PWM_Fail_SetCounterMode:
 872              	.LFB15:
 639:Generated_Source\PSoC4/PWM_Fail.c **** 
 640:Generated_Source\PSoC4/PWM_Fail.c **** 
 641:Generated_Source\PSoC4/PWM_Fail.c **** /*******************************************************************************
 642:Generated_Source\PSoC4/PWM_Fail.c **** * Function Name: PWM_Fail_SetCounterMode
 643:Generated_Source\PSoC4/PWM_Fail.c **** ********************************************************************************
 644:Generated_Source\PSoC4/PWM_Fail.c **** *
 645:Generated_Source\PSoC4/PWM_Fail.c **** * Summary:
 646:Generated_Source\PSoC4/PWM_Fail.c **** *  Sets the counter mode.  Applicable to all modes except Quadrature Decoder
 647:Generated_Source\PSoC4/PWM_Fail.c **** *  and the PWM with a pseudo random output.
 648:Generated_Source\PSoC4/PWM_Fail.c **** *
 649:Generated_Source\PSoC4/PWM_Fail.c **** * Parameters:
 650:Generated_Source\PSoC4/PWM_Fail.c **** *  counterMode: Enumerated counter type values
 651:Generated_Source\PSoC4/PWM_Fail.c **** *   Values:
 652:Generated_Source\PSoC4/PWM_Fail.c **** *     - PWM_Fail_COUNT_UP       - Counts up
 653:Generated_Source\PSoC4/PWM_Fail.c **** *     - PWM_Fail_COUNT_DOWN     - Counts down
 654:Generated_Source\PSoC4/PWM_Fail.c **** *     - PWM_Fail_COUNT_UPDOWN0  - Counts up and down. Terminal count
 655:Generated_Source\PSoC4/PWM_Fail.c **** *                                         generated when counter reaches 0
 656:Generated_Source\PSoC4/PWM_Fail.c **** *     - PWM_Fail_COUNT_UPDOWN1  - Counts up and down. Terminal count
 657:Generated_Source\PSoC4/PWM_Fail.c **** *                                         generated both when counter reaches 0
 658:Generated_Source\PSoC4/PWM_Fail.c **** *                                         and period
 659:Generated_Source\PSoC4/PWM_Fail.c **** *
 660:Generated_Source\PSoC4/PWM_Fail.c **** * Return:
 661:Generated_Source\PSoC4/PWM_Fail.c **** *  None
 662:Generated_Source\PSoC4/PWM_Fail.c **** *
 663:Generated_Source\PSoC4/PWM_Fail.c **** *******************************************************************************/
 664:Generated_Source\PSoC4/PWM_Fail.c **** void PWM_Fail_SetCounterMode(uint32 counterMode)
 665:Generated_Source\PSoC4/PWM_Fail.c **** {
 873              		.loc 1 665 0
 874              		.cfi_startproc
ARM GAS  C:\Users\gjl\AppData\Local\Temp\cc8yHSzD.s 			page 28


 875              		@ args = 0, pretend = 0, frame = 16
 876              		@ frame_needed = 1, uses_anonymous_args = 0
 877 0000 90B5     		push	{r4, r7, lr}
 878              		.cfi_def_cfa_offset 12
 879              		.cfi_offset 4, -12
 880              		.cfi_offset 7, -8
 881              		.cfi_offset 14, -4
 882 0002 85B0     		sub	sp, sp, #20
 883              		.cfi_def_cfa_offset 32
 884 0004 00AF     		add	r7, sp, #0
 885              		.cfi_def_cfa_register 7
 886 0006 7860     		str	r0, [r7, #4]
 666:Generated_Source\PSoC4/PWM_Fail.c ****     uint8 enableInterrupts;
 667:Generated_Source\PSoC4/PWM_Fail.c **** 
 668:Generated_Source\PSoC4/PWM_Fail.c ****     enableInterrupts = CyEnterCriticalSection();
 887              		.loc 1 668 0
 888 0008 0F23     		movs	r3, #15
 889 000a FC18     		adds	r4, r7, r3
 890 000c FFF7FEFF 		bl	CyEnterCriticalSection
 891 0010 0300     		movs	r3, r0
 892 0012 2370     		strb	r3, [r4]
 669:Generated_Source\PSoC4/PWM_Fail.c **** 
 670:Generated_Source\PSoC4/PWM_Fail.c ****     PWM_Fail_CONTROL_REG &= (uint32)~PWM_Fail_UPDOWN_MASK;
 893              		.loc 1 670 0
 894 0014 0A4B     		ldr	r3, .L49
 895 0016 0A4A     		ldr	r2, .L49
 896 0018 1268     		ldr	r2, [r2]
 897 001a 0A49     		ldr	r1, .L49+4
 898 001c 0A40     		ands	r2, r1
 899 001e 1A60     		str	r2, [r3]
 671:Generated_Source\PSoC4/PWM_Fail.c ****     PWM_Fail_CONTROL_REG |= counterMode;
 900              		.loc 1 671 0
 901 0020 074B     		ldr	r3, .L49
 902 0022 074A     		ldr	r2, .L49
 903 0024 1168     		ldr	r1, [r2]
 904 0026 7A68     		ldr	r2, [r7, #4]
 905 0028 0A43     		orrs	r2, r1
 906 002a 1A60     		str	r2, [r3]
 672:Generated_Source\PSoC4/PWM_Fail.c **** 
 673:Generated_Source\PSoC4/PWM_Fail.c ****     CyExitCriticalSection(enableInterrupts);
 907              		.loc 1 673 0
 908 002c 0F23     		movs	r3, #15
 909 002e FB18     		adds	r3, r7, r3
 910 0030 1B78     		ldrb	r3, [r3]
 911 0032 1800     		movs	r0, r3
 912 0034 FFF7FEFF 		bl	CyExitCriticalSection
 674:Generated_Source\PSoC4/PWM_Fail.c **** }
 913              		.loc 1 674 0
 914 0038 C046     		nop
 915 003a BD46     		mov	sp, r7
 916 003c 05B0     		add	sp, sp, #20
 917              		@ sp needed
 918 003e 90BD     		pop	{r4, r7, pc}
 919              	.L50:
 920              		.align	2
 921              	.L49:
 922 0040 40010540 		.word	1074069824
ARM GAS  C:\Users\gjl\AppData\Local\Temp\cc8yHSzD.s 			page 29


 923 0044 FFFFFCFF 		.word	-196609
 924              		.cfi_endproc
 925              	.LFE15:
 926              		.size	PWM_Fail_SetCounterMode, .-PWM_Fail_SetCounterMode
 927              		.section	.text.PWM_Fail_WritePeriod,"ax",%progbits
 928              		.align	2
 929              		.global	PWM_Fail_WritePeriod
 930              		.code	16
 931              		.thumb_func
 932              		.type	PWM_Fail_WritePeriod, %function
 933              	PWM_Fail_WritePeriod:
 934              	.LFB16:
 675:Generated_Source\PSoC4/PWM_Fail.c **** 
 676:Generated_Source\PSoC4/PWM_Fail.c **** 
 677:Generated_Source\PSoC4/PWM_Fail.c **** /*******************************************************************************
 678:Generated_Source\PSoC4/PWM_Fail.c **** * Function Name: PWM_Fail_WritePeriod
 679:Generated_Source\PSoC4/PWM_Fail.c **** ********************************************************************************
 680:Generated_Source\PSoC4/PWM_Fail.c **** *
 681:Generated_Source\PSoC4/PWM_Fail.c **** * Summary:
 682:Generated_Source\PSoC4/PWM_Fail.c **** *  Writes the 16 bit period register with the new period value.
 683:Generated_Source\PSoC4/PWM_Fail.c **** *  To cause the counter to count for N cycles this register should be written
 684:Generated_Source\PSoC4/PWM_Fail.c **** *  with N-1 (counts from 0 to period inclusive).
 685:Generated_Source\PSoC4/PWM_Fail.c **** *
 686:Generated_Source\PSoC4/PWM_Fail.c **** * Parameters:
 687:Generated_Source\PSoC4/PWM_Fail.c **** *  period: Period value
 688:Generated_Source\PSoC4/PWM_Fail.c **** *
 689:Generated_Source\PSoC4/PWM_Fail.c **** * Return:
 690:Generated_Source\PSoC4/PWM_Fail.c **** *  None
 691:Generated_Source\PSoC4/PWM_Fail.c **** *
 692:Generated_Source\PSoC4/PWM_Fail.c **** *******************************************************************************/
 693:Generated_Source\PSoC4/PWM_Fail.c **** void PWM_Fail_WritePeriod(uint32 period)
 694:Generated_Source\PSoC4/PWM_Fail.c **** {
 935              		.loc 1 694 0
 936              		.cfi_startproc
 937              		@ args = 0, pretend = 0, frame = 8
 938              		@ frame_needed = 1, uses_anonymous_args = 0
 939 0000 80B5     		push	{r7, lr}
 940              		.cfi_def_cfa_offset 8
 941              		.cfi_offset 7, -8
 942              		.cfi_offset 14, -4
 943 0002 82B0     		sub	sp, sp, #8
 944              		.cfi_def_cfa_offset 16
 945 0004 00AF     		add	r7, sp, #0
 946              		.cfi_def_cfa_register 7
 947 0006 7860     		str	r0, [r7, #4]
 695:Generated_Source\PSoC4/PWM_Fail.c ****     PWM_Fail_PERIOD_REG = (period & PWM_Fail_16BIT_MASK);
 948              		.loc 1 695 0
 949 0008 044B     		ldr	r3, .L52
 950 000a 7A68     		ldr	r2, [r7, #4]
 951 000c 1204     		lsls	r2, r2, #16
 952 000e 120C     		lsrs	r2, r2, #16
 953 0010 1A60     		str	r2, [r3]
 696:Generated_Source\PSoC4/PWM_Fail.c **** }
 954              		.loc 1 696 0
 955 0012 C046     		nop
 956 0014 BD46     		mov	sp, r7
 957 0016 02B0     		add	sp, sp, #8
ARM GAS  C:\Users\gjl\AppData\Local\Temp\cc8yHSzD.s 			page 30


 958              		@ sp needed
 959 0018 80BD     		pop	{r7, pc}
 960              	.L53:
 961 001a C046     		.align	2
 962              	.L52:
 963 001c 54010540 		.word	1074069844
 964              		.cfi_endproc
 965              	.LFE16:
 966              		.size	PWM_Fail_WritePeriod, .-PWM_Fail_WritePeriod
 967              		.section	.text.PWM_Fail_ReadPeriod,"ax",%progbits
 968              		.align	2
 969              		.global	PWM_Fail_ReadPeriod
 970              		.code	16
 971              		.thumb_func
 972              		.type	PWM_Fail_ReadPeriod, %function
 973              	PWM_Fail_ReadPeriod:
 974              	.LFB17:
 697:Generated_Source\PSoC4/PWM_Fail.c **** 
 698:Generated_Source\PSoC4/PWM_Fail.c **** 
 699:Generated_Source\PSoC4/PWM_Fail.c **** /*******************************************************************************
 700:Generated_Source\PSoC4/PWM_Fail.c **** * Function Name: PWM_Fail_ReadPeriod
 701:Generated_Source\PSoC4/PWM_Fail.c **** ********************************************************************************
 702:Generated_Source\PSoC4/PWM_Fail.c **** *
 703:Generated_Source\PSoC4/PWM_Fail.c **** * Summary:
 704:Generated_Source\PSoC4/PWM_Fail.c **** *  Reads the 16 bit period register.
 705:Generated_Source\PSoC4/PWM_Fail.c **** *
 706:Generated_Source\PSoC4/PWM_Fail.c **** * Parameters:
 707:Generated_Source\PSoC4/PWM_Fail.c **** *  None
 708:Generated_Source\PSoC4/PWM_Fail.c **** *
 709:Generated_Source\PSoC4/PWM_Fail.c **** * Return:
 710:Generated_Source\PSoC4/PWM_Fail.c **** *  Period value
 711:Generated_Source\PSoC4/PWM_Fail.c **** *
 712:Generated_Source\PSoC4/PWM_Fail.c **** *******************************************************************************/
 713:Generated_Source\PSoC4/PWM_Fail.c **** uint32 PWM_Fail_ReadPeriod(void)
 714:Generated_Source\PSoC4/PWM_Fail.c **** {
 975              		.loc 1 714 0
 976              		.cfi_startproc
 977              		@ args = 0, pretend = 0, frame = 0
 978              		@ frame_needed = 1, uses_anonymous_args = 0
 979 0000 80B5     		push	{r7, lr}
 980              		.cfi_def_cfa_offset 8
 981              		.cfi_offset 7, -8
 982              		.cfi_offset 14, -4
 983 0002 00AF     		add	r7, sp, #0
 984              		.cfi_def_cfa_register 7
 715:Generated_Source\PSoC4/PWM_Fail.c ****     return (PWM_Fail_PERIOD_REG & PWM_Fail_16BIT_MASK);
 985              		.loc 1 715 0
 986 0004 034B     		ldr	r3, .L56
 987 0006 1B68     		ldr	r3, [r3]
 988 0008 1B04     		lsls	r3, r3, #16
 989 000a 1B0C     		lsrs	r3, r3, #16
 716:Generated_Source\PSoC4/PWM_Fail.c **** }
 990              		.loc 1 716 0
 991 000c 1800     		movs	r0, r3
 992 000e BD46     		mov	sp, r7
 993              		@ sp needed
 994 0010 80BD     		pop	{r7, pc}
ARM GAS  C:\Users\gjl\AppData\Local\Temp\cc8yHSzD.s 			page 31


 995              	.L57:
 996 0012 C046     		.align	2
 997              	.L56:
 998 0014 54010540 		.word	1074069844
 999              		.cfi_endproc
 1000              	.LFE17:
 1001              		.size	PWM_Fail_ReadPeriod, .-PWM_Fail_ReadPeriod
 1002              		.section	.text.PWM_Fail_SetCompareSwap,"ax",%progbits
 1003              		.align	2
 1004              		.global	PWM_Fail_SetCompareSwap
 1005              		.code	16
 1006              		.thumb_func
 1007              		.type	PWM_Fail_SetCompareSwap, %function
 1008              	PWM_Fail_SetCompareSwap:
 1009              	.LFB18:
 717:Generated_Source\PSoC4/PWM_Fail.c **** 
 718:Generated_Source\PSoC4/PWM_Fail.c **** 
 719:Generated_Source\PSoC4/PWM_Fail.c **** /*******************************************************************************
 720:Generated_Source\PSoC4/PWM_Fail.c **** * Function Name: PWM_Fail_SetCompareSwap
 721:Generated_Source\PSoC4/PWM_Fail.c **** ********************************************************************************
 722:Generated_Source\PSoC4/PWM_Fail.c **** *
 723:Generated_Source\PSoC4/PWM_Fail.c **** * Summary:
 724:Generated_Source\PSoC4/PWM_Fail.c **** *  Writes the register that controls whether the compare registers are
 725:Generated_Source\PSoC4/PWM_Fail.c **** *  swapped. When enabled in the Timer/Counter mode(without capture) the swap
 726:Generated_Source\PSoC4/PWM_Fail.c **** *  occurs at a TC event. In the PWM mode the swap occurs at the next TC event
 727:Generated_Source\PSoC4/PWM_Fail.c **** *  following a hardware switch event.
 728:Generated_Source\PSoC4/PWM_Fail.c **** *
 729:Generated_Source\PSoC4/PWM_Fail.c **** * Parameters:
 730:Generated_Source\PSoC4/PWM_Fail.c **** *  swapEnable
 731:Generated_Source\PSoC4/PWM_Fail.c **** *   Values:
 732:Generated_Source\PSoC4/PWM_Fail.c **** *     - 0 - Disable swap
 733:Generated_Source\PSoC4/PWM_Fail.c **** *     - 1 - Enable swap
 734:Generated_Source\PSoC4/PWM_Fail.c **** *
 735:Generated_Source\PSoC4/PWM_Fail.c **** * Return:
 736:Generated_Source\PSoC4/PWM_Fail.c **** *  None
 737:Generated_Source\PSoC4/PWM_Fail.c **** *
 738:Generated_Source\PSoC4/PWM_Fail.c **** *******************************************************************************/
 739:Generated_Source\PSoC4/PWM_Fail.c **** void PWM_Fail_SetCompareSwap(uint32 swapEnable)
 740:Generated_Source\PSoC4/PWM_Fail.c **** {
 1010              		.loc 1 740 0
 1011              		.cfi_startproc
 1012              		@ args = 0, pretend = 0, frame = 16
 1013              		@ frame_needed = 1, uses_anonymous_args = 0
 1014 0000 90B5     		push	{r4, r7, lr}
 1015              		.cfi_def_cfa_offset 12
 1016              		.cfi_offset 4, -12
 1017              		.cfi_offset 7, -8
 1018              		.cfi_offset 14, -4
 1019 0002 85B0     		sub	sp, sp, #20
 1020              		.cfi_def_cfa_offset 32
 1021 0004 00AF     		add	r7, sp, #0
 1022              		.cfi_def_cfa_register 7
 1023 0006 7860     		str	r0, [r7, #4]
 741:Generated_Source\PSoC4/PWM_Fail.c ****     uint8 enableInterrupts;
 742:Generated_Source\PSoC4/PWM_Fail.c **** 
 743:Generated_Source\PSoC4/PWM_Fail.c ****     enableInterrupts = CyEnterCriticalSection();
 1024              		.loc 1 743 0
ARM GAS  C:\Users\gjl\AppData\Local\Temp\cc8yHSzD.s 			page 32


 1025 0008 0F23     		movs	r3, #15
 1026 000a FC18     		adds	r4, r7, r3
 1027 000c FFF7FEFF 		bl	CyEnterCriticalSection
 1028 0010 0300     		movs	r3, r0
 1029 0012 2370     		strb	r3, [r4]
 744:Generated_Source\PSoC4/PWM_Fail.c **** 
 745:Generated_Source\PSoC4/PWM_Fail.c ****     PWM_Fail_CONTROL_REG &= (uint32)~PWM_Fail_RELOAD_CC_MASK;
 1030              		.loc 1 745 0
 1031 0014 0B4B     		ldr	r3, .L59
 1032 0016 0B4A     		ldr	r2, .L59
 1033 0018 1268     		ldr	r2, [r2]
 1034 001a 0121     		movs	r1, #1
 1035 001c 8A43     		bics	r2, r1
 1036 001e 1A60     		str	r2, [r3]
 746:Generated_Source\PSoC4/PWM_Fail.c ****     PWM_Fail_CONTROL_REG |= (swapEnable & PWM_Fail_1BIT_MASK);
 1037              		.loc 1 746 0
 1038 0020 084B     		ldr	r3, .L59
 1039 0022 084A     		ldr	r2, .L59
 1040 0024 1168     		ldr	r1, [r2]
 1041 0026 7A68     		ldr	r2, [r7, #4]
 1042 0028 0120     		movs	r0, #1
 1043 002a 0240     		ands	r2, r0
 1044 002c 0A43     		orrs	r2, r1
 1045 002e 1A60     		str	r2, [r3]
 747:Generated_Source\PSoC4/PWM_Fail.c **** 
 748:Generated_Source\PSoC4/PWM_Fail.c ****     CyExitCriticalSection(enableInterrupts);
 1046              		.loc 1 748 0
 1047 0030 0F23     		movs	r3, #15
 1048 0032 FB18     		adds	r3, r7, r3
 1049 0034 1B78     		ldrb	r3, [r3]
 1050 0036 1800     		movs	r0, r3
 1051 0038 FFF7FEFF 		bl	CyExitCriticalSection
 749:Generated_Source\PSoC4/PWM_Fail.c **** }
 1052              		.loc 1 749 0
 1053 003c C046     		nop
 1054 003e BD46     		mov	sp, r7
 1055 0040 05B0     		add	sp, sp, #20
 1056              		@ sp needed
 1057 0042 90BD     		pop	{r4, r7, pc}
 1058              	.L60:
 1059              		.align	2
 1060              	.L59:
 1061 0044 40010540 		.word	1074069824
 1062              		.cfi_endproc
 1063              	.LFE18:
 1064              		.size	PWM_Fail_SetCompareSwap, .-PWM_Fail_SetCompareSwap
 1065              		.section	.text.PWM_Fail_WritePeriodBuf,"ax",%progbits
 1066              		.align	2
 1067              		.global	PWM_Fail_WritePeriodBuf
 1068              		.code	16
 1069              		.thumb_func
 1070              		.type	PWM_Fail_WritePeriodBuf, %function
 1071              	PWM_Fail_WritePeriodBuf:
 1072              	.LFB19:
 750:Generated_Source\PSoC4/PWM_Fail.c **** 
 751:Generated_Source\PSoC4/PWM_Fail.c **** 
 752:Generated_Source\PSoC4/PWM_Fail.c **** /*******************************************************************************
ARM GAS  C:\Users\gjl\AppData\Local\Temp\cc8yHSzD.s 			page 33


 753:Generated_Source\PSoC4/PWM_Fail.c **** * Function Name: PWM_Fail_WritePeriodBuf
 754:Generated_Source\PSoC4/PWM_Fail.c **** ********************************************************************************
 755:Generated_Source\PSoC4/PWM_Fail.c **** *
 756:Generated_Source\PSoC4/PWM_Fail.c **** * Summary:
 757:Generated_Source\PSoC4/PWM_Fail.c **** *  Writes the 16 bit period buf register with the new period value.
 758:Generated_Source\PSoC4/PWM_Fail.c **** *
 759:Generated_Source\PSoC4/PWM_Fail.c **** * Parameters:
 760:Generated_Source\PSoC4/PWM_Fail.c **** *  periodBuf: Period value
 761:Generated_Source\PSoC4/PWM_Fail.c **** *
 762:Generated_Source\PSoC4/PWM_Fail.c **** * Return:
 763:Generated_Source\PSoC4/PWM_Fail.c **** *  None
 764:Generated_Source\PSoC4/PWM_Fail.c **** *
 765:Generated_Source\PSoC4/PWM_Fail.c **** *******************************************************************************/
 766:Generated_Source\PSoC4/PWM_Fail.c **** void PWM_Fail_WritePeriodBuf(uint32 periodBuf)
 767:Generated_Source\PSoC4/PWM_Fail.c **** {
 1073              		.loc 1 767 0
 1074              		.cfi_startproc
 1075              		@ args = 0, pretend = 0, frame = 8
 1076              		@ frame_needed = 1, uses_anonymous_args = 0
 1077 0000 80B5     		push	{r7, lr}
 1078              		.cfi_def_cfa_offset 8
 1079              		.cfi_offset 7, -8
 1080              		.cfi_offset 14, -4
 1081 0002 82B0     		sub	sp, sp, #8
 1082              		.cfi_def_cfa_offset 16
 1083 0004 00AF     		add	r7, sp, #0
 1084              		.cfi_def_cfa_register 7
 1085 0006 7860     		str	r0, [r7, #4]
 768:Generated_Source\PSoC4/PWM_Fail.c ****     PWM_Fail_PERIOD_BUF_REG = (periodBuf & PWM_Fail_16BIT_MASK);
 1086              		.loc 1 768 0
 1087 0008 044B     		ldr	r3, .L62
 1088 000a 7A68     		ldr	r2, [r7, #4]
 1089 000c 1204     		lsls	r2, r2, #16
 1090 000e 120C     		lsrs	r2, r2, #16
 1091 0010 1A60     		str	r2, [r3]
 769:Generated_Source\PSoC4/PWM_Fail.c **** }
 1092              		.loc 1 769 0
 1093 0012 C046     		nop
 1094 0014 BD46     		mov	sp, r7
 1095 0016 02B0     		add	sp, sp, #8
 1096              		@ sp needed
 1097 0018 80BD     		pop	{r7, pc}
 1098              	.L63:
 1099 001a C046     		.align	2
 1100              	.L62:
 1101 001c 58010540 		.word	1074069848
 1102              		.cfi_endproc
 1103              	.LFE19:
 1104              		.size	PWM_Fail_WritePeriodBuf, .-PWM_Fail_WritePeriodBuf
 1105              		.section	.text.PWM_Fail_ReadPeriodBuf,"ax",%progbits
 1106              		.align	2
 1107              		.global	PWM_Fail_ReadPeriodBuf
 1108              		.code	16
 1109              		.thumb_func
 1110              		.type	PWM_Fail_ReadPeriodBuf, %function
 1111              	PWM_Fail_ReadPeriodBuf:
 1112              	.LFB20:
ARM GAS  C:\Users\gjl\AppData\Local\Temp\cc8yHSzD.s 			page 34


 770:Generated_Source\PSoC4/PWM_Fail.c **** 
 771:Generated_Source\PSoC4/PWM_Fail.c **** 
 772:Generated_Source\PSoC4/PWM_Fail.c **** /*******************************************************************************
 773:Generated_Source\PSoC4/PWM_Fail.c **** * Function Name: PWM_Fail_ReadPeriodBuf
 774:Generated_Source\PSoC4/PWM_Fail.c **** ********************************************************************************
 775:Generated_Source\PSoC4/PWM_Fail.c **** *
 776:Generated_Source\PSoC4/PWM_Fail.c **** * Summary:
 777:Generated_Source\PSoC4/PWM_Fail.c **** *  Reads the 16 bit period buf register.
 778:Generated_Source\PSoC4/PWM_Fail.c **** *
 779:Generated_Source\PSoC4/PWM_Fail.c **** * Parameters:
 780:Generated_Source\PSoC4/PWM_Fail.c **** *  None
 781:Generated_Source\PSoC4/PWM_Fail.c **** *
 782:Generated_Source\PSoC4/PWM_Fail.c **** * Return:
 783:Generated_Source\PSoC4/PWM_Fail.c **** *  Period value
 784:Generated_Source\PSoC4/PWM_Fail.c **** *
 785:Generated_Source\PSoC4/PWM_Fail.c **** *******************************************************************************/
 786:Generated_Source\PSoC4/PWM_Fail.c **** uint32 PWM_Fail_ReadPeriodBuf(void)
 787:Generated_Source\PSoC4/PWM_Fail.c **** {
 1113              		.loc 1 787 0
 1114              		.cfi_startproc
 1115              		@ args = 0, pretend = 0, frame = 0
 1116              		@ frame_needed = 1, uses_anonymous_args = 0
 1117 0000 80B5     		push	{r7, lr}
 1118              		.cfi_def_cfa_offset 8
 1119              		.cfi_offset 7, -8
 1120              		.cfi_offset 14, -4
 1121 0002 00AF     		add	r7, sp, #0
 1122              		.cfi_def_cfa_register 7
 788:Generated_Source\PSoC4/PWM_Fail.c ****     return (PWM_Fail_PERIOD_BUF_REG & PWM_Fail_16BIT_MASK);
 1123              		.loc 1 788 0
 1124 0004 034B     		ldr	r3, .L66
 1125 0006 1B68     		ldr	r3, [r3]
 1126 0008 1B04     		lsls	r3, r3, #16
 1127 000a 1B0C     		lsrs	r3, r3, #16
 789:Generated_Source\PSoC4/PWM_Fail.c **** }
 1128              		.loc 1 789 0
 1129 000c 1800     		movs	r0, r3
 1130 000e BD46     		mov	sp, r7
 1131              		@ sp needed
 1132 0010 80BD     		pop	{r7, pc}
 1133              	.L67:
 1134 0012 C046     		.align	2
 1135              	.L66:
 1136 0014 58010540 		.word	1074069848
 1137              		.cfi_endproc
 1138              	.LFE20:
 1139              		.size	PWM_Fail_ReadPeriodBuf, .-PWM_Fail_ReadPeriodBuf
 1140              		.section	.text.PWM_Fail_SetPeriodSwap,"ax",%progbits
 1141              		.align	2
 1142              		.global	PWM_Fail_SetPeriodSwap
 1143              		.code	16
 1144              		.thumb_func
 1145              		.type	PWM_Fail_SetPeriodSwap, %function
 1146              	PWM_Fail_SetPeriodSwap:
 1147              	.LFB21:
 790:Generated_Source\PSoC4/PWM_Fail.c **** 
 791:Generated_Source\PSoC4/PWM_Fail.c **** 
ARM GAS  C:\Users\gjl\AppData\Local\Temp\cc8yHSzD.s 			page 35


 792:Generated_Source\PSoC4/PWM_Fail.c **** /*******************************************************************************
 793:Generated_Source\PSoC4/PWM_Fail.c **** * Function Name: PWM_Fail_SetPeriodSwap
 794:Generated_Source\PSoC4/PWM_Fail.c **** ********************************************************************************
 795:Generated_Source\PSoC4/PWM_Fail.c **** *
 796:Generated_Source\PSoC4/PWM_Fail.c **** * Summary:
 797:Generated_Source\PSoC4/PWM_Fail.c **** *  Writes the register that controls whether the period registers are
 798:Generated_Source\PSoC4/PWM_Fail.c **** *  swapped. When enabled in Timer/Counter mode the swap occurs at a TC event.
 799:Generated_Source\PSoC4/PWM_Fail.c **** *  In the PWM mode the swap occurs at the next TC event following a hardware
 800:Generated_Source\PSoC4/PWM_Fail.c **** *  switch event.
 801:Generated_Source\PSoC4/PWM_Fail.c **** *
 802:Generated_Source\PSoC4/PWM_Fail.c **** * Parameters:
 803:Generated_Source\PSoC4/PWM_Fail.c **** *  swapEnable
 804:Generated_Source\PSoC4/PWM_Fail.c **** *   Values:
 805:Generated_Source\PSoC4/PWM_Fail.c **** *     - 0 - Disable swap
 806:Generated_Source\PSoC4/PWM_Fail.c **** *     - 1 - Enable swap
 807:Generated_Source\PSoC4/PWM_Fail.c **** *
 808:Generated_Source\PSoC4/PWM_Fail.c **** * Return:
 809:Generated_Source\PSoC4/PWM_Fail.c **** *  None
 810:Generated_Source\PSoC4/PWM_Fail.c **** *
 811:Generated_Source\PSoC4/PWM_Fail.c **** *******************************************************************************/
 812:Generated_Source\PSoC4/PWM_Fail.c **** void PWM_Fail_SetPeriodSwap(uint32 swapEnable)
 813:Generated_Source\PSoC4/PWM_Fail.c **** {
 1148              		.loc 1 813 0
 1149              		.cfi_startproc
 1150              		@ args = 0, pretend = 0, frame = 16
 1151              		@ frame_needed = 1, uses_anonymous_args = 0
 1152 0000 90B5     		push	{r4, r7, lr}
 1153              		.cfi_def_cfa_offset 12
 1154              		.cfi_offset 4, -12
 1155              		.cfi_offset 7, -8
 1156              		.cfi_offset 14, -4
 1157 0002 85B0     		sub	sp, sp, #20
 1158              		.cfi_def_cfa_offset 32
 1159 0004 00AF     		add	r7, sp, #0
 1160              		.cfi_def_cfa_register 7
 1161 0006 7860     		str	r0, [r7, #4]
 814:Generated_Source\PSoC4/PWM_Fail.c ****     uint8 enableInterrupts;
 815:Generated_Source\PSoC4/PWM_Fail.c **** 
 816:Generated_Source\PSoC4/PWM_Fail.c ****     enableInterrupts = CyEnterCriticalSection();
 1162              		.loc 1 816 0
 1163 0008 0F23     		movs	r3, #15
 1164 000a FC18     		adds	r4, r7, r3
 1165 000c FFF7FEFF 		bl	CyEnterCriticalSection
 1166 0010 0300     		movs	r3, r0
 1167 0012 2370     		strb	r3, [r4]
 817:Generated_Source\PSoC4/PWM_Fail.c **** 
 818:Generated_Source\PSoC4/PWM_Fail.c ****     PWM_Fail_CONTROL_REG &= (uint32)~PWM_Fail_RELOAD_PERIOD_MASK;
 1168              		.loc 1 818 0
 1169 0014 0C4B     		ldr	r3, .L69
 1170 0016 0C4A     		ldr	r2, .L69
 1171 0018 1268     		ldr	r2, [r2]
 1172 001a 0221     		movs	r1, #2
 1173 001c 8A43     		bics	r2, r1
 1174 001e 1A60     		str	r2, [r3]
 819:Generated_Source\PSoC4/PWM_Fail.c ****     PWM_Fail_CONTROL_REG |= ((uint32)((swapEnable & PWM_Fail_1BIT_MASK) <<
 1175              		.loc 1 819 0
 1176 0020 094B     		ldr	r3, .L69
ARM GAS  C:\Users\gjl\AppData\Local\Temp\cc8yHSzD.s 			page 36


 1177 0022 094A     		ldr	r2, .L69
 1178 0024 1168     		ldr	r1, [r2]
 1179 0026 7A68     		ldr	r2, [r7, #4]
 1180 0028 5200     		lsls	r2, r2, #1
 1181 002a 0220     		movs	r0, #2
 1182 002c 0240     		ands	r2, r0
 1183 002e 0A43     		orrs	r2, r1
 1184 0030 1A60     		str	r2, [r3]
 820:Generated_Source\PSoC4/PWM_Fail.c ****                                                             PWM_Fail_RELOAD_PERIOD_SHIFT));
 821:Generated_Source\PSoC4/PWM_Fail.c **** 
 822:Generated_Source\PSoC4/PWM_Fail.c ****     CyExitCriticalSection(enableInterrupts);
 1185              		.loc 1 822 0
 1186 0032 0F23     		movs	r3, #15
 1187 0034 FB18     		adds	r3, r7, r3
 1188 0036 1B78     		ldrb	r3, [r3]
 1189 0038 1800     		movs	r0, r3
 1190 003a FFF7FEFF 		bl	CyExitCriticalSection
 823:Generated_Source\PSoC4/PWM_Fail.c **** }
 1191              		.loc 1 823 0
 1192 003e C046     		nop
 1193 0040 BD46     		mov	sp, r7
 1194 0042 05B0     		add	sp, sp, #20
 1195              		@ sp needed
 1196 0044 90BD     		pop	{r4, r7, pc}
 1197              	.L70:
 1198 0046 C046     		.align	2
 1199              	.L69:
 1200 0048 40010540 		.word	1074069824
 1201              		.cfi_endproc
 1202              	.LFE21:
 1203              		.size	PWM_Fail_SetPeriodSwap, .-PWM_Fail_SetPeriodSwap
 1204              		.section	.text.PWM_Fail_WriteCompare,"ax",%progbits
 1205              		.align	2
 1206              		.global	PWM_Fail_WriteCompare
 1207              		.code	16
 1208              		.thumb_func
 1209              		.type	PWM_Fail_WriteCompare, %function
 1210              	PWM_Fail_WriteCompare:
 1211              	.LFB22:
 824:Generated_Source\PSoC4/PWM_Fail.c **** 
 825:Generated_Source\PSoC4/PWM_Fail.c **** 
 826:Generated_Source\PSoC4/PWM_Fail.c **** /*******************************************************************************
 827:Generated_Source\PSoC4/PWM_Fail.c **** * Function Name: PWM_Fail_WriteCompare
 828:Generated_Source\PSoC4/PWM_Fail.c **** ********************************************************************************
 829:Generated_Source\PSoC4/PWM_Fail.c **** *
 830:Generated_Source\PSoC4/PWM_Fail.c **** * Summary:
 831:Generated_Source\PSoC4/PWM_Fail.c **** *  Writes the 16 bit compare register with the new compare value. Not
 832:Generated_Source\PSoC4/PWM_Fail.c **** *  applicable for Timer/Counter with Capture or in Quadrature Decoder modes.
 833:Generated_Source\PSoC4/PWM_Fail.c **** *
 834:Generated_Source\PSoC4/PWM_Fail.c **** * Parameters:
 835:Generated_Source\PSoC4/PWM_Fail.c **** *  compare: Compare value
 836:Generated_Source\PSoC4/PWM_Fail.c **** *
 837:Generated_Source\PSoC4/PWM_Fail.c **** * Return:
 838:Generated_Source\PSoC4/PWM_Fail.c **** *  None
 839:Generated_Source\PSoC4/PWM_Fail.c **** *
 840:Generated_Source\PSoC4/PWM_Fail.c **** * Note:
 841:Generated_Source\PSoC4/PWM_Fail.c **** *  It is not recommended to use the value equal to "0" or equal to 
ARM GAS  C:\Users\gjl\AppData\Local\Temp\cc8yHSzD.s 			page 37


 842:Generated_Source\PSoC4/PWM_Fail.c **** *  "period value" in Center or Asymmetric align PWM modes on the 
 843:Generated_Source\PSoC4/PWM_Fail.c **** *  PSoC 4100/PSoC 4200 devices.
 844:Generated_Source\PSoC4/PWM_Fail.c **** *  PSoC 4000 devices write the 16 bit compare register with the decremented 
 845:Generated_Source\PSoC4/PWM_Fail.c **** *  compare value in the Up counting mode (except 0x0u), and the incremented 
 846:Generated_Source\PSoC4/PWM_Fail.c **** *  compare value in the Down counting mode (except 0xFFFFu).
 847:Generated_Source\PSoC4/PWM_Fail.c **** *
 848:Generated_Source\PSoC4/PWM_Fail.c **** *******************************************************************************/
 849:Generated_Source\PSoC4/PWM_Fail.c **** void PWM_Fail_WriteCompare(uint32 compare)
 850:Generated_Source\PSoC4/PWM_Fail.c **** {
 1212              		.loc 1 850 0
 1213              		.cfi_startproc
 1214              		@ args = 0, pretend = 0, frame = 8
 1215              		@ frame_needed = 1, uses_anonymous_args = 0
 1216 0000 80B5     		push	{r7, lr}
 1217              		.cfi_def_cfa_offset 8
 1218              		.cfi_offset 7, -8
 1219              		.cfi_offset 14, -4
 1220 0002 82B0     		sub	sp, sp, #8
 1221              		.cfi_def_cfa_offset 16
 1222 0004 00AF     		add	r7, sp, #0
 1223              		.cfi_def_cfa_register 7
 1224 0006 7860     		str	r0, [r7, #4]
 851:Generated_Source\PSoC4/PWM_Fail.c ****     #if (PWM_Fail_CY_TCPWM_4000)
 852:Generated_Source\PSoC4/PWM_Fail.c ****         uint32 currentMode;
 853:Generated_Source\PSoC4/PWM_Fail.c ****     #endif /* (PWM_Fail_CY_TCPWM_4000) */
 854:Generated_Source\PSoC4/PWM_Fail.c **** 
 855:Generated_Source\PSoC4/PWM_Fail.c ****     #if (PWM_Fail_CY_TCPWM_4000)
 856:Generated_Source\PSoC4/PWM_Fail.c ****         currentMode = ((PWM_Fail_CONTROL_REG & PWM_Fail_UPDOWN_MASK) >> PWM_Fail_UPDOWN_SHIFT);
 857:Generated_Source\PSoC4/PWM_Fail.c **** 
 858:Generated_Source\PSoC4/PWM_Fail.c ****         if (((uint32)PWM_Fail__COUNT_DOWN == currentMode) && (0xFFFFu != compare))
 859:Generated_Source\PSoC4/PWM_Fail.c ****         {
 860:Generated_Source\PSoC4/PWM_Fail.c ****             compare++;
 861:Generated_Source\PSoC4/PWM_Fail.c ****         }
 862:Generated_Source\PSoC4/PWM_Fail.c ****         else if (((uint32)PWM_Fail__COUNT_UP == currentMode) && (0u != compare))
 863:Generated_Source\PSoC4/PWM_Fail.c ****         {
 864:Generated_Source\PSoC4/PWM_Fail.c ****             compare--;
 865:Generated_Source\PSoC4/PWM_Fail.c ****         }
 866:Generated_Source\PSoC4/PWM_Fail.c ****         else
 867:Generated_Source\PSoC4/PWM_Fail.c ****         {
 868:Generated_Source\PSoC4/PWM_Fail.c ****         }
 869:Generated_Source\PSoC4/PWM_Fail.c ****         
 870:Generated_Source\PSoC4/PWM_Fail.c ****     
 871:Generated_Source\PSoC4/PWM_Fail.c ****     #endif /* (PWM_Fail_CY_TCPWM_4000) */
 872:Generated_Source\PSoC4/PWM_Fail.c ****     
 873:Generated_Source\PSoC4/PWM_Fail.c ****     PWM_Fail_COMP_CAP_REG = (compare & PWM_Fail_16BIT_MASK);
 1225              		.loc 1 873 0
 1226 0008 044B     		ldr	r3, .L72
 1227 000a 7A68     		ldr	r2, [r7, #4]
 1228 000c 1204     		lsls	r2, r2, #16
 1229 000e 120C     		lsrs	r2, r2, #16
 1230 0010 1A60     		str	r2, [r3]
 874:Generated_Source\PSoC4/PWM_Fail.c **** }
 1231              		.loc 1 874 0
 1232 0012 C046     		nop
 1233 0014 BD46     		mov	sp, r7
 1234 0016 02B0     		add	sp, sp, #8
 1235              		@ sp needed
ARM GAS  C:\Users\gjl\AppData\Local\Temp\cc8yHSzD.s 			page 38


 1236 0018 80BD     		pop	{r7, pc}
 1237              	.L73:
 1238 001a C046     		.align	2
 1239              	.L72:
 1240 001c 4C010540 		.word	1074069836
 1241              		.cfi_endproc
 1242              	.LFE22:
 1243              		.size	PWM_Fail_WriteCompare, .-PWM_Fail_WriteCompare
 1244              		.section	.text.PWM_Fail_ReadCompare,"ax",%progbits
 1245              		.align	2
 1246              		.global	PWM_Fail_ReadCompare
 1247              		.code	16
 1248              		.thumb_func
 1249              		.type	PWM_Fail_ReadCompare, %function
 1250              	PWM_Fail_ReadCompare:
 1251              	.LFB23:
 875:Generated_Source\PSoC4/PWM_Fail.c **** 
 876:Generated_Source\PSoC4/PWM_Fail.c **** 
 877:Generated_Source\PSoC4/PWM_Fail.c **** /*******************************************************************************
 878:Generated_Source\PSoC4/PWM_Fail.c **** * Function Name: PWM_Fail_ReadCompare
 879:Generated_Source\PSoC4/PWM_Fail.c **** ********************************************************************************
 880:Generated_Source\PSoC4/PWM_Fail.c **** *
 881:Generated_Source\PSoC4/PWM_Fail.c **** * Summary:
 882:Generated_Source\PSoC4/PWM_Fail.c **** *  Reads the compare register. Not applicable for Timer/Counter with Capture
 883:Generated_Source\PSoC4/PWM_Fail.c **** *  or in Quadrature Decoder modes.
 884:Generated_Source\PSoC4/PWM_Fail.c **** *  PSoC 4000 devices read the incremented compare register value in the 
 885:Generated_Source\PSoC4/PWM_Fail.c **** *  Up counting mode (except 0xFFFFu), and the decremented value in the 
 886:Generated_Source\PSoC4/PWM_Fail.c **** *  Down counting mode (except 0x0u).
 887:Generated_Source\PSoC4/PWM_Fail.c **** *
 888:Generated_Source\PSoC4/PWM_Fail.c **** * Parameters:
 889:Generated_Source\PSoC4/PWM_Fail.c **** *  None
 890:Generated_Source\PSoC4/PWM_Fail.c **** *
 891:Generated_Source\PSoC4/PWM_Fail.c **** * Return:
 892:Generated_Source\PSoC4/PWM_Fail.c **** *  Compare value
 893:Generated_Source\PSoC4/PWM_Fail.c **** *
 894:Generated_Source\PSoC4/PWM_Fail.c **** * Note:
 895:Generated_Source\PSoC4/PWM_Fail.c **** *  PSoC 4000 devices read the incremented compare register value in the 
 896:Generated_Source\PSoC4/PWM_Fail.c **** *  Up counting mode (except 0xFFFFu), and the decremented value in the 
 897:Generated_Source\PSoC4/PWM_Fail.c **** *  Down counting mode (except 0x0u).
 898:Generated_Source\PSoC4/PWM_Fail.c **** *
 899:Generated_Source\PSoC4/PWM_Fail.c **** *******************************************************************************/
 900:Generated_Source\PSoC4/PWM_Fail.c **** uint32 PWM_Fail_ReadCompare(void)
 901:Generated_Source\PSoC4/PWM_Fail.c **** {
 1252              		.loc 1 901 0
 1253              		.cfi_startproc
 1254              		@ args = 0, pretend = 0, frame = 0
 1255              		@ frame_needed = 1, uses_anonymous_args = 0
 1256 0000 80B5     		push	{r7, lr}
 1257              		.cfi_def_cfa_offset 8
 1258              		.cfi_offset 7, -8
 1259              		.cfi_offset 14, -4
 1260 0002 00AF     		add	r7, sp, #0
 1261              		.cfi_def_cfa_register 7
 902:Generated_Source\PSoC4/PWM_Fail.c ****     #if (PWM_Fail_CY_TCPWM_4000)
 903:Generated_Source\PSoC4/PWM_Fail.c ****         uint32 currentMode;
 904:Generated_Source\PSoC4/PWM_Fail.c ****         uint32 regVal;
 905:Generated_Source\PSoC4/PWM_Fail.c ****     #endif /* (PWM_Fail_CY_TCPWM_4000) */
ARM GAS  C:\Users\gjl\AppData\Local\Temp\cc8yHSzD.s 			page 39


 906:Generated_Source\PSoC4/PWM_Fail.c **** 
 907:Generated_Source\PSoC4/PWM_Fail.c ****     #if (PWM_Fail_CY_TCPWM_4000)
 908:Generated_Source\PSoC4/PWM_Fail.c ****         currentMode = ((PWM_Fail_CONTROL_REG & PWM_Fail_UPDOWN_MASK) >> PWM_Fail_UPDOWN_SHIFT);
 909:Generated_Source\PSoC4/PWM_Fail.c ****         
 910:Generated_Source\PSoC4/PWM_Fail.c ****         regVal = PWM_Fail_COMP_CAP_REG;
 911:Generated_Source\PSoC4/PWM_Fail.c ****         
 912:Generated_Source\PSoC4/PWM_Fail.c ****         if (((uint32)PWM_Fail__COUNT_DOWN == currentMode) && (0u != regVal))
 913:Generated_Source\PSoC4/PWM_Fail.c ****         {
 914:Generated_Source\PSoC4/PWM_Fail.c ****             regVal--;
 915:Generated_Source\PSoC4/PWM_Fail.c ****         }
 916:Generated_Source\PSoC4/PWM_Fail.c ****         else if (((uint32)PWM_Fail__COUNT_UP == currentMode) && (0xFFFFu != regVal))
 917:Generated_Source\PSoC4/PWM_Fail.c ****         {
 918:Generated_Source\PSoC4/PWM_Fail.c ****             regVal++;
 919:Generated_Source\PSoC4/PWM_Fail.c ****         }
 920:Generated_Source\PSoC4/PWM_Fail.c ****         else
 921:Generated_Source\PSoC4/PWM_Fail.c ****         {
 922:Generated_Source\PSoC4/PWM_Fail.c ****         }
 923:Generated_Source\PSoC4/PWM_Fail.c **** 
 924:Generated_Source\PSoC4/PWM_Fail.c ****         return (regVal & PWM_Fail_16BIT_MASK);
 925:Generated_Source\PSoC4/PWM_Fail.c ****     #else
 926:Generated_Source\PSoC4/PWM_Fail.c ****         return (PWM_Fail_COMP_CAP_REG & PWM_Fail_16BIT_MASK);
 1262              		.loc 1 926 0
 1263 0004 034B     		ldr	r3, .L76
 1264 0006 1B68     		ldr	r3, [r3]
 1265 0008 1B04     		lsls	r3, r3, #16
 1266 000a 1B0C     		lsrs	r3, r3, #16
 927:Generated_Source\PSoC4/PWM_Fail.c ****     #endif /* (PWM_Fail_CY_TCPWM_4000) */
 928:Generated_Source\PSoC4/PWM_Fail.c **** }
 1267              		.loc 1 928 0
 1268 000c 1800     		movs	r0, r3
 1269 000e BD46     		mov	sp, r7
 1270              		@ sp needed
 1271 0010 80BD     		pop	{r7, pc}
 1272              	.L77:
 1273 0012 C046     		.align	2
 1274              	.L76:
 1275 0014 4C010540 		.word	1074069836
 1276              		.cfi_endproc
 1277              	.LFE23:
 1278              		.size	PWM_Fail_ReadCompare, .-PWM_Fail_ReadCompare
 1279              		.section	.text.PWM_Fail_WriteCompareBuf,"ax",%progbits
 1280              		.align	2
 1281              		.global	PWM_Fail_WriteCompareBuf
 1282              		.code	16
 1283              		.thumb_func
 1284              		.type	PWM_Fail_WriteCompareBuf, %function
 1285              	PWM_Fail_WriteCompareBuf:
 1286              	.LFB24:
 929:Generated_Source\PSoC4/PWM_Fail.c **** 
 930:Generated_Source\PSoC4/PWM_Fail.c **** 
 931:Generated_Source\PSoC4/PWM_Fail.c **** /*******************************************************************************
 932:Generated_Source\PSoC4/PWM_Fail.c **** * Function Name: PWM_Fail_WriteCompareBuf
 933:Generated_Source\PSoC4/PWM_Fail.c **** ********************************************************************************
 934:Generated_Source\PSoC4/PWM_Fail.c **** *
 935:Generated_Source\PSoC4/PWM_Fail.c **** * Summary:
 936:Generated_Source\PSoC4/PWM_Fail.c **** *  Writes the 16 bit compare buffer register with the new compare value. Not
 937:Generated_Source\PSoC4/PWM_Fail.c **** *  applicable for Timer/Counter with Capture or in Quadrature Decoder modes.
ARM GAS  C:\Users\gjl\AppData\Local\Temp\cc8yHSzD.s 			page 40


 938:Generated_Source\PSoC4/PWM_Fail.c **** *
 939:Generated_Source\PSoC4/PWM_Fail.c **** * Parameters:
 940:Generated_Source\PSoC4/PWM_Fail.c **** *  compareBuf: Compare value
 941:Generated_Source\PSoC4/PWM_Fail.c **** *
 942:Generated_Source\PSoC4/PWM_Fail.c **** * Return:
 943:Generated_Source\PSoC4/PWM_Fail.c **** *  None
 944:Generated_Source\PSoC4/PWM_Fail.c **** *
 945:Generated_Source\PSoC4/PWM_Fail.c **** * Note:
 946:Generated_Source\PSoC4/PWM_Fail.c **** *  It is not recommended to use the value equal to "0" or equal to 
 947:Generated_Source\PSoC4/PWM_Fail.c **** *  "period value" in Center or Asymmetric align PWM modes on the 
 948:Generated_Source\PSoC4/PWM_Fail.c **** *  PSoC 4100/PSoC 4200 devices.
 949:Generated_Source\PSoC4/PWM_Fail.c **** *  PSoC 4000 devices write the 16 bit compare register with the decremented 
 950:Generated_Source\PSoC4/PWM_Fail.c **** *  compare value in the Up counting mode (except 0x0u), and the incremented 
 951:Generated_Source\PSoC4/PWM_Fail.c **** *  compare value in the Down counting mode (except 0xFFFFu).
 952:Generated_Source\PSoC4/PWM_Fail.c **** *
 953:Generated_Source\PSoC4/PWM_Fail.c **** *******************************************************************************/
 954:Generated_Source\PSoC4/PWM_Fail.c **** void PWM_Fail_WriteCompareBuf(uint32 compareBuf)
 955:Generated_Source\PSoC4/PWM_Fail.c **** {
 1287              		.loc 1 955 0
 1288              		.cfi_startproc
 1289              		@ args = 0, pretend = 0, frame = 8
 1290              		@ frame_needed = 1, uses_anonymous_args = 0
 1291 0000 80B5     		push	{r7, lr}
 1292              		.cfi_def_cfa_offset 8
 1293              		.cfi_offset 7, -8
 1294              		.cfi_offset 14, -4
 1295 0002 82B0     		sub	sp, sp, #8
 1296              		.cfi_def_cfa_offset 16
 1297 0004 00AF     		add	r7, sp, #0
 1298              		.cfi_def_cfa_register 7
 1299 0006 7860     		str	r0, [r7, #4]
 956:Generated_Source\PSoC4/PWM_Fail.c ****     #if (PWM_Fail_CY_TCPWM_4000)
 957:Generated_Source\PSoC4/PWM_Fail.c ****         uint32 currentMode;
 958:Generated_Source\PSoC4/PWM_Fail.c ****     #endif /* (PWM_Fail_CY_TCPWM_4000) */
 959:Generated_Source\PSoC4/PWM_Fail.c **** 
 960:Generated_Source\PSoC4/PWM_Fail.c ****     #if (PWM_Fail_CY_TCPWM_4000)
 961:Generated_Source\PSoC4/PWM_Fail.c ****         currentMode = ((PWM_Fail_CONTROL_REG & PWM_Fail_UPDOWN_MASK) >> PWM_Fail_UPDOWN_SHIFT);
 962:Generated_Source\PSoC4/PWM_Fail.c **** 
 963:Generated_Source\PSoC4/PWM_Fail.c ****         if (((uint32)PWM_Fail__COUNT_DOWN == currentMode) && (0xFFFFu != compareBuf))
 964:Generated_Source\PSoC4/PWM_Fail.c ****         {
 965:Generated_Source\PSoC4/PWM_Fail.c ****             compareBuf++;
 966:Generated_Source\PSoC4/PWM_Fail.c ****         }
 967:Generated_Source\PSoC4/PWM_Fail.c ****         else if (((uint32)PWM_Fail__COUNT_UP == currentMode) && (0u != compareBuf))
 968:Generated_Source\PSoC4/PWM_Fail.c ****         {
 969:Generated_Source\PSoC4/PWM_Fail.c ****             compareBuf --;
 970:Generated_Source\PSoC4/PWM_Fail.c ****         }
 971:Generated_Source\PSoC4/PWM_Fail.c ****         else
 972:Generated_Source\PSoC4/PWM_Fail.c ****         {
 973:Generated_Source\PSoC4/PWM_Fail.c ****         }
 974:Generated_Source\PSoC4/PWM_Fail.c ****     #endif /* (PWM_Fail_CY_TCPWM_4000) */
 975:Generated_Source\PSoC4/PWM_Fail.c ****     
 976:Generated_Source\PSoC4/PWM_Fail.c ****     PWM_Fail_COMP_CAP_BUF_REG = (compareBuf & PWM_Fail_16BIT_MASK);
 1300              		.loc 1 976 0
 1301 0008 044B     		ldr	r3, .L79
 1302 000a 7A68     		ldr	r2, [r7, #4]
 1303 000c 1204     		lsls	r2, r2, #16
 1304 000e 120C     		lsrs	r2, r2, #16
ARM GAS  C:\Users\gjl\AppData\Local\Temp\cc8yHSzD.s 			page 41


 1305 0010 1A60     		str	r2, [r3]
 977:Generated_Source\PSoC4/PWM_Fail.c **** }
 1306              		.loc 1 977 0
 1307 0012 C046     		nop
 1308 0014 BD46     		mov	sp, r7
 1309 0016 02B0     		add	sp, sp, #8
 1310              		@ sp needed
 1311 0018 80BD     		pop	{r7, pc}
 1312              	.L80:
 1313 001a C046     		.align	2
 1314              	.L79:
 1315 001c 50010540 		.word	1074069840
 1316              		.cfi_endproc
 1317              	.LFE24:
 1318              		.size	PWM_Fail_WriteCompareBuf, .-PWM_Fail_WriteCompareBuf
 1319              		.section	.text.PWM_Fail_ReadCompareBuf,"ax",%progbits
 1320              		.align	2
 1321              		.global	PWM_Fail_ReadCompareBuf
 1322              		.code	16
 1323              		.thumb_func
 1324              		.type	PWM_Fail_ReadCompareBuf, %function
 1325              	PWM_Fail_ReadCompareBuf:
 1326              	.LFB25:
 978:Generated_Source\PSoC4/PWM_Fail.c **** 
 979:Generated_Source\PSoC4/PWM_Fail.c **** 
 980:Generated_Source\PSoC4/PWM_Fail.c **** /*******************************************************************************
 981:Generated_Source\PSoC4/PWM_Fail.c **** * Function Name: PWM_Fail_ReadCompareBuf
 982:Generated_Source\PSoC4/PWM_Fail.c **** ********************************************************************************
 983:Generated_Source\PSoC4/PWM_Fail.c **** *
 984:Generated_Source\PSoC4/PWM_Fail.c **** * Summary:
 985:Generated_Source\PSoC4/PWM_Fail.c **** *  Reads the compare buffer register. Not applicable for Timer/Counter with
 986:Generated_Source\PSoC4/PWM_Fail.c **** *  Capture or in Quadrature Decoder modes.
 987:Generated_Source\PSoC4/PWM_Fail.c **** *
 988:Generated_Source\PSoC4/PWM_Fail.c **** * Parameters:
 989:Generated_Source\PSoC4/PWM_Fail.c **** *  None
 990:Generated_Source\PSoC4/PWM_Fail.c **** *
 991:Generated_Source\PSoC4/PWM_Fail.c **** * Return:
 992:Generated_Source\PSoC4/PWM_Fail.c **** *  Compare buffer value
 993:Generated_Source\PSoC4/PWM_Fail.c **** *
 994:Generated_Source\PSoC4/PWM_Fail.c **** * Note:
 995:Generated_Source\PSoC4/PWM_Fail.c **** *  PSoC 4000 devices read the incremented compare register value in the 
 996:Generated_Source\PSoC4/PWM_Fail.c **** *  Up counting mode (except 0xFFFFu), and the decremented value in the 
 997:Generated_Source\PSoC4/PWM_Fail.c **** *  Down counting mode (except 0x0u).
 998:Generated_Source\PSoC4/PWM_Fail.c **** *
 999:Generated_Source\PSoC4/PWM_Fail.c **** *******************************************************************************/
1000:Generated_Source\PSoC4/PWM_Fail.c **** uint32 PWM_Fail_ReadCompareBuf(void)
1001:Generated_Source\PSoC4/PWM_Fail.c **** {
 1327              		.loc 1 1001 0
 1328              		.cfi_startproc
 1329              		@ args = 0, pretend = 0, frame = 0
 1330              		@ frame_needed = 1, uses_anonymous_args = 0
 1331 0000 80B5     		push	{r7, lr}
 1332              		.cfi_def_cfa_offset 8
 1333              		.cfi_offset 7, -8
 1334              		.cfi_offset 14, -4
 1335 0002 00AF     		add	r7, sp, #0
 1336              		.cfi_def_cfa_register 7
ARM GAS  C:\Users\gjl\AppData\Local\Temp\cc8yHSzD.s 			page 42


1002:Generated_Source\PSoC4/PWM_Fail.c ****     #if (PWM_Fail_CY_TCPWM_4000)
1003:Generated_Source\PSoC4/PWM_Fail.c ****         uint32 currentMode;
1004:Generated_Source\PSoC4/PWM_Fail.c ****         uint32 regVal;
1005:Generated_Source\PSoC4/PWM_Fail.c ****     #endif /* (PWM_Fail_CY_TCPWM_4000) */
1006:Generated_Source\PSoC4/PWM_Fail.c **** 
1007:Generated_Source\PSoC4/PWM_Fail.c ****     #if (PWM_Fail_CY_TCPWM_4000)
1008:Generated_Source\PSoC4/PWM_Fail.c ****         currentMode = ((PWM_Fail_CONTROL_REG & PWM_Fail_UPDOWN_MASK) >> PWM_Fail_UPDOWN_SHIFT);
1009:Generated_Source\PSoC4/PWM_Fail.c **** 
1010:Generated_Source\PSoC4/PWM_Fail.c ****         regVal = PWM_Fail_COMP_CAP_BUF_REG;
1011:Generated_Source\PSoC4/PWM_Fail.c ****         
1012:Generated_Source\PSoC4/PWM_Fail.c ****         if (((uint32)PWM_Fail__COUNT_DOWN == currentMode) && (0u != regVal))
1013:Generated_Source\PSoC4/PWM_Fail.c ****         {
1014:Generated_Source\PSoC4/PWM_Fail.c ****             regVal--;
1015:Generated_Source\PSoC4/PWM_Fail.c ****         }
1016:Generated_Source\PSoC4/PWM_Fail.c ****         else if (((uint32)PWM_Fail__COUNT_UP == currentMode) && (0xFFFFu != regVal))
1017:Generated_Source\PSoC4/PWM_Fail.c ****         {
1018:Generated_Source\PSoC4/PWM_Fail.c ****             regVal++;
1019:Generated_Source\PSoC4/PWM_Fail.c ****         }
1020:Generated_Source\PSoC4/PWM_Fail.c ****         else
1021:Generated_Source\PSoC4/PWM_Fail.c ****         {
1022:Generated_Source\PSoC4/PWM_Fail.c ****         }
1023:Generated_Source\PSoC4/PWM_Fail.c **** 
1024:Generated_Source\PSoC4/PWM_Fail.c ****         return (regVal & PWM_Fail_16BIT_MASK);
1025:Generated_Source\PSoC4/PWM_Fail.c ****     #else
1026:Generated_Source\PSoC4/PWM_Fail.c ****         return (PWM_Fail_COMP_CAP_BUF_REG & PWM_Fail_16BIT_MASK);
 1337              		.loc 1 1026 0
 1338 0004 034B     		ldr	r3, .L83
 1339 0006 1B68     		ldr	r3, [r3]
 1340 0008 1B04     		lsls	r3, r3, #16
 1341 000a 1B0C     		lsrs	r3, r3, #16
1027:Generated_Source\PSoC4/PWM_Fail.c ****     #endif /* (PWM_Fail_CY_TCPWM_4000) */
1028:Generated_Source\PSoC4/PWM_Fail.c **** }
 1342              		.loc 1 1028 0
 1343 000c 1800     		movs	r0, r3
 1344 000e BD46     		mov	sp, r7
 1345              		@ sp needed
 1346 0010 80BD     		pop	{r7, pc}
 1347              	.L84:
 1348 0012 C046     		.align	2
 1349              	.L83:
 1350 0014 50010540 		.word	1074069840
 1351              		.cfi_endproc
 1352              	.LFE25:
 1353              		.size	PWM_Fail_ReadCompareBuf, .-PWM_Fail_ReadCompareBuf
 1354              		.section	.text.PWM_Fail_ReadCapture,"ax",%progbits
 1355              		.align	2
 1356              		.global	PWM_Fail_ReadCapture
 1357              		.code	16
 1358              		.thumb_func
 1359              		.type	PWM_Fail_ReadCapture, %function
 1360              	PWM_Fail_ReadCapture:
 1361              	.LFB26:
1029:Generated_Source\PSoC4/PWM_Fail.c **** 
1030:Generated_Source\PSoC4/PWM_Fail.c **** 
1031:Generated_Source\PSoC4/PWM_Fail.c **** /*******************************************************************************
1032:Generated_Source\PSoC4/PWM_Fail.c **** * Function Name: PWM_Fail_ReadCapture
1033:Generated_Source\PSoC4/PWM_Fail.c **** ********************************************************************************
ARM GAS  C:\Users\gjl\AppData\Local\Temp\cc8yHSzD.s 			page 43


1034:Generated_Source\PSoC4/PWM_Fail.c **** *
1035:Generated_Source\PSoC4/PWM_Fail.c **** * Summary:
1036:Generated_Source\PSoC4/PWM_Fail.c **** *  Reads the captured counter value. This API is applicable only for
1037:Generated_Source\PSoC4/PWM_Fail.c **** *  Timer/Counter with the capture mode and Quadrature Decoder modes.
1038:Generated_Source\PSoC4/PWM_Fail.c **** *
1039:Generated_Source\PSoC4/PWM_Fail.c **** * Parameters:
1040:Generated_Source\PSoC4/PWM_Fail.c **** *  None
1041:Generated_Source\PSoC4/PWM_Fail.c **** *
1042:Generated_Source\PSoC4/PWM_Fail.c **** * Return:
1043:Generated_Source\PSoC4/PWM_Fail.c **** *  Capture value
1044:Generated_Source\PSoC4/PWM_Fail.c **** *
1045:Generated_Source\PSoC4/PWM_Fail.c **** *******************************************************************************/
1046:Generated_Source\PSoC4/PWM_Fail.c **** uint32 PWM_Fail_ReadCapture(void)
1047:Generated_Source\PSoC4/PWM_Fail.c **** {
 1362              		.loc 1 1047 0
 1363              		.cfi_startproc
 1364              		@ args = 0, pretend = 0, frame = 0
 1365              		@ frame_needed = 1, uses_anonymous_args = 0
 1366 0000 80B5     		push	{r7, lr}
 1367              		.cfi_def_cfa_offset 8
 1368              		.cfi_offset 7, -8
 1369              		.cfi_offset 14, -4
 1370 0002 00AF     		add	r7, sp, #0
 1371              		.cfi_def_cfa_register 7
1048:Generated_Source\PSoC4/PWM_Fail.c ****     return (PWM_Fail_COMP_CAP_REG & PWM_Fail_16BIT_MASK);
 1372              		.loc 1 1048 0
 1373 0004 034B     		ldr	r3, .L87
 1374 0006 1B68     		ldr	r3, [r3]
 1375 0008 1B04     		lsls	r3, r3, #16
 1376 000a 1B0C     		lsrs	r3, r3, #16
1049:Generated_Source\PSoC4/PWM_Fail.c **** }
 1377              		.loc 1 1049 0
 1378 000c 1800     		movs	r0, r3
 1379 000e BD46     		mov	sp, r7
 1380              		@ sp needed
 1381 0010 80BD     		pop	{r7, pc}
 1382              	.L88:
 1383 0012 C046     		.align	2
 1384              	.L87:
 1385 0014 4C010540 		.word	1074069836
 1386              		.cfi_endproc
 1387              	.LFE26:
 1388              		.size	PWM_Fail_ReadCapture, .-PWM_Fail_ReadCapture
 1389              		.section	.text.PWM_Fail_ReadCaptureBuf,"ax",%progbits
 1390              		.align	2
 1391              		.global	PWM_Fail_ReadCaptureBuf
 1392              		.code	16
 1393              		.thumb_func
 1394              		.type	PWM_Fail_ReadCaptureBuf, %function
 1395              	PWM_Fail_ReadCaptureBuf:
 1396              	.LFB27:
1050:Generated_Source\PSoC4/PWM_Fail.c **** 
1051:Generated_Source\PSoC4/PWM_Fail.c **** 
1052:Generated_Source\PSoC4/PWM_Fail.c **** /*******************************************************************************
1053:Generated_Source\PSoC4/PWM_Fail.c **** * Function Name: PWM_Fail_ReadCaptureBuf
1054:Generated_Source\PSoC4/PWM_Fail.c **** ********************************************************************************
1055:Generated_Source\PSoC4/PWM_Fail.c **** *
ARM GAS  C:\Users\gjl\AppData\Local\Temp\cc8yHSzD.s 			page 44


1056:Generated_Source\PSoC4/PWM_Fail.c **** * Summary:
1057:Generated_Source\PSoC4/PWM_Fail.c **** *  Reads the capture buffer register. This API is applicable only for
1058:Generated_Source\PSoC4/PWM_Fail.c **** *  Timer/Counter with the capture mode and Quadrature Decoder modes.
1059:Generated_Source\PSoC4/PWM_Fail.c **** *
1060:Generated_Source\PSoC4/PWM_Fail.c **** * Parameters:
1061:Generated_Source\PSoC4/PWM_Fail.c **** *  None
1062:Generated_Source\PSoC4/PWM_Fail.c **** *
1063:Generated_Source\PSoC4/PWM_Fail.c **** * Return:
1064:Generated_Source\PSoC4/PWM_Fail.c **** *  Capture buffer value
1065:Generated_Source\PSoC4/PWM_Fail.c **** *
1066:Generated_Source\PSoC4/PWM_Fail.c **** *******************************************************************************/
1067:Generated_Source\PSoC4/PWM_Fail.c **** uint32 PWM_Fail_ReadCaptureBuf(void)
1068:Generated_Source\PSoC4/PWM_Fail.c **** {
 1397              		.loc 1 1068 0
 1398              		.cfi_startproc
 1399              		@ args = 0, pretend = 0, frame = 0
 1400              		@ frame_needed = 1, uses_anonymous_args = 0
 1401 0000 80B5     		push	{r7, lr}
 1402              		.cfi_def_cfa_offset 8
 1403              		.cfi_offset 7, -8
 1404              		.cfi_offset 14, -4
 1405 0002 00AF     		add	r7, sp, #0
 1406              		.cfi_def_cfa_register 7
1069:Generated_Source\PSoC4/PWM_Fail.c ****     return (PWM_Fail_COMP_CAP_BUF_REG & PWM_Fail_16BIT_MASK);
 1407              		.loc 1 1069 0
 1408 0004 034B     		ldr	r3, .L91
 1409 0006 1B68     		ldr	r3, [r3]
 1410 0008 1B04     		lsls	r3, r3, #16
 1411 000a 1B0C     		lsrs	r3, r3, #16
1070:Generated_Source\PSoC4/PWM_Fail.c **** }
 1412              		.loc 1 1070 0
 1413 000c 1800     		movs	r0, r3
 1414 000e BD46     		mov	sp, r7
 1415              		@ sp needed
 1416 0010 80BD     		pop	{r7, pc}
 1417              	.L92:
 1418 0012 C046     		.align	2
 1419              	.L91:
 1420 0014 50010540 		.word	1074069840
 1421              		.cfi_endproc
 1422              	.LFE27:
 1423              		.size	PWM_Fail_ReadCaptureBuf, .-PWM_Fail_ReadCaptureBuf
 1424              		.section	.text.PWM_Fail_SetCaptureMode,"ax",%progbits
 1425              		.align	2
 1426              		.global	PWM_Fail_SetCaptureMode
 1427              		.code	16
 1428              		.thumb_func
 1429              		.type	PWM_Fail_SetCaptureMode, %function
 1430              	PWM_Fail_SetCaptureMode:
 1431              	.LFB28:
1071:Generated_Source\PSoC4/PWM_Fail.c **** 
1072:Generated_Source\PSoC4/PWM_Fail.c **** 
1073:Generated_Source\PSoC4/PWM_Fail.c **** /*******************************************************************************
1074:Generated_Source\PSoC4/PWM_Fail.c **** * Function Name: PWM_Fail_SetCaptureMode
1075:Generated_Source\PSoC4/PWM_Fail.c **** ********************************************************************************
1076:Generated_Source\PSoC4/PWM_Fail.c **** *
1077:Generated_Source\PSoC4/PWM_Fail.c **** * Summary:
ARM GAS  C:\Users\gjl\AppData\Local\Temp\cc8yHSzD.s 			page 45


1078:Generated_Source\PSoC4/PWM_Fail.c **** *  Sets the capture trigger mode. For PWM mode this is the switch input.
1079:Generated_Source\PSoC4/PWM_Fail.c **** *  This input is not applicable to the Timer/Counter without Capture and
1080:Generated_Source\PSoC4/PWM_Fail.c **** *  Quadrature Decoder modes.
1081:Generated_Source\PSoC4/PWM_Fail.c **** *
1082:Generated_Source\PSoC4/PWM_Fail.c **** * Parameters:
1083:Generated_Source\PSoC4/PWM_Fail.c **** *  triggerMode: Enumerated trigger mode value
1084:Generated_Source\PSoC4/PWM_Fail.c **** *   Values:
1085:Generated_Source\PSoC4/PWM_Fail.c **** *     - PWM_Fail_TRIG_LEVEL     - Level
1086:Generated_Source\PSoC4/PWM_Fail.c **** *     - PWM_Fail_TRIG_RISING    - Rising edge
1087:Generated_Source\PSoC4/PWM_Fail.c **** *     - PWM_Fail_TRIG_FALLING   - Falling edge
1088:Generated_Source\PSoC4/PWM_Fail.c **** *     - PWM_Fail_TRIG_BOTH      - Both rising and falling edge
1089:Generated_Source\PSoC4/PWM_Fail.c **** *
1090:Generated_Source\PSoC4/PWM_Fail.c **** * Return:
1091:Generated_Source\PSoC4/PWM_Fail.c **** *  None
1092:Generated_Source\PSoC4/PWM_Fail.c **** *
1093:Generated_Source\PSoC4/PWM_Fail.c **** *******************************************************************************/
1094:Generated_Source\PSoC4/PWM_Fail.c **** void PWM_Fail_SetCaptureMode(uint32 triggerMode)
1095:Generated_Source\PSoC4/PWM_Fail.c **** {
 1432              		.loc 1 1095 0
 1433              		.cfi_startproc
 1434              		@ args = 0, pretend = 0, frame = 16
 1435              		@ frame_needed = 1, uses_anonymous_args = 0
 1436 0000 90B5     		push	{r4, r7, lr}
 1437              		.cfi_def_cfa_offset 12
 1438              		.cfi_offset 4, -12
 1439              		.cfi_offset 7, -8
 1440              		.cfi_offset 14, -4
 1441 0002 85B0     		sub	sp, sp, #20
 1442              		.cfi_def_cfa_offset 32
 1443 0004 00AF     		add	r7, sp, #0
 1444              		.cfi_def_cfa_register 7
 1445 0006 7860     		str	r0, [r7, #4]
1096:Generated_Source\PSoC4/PWM_Fail.c ****     uint8 enableInterrupts;
1097:Generated_Source\PSoC4/PWM_Fail.c **** 
1098:Generated_Source\PSoC4/PWM_Fail.c ****     enableInterrupts = CyEnterCriticalSection();
 1446              		.loc 1 1098 0
 1447 0008 0F23     		movs	r3, #15
 1448 000a FC18     		adds	r4, r7, r3
 1449 000c FFF7FEFF 		bl	CyEnterCriticalSection
 1450 0010 0300     		movs	r3, r0
 1451 0012 2370     		strb	r3, [r4]
1099:Generated_Source\PSoC4/PWM_Fail.c **** 
1100:Generated_Source\PSoC4/PWM_Fail.c ****     PWM_Fail_TRIG_CONTROL1_REG &= (uint32)~PWM_Fail_CAPTURE_MASK;
 1452              		.loc 1 1100 0
 1453 0014 0A4B     		ldr	r3, .L94
 1454 0016 0A4A     		ldr	r2, .L94
 1455 0018 1268     		ldr	r2, [r2]
 1456 001a 0321     		movs	r1, #3
 1457 001c 8A43     		bics	r2, r1
 1458 001e 1A60     		str	r2, [r3]
1101:Generated_Source\PSoC4/PWM_Fail.c ****     PWM_Fail_TRIG_CONTROL1_REG |= triggerMode;
 1459              		.loc 1 1101 0
 1460 0020 074B     		ldr	r3, .L94
 1461 0022 074A     		ldr	r2, .L94
 1462 0024 1168     		ldr	r1, [r2]
 1463 0026 7A68     		ldr	r2, [r7, #4]
 1464 0028 0A43     		orrs	r2, r1
ARM GAS  C:\Users\gjl\AppData\Local\Temp\cc8yHSzD.s 			page 46


 1465 002a 1A60     		str	r2, [r3]
1102:Generated_Source\PSoC4/PWM_Fail.c **** 
1103:Generated_Source\PSoC4/PWM_Fail.c ****     CyExitCriticalSection(enableInterrupts);
 1466              		.loc 1 1103 0
 1467 002c 0F23     		movs	r3, #15
 1468 002e FB18     		adds	r3, r7, r3
 1469 0030 1B78     		ldrb	r3, [r3]
 1470 0032 1800     		movs	r0, r3
 1471 0034 FFF7FEFF 		bl	CyExitCriticalSection
1104:Generated_Source\PSoC4/PWM_Fail.c **** }
 1472              		.loc 1 1104 0
 1473 0038 C046     		nop
 1474 003a BD46     		mov	sp, r7
 1475 003c 05B0     		add	sp, sp, #20
 1476              		@ sp needed
 1477 003e 90BD     		pop	{r4, r7, pc}
 1478              	.L95:
 1479              		.align	2
 1480              	.L94:
 1481 0040 64010540 		.word	1074069860
 1482              		.cfi_endproc
 1483              	.LFE28:
 1484              		.size	PWM_Fail_SetCaptureMode, .-PWM_Fail_SetCaptureMode
 1485              		.section	.text.PWM_Fail_SetReloadMode,"ax",%progbits
 1486              		.align	2
 1487              		.global	PWM_Fail_SetReloadMode
 1488              		.code	16
 1489              		.thumb_func
 1490              		.type	PWM_Fail_SetReloadMode, %function
 1491              	PWM_Fail_SetReloadMode:
 1492              	.LFB29:
1105:Generated_Source\PSoC4/PWM_Fail.c **** 
1106:Generated_Source\PSoC4/PWM_Fail.c **** 
1107:Generated_Source\PSoC4/PWM_Fail.c **** /*******************************************************************************
1108:Generated_Source\PSoC4/PWM_Fail.c **** * Function Name: PWM_Fail_SetReloadMode
1109:Generated_Source\PSoC4/PWM_Fail.c **** ********************************************************************************
1110:Generated_Source\PSoC4/PWM_Fail.c **** *
1111:Generated_Source\PSoC4/PWM_Fail.c **** * Summary:
1112:Generated_Source\PSoC4/PWM_Fail.c **** *  Sets the reload trigger mode. For Quadrature Decoder mode this is the index
1113:Generated_Source\PSoC4/PWM_Fail.c **** *  input.
1114:Generated_Source\PSoC4/PWM_Fail.c **** *
1115:Generated_Source\PSoC4/PWM_Fail.c **** * Parameters:
1116:Generated_Source\PSoC4/PWM_Fail.c **** *  triggerMode: Enumerated trigger mode value
1117:Generated_Source\PSoC4/PWM_Fail.c **** *   Values:
1118:Generated_Source\PSoC4/PWM_Fail.c **** *     - PWM_Fail_TRIG_LEVEL     - Level
1119:Generated_Source\PSoC4/PWM_Fail.c **** *     - PWM_Fail_TRIG_RISING    - Rising edge
1120:Generated_Source\PSoC4/PWM_Fail.c **** *     - PWM_Fail_TRIG_FALLING   - Falling edge
1121:Generated_Source\PSoC4/PWM_Fail.c **** *     - PWM_Fail_TRIG_BOTH      - Both rising and falling edge
1122:Generated_Source\PSoC4/PWM_Fail.c **** *
1123:Generated_Source\PSoC4/PWM_Fail.c **** * Return:
1124:Generated_Source\PSoC4/PWM_Fail.c **** *  None
1125:Generated_Source\PSoC4/PWM_Fail.c **** *
1126:Generated_Source\PSoC4/PWM_Fail.c **** *******************************************************************************/
1127:Generated_Source\PSoC4/PWM_Fail.c **** void PWM_Fail_SetReloadMode(uint32 triggerMode)
1128:Generated_Source\PSoC4/PWM_Fail.c **** {
 1493              		.loc 1 1128 0
 1494              		.cfi_startproc
ARM GAS  C:\Users\gjl\AppData\Local\Temp\cc8yHSzD.s 			page 47


 1495              		@ args = 0, pretend = 0, frame = 16
 1496              		@ frame_needed = 1, uses_anonymous_args = 0
 1497 0000 90B5     		push	{r4, r7, lr}
 1498              		.cfi_def_cfa_offset 12
 1499              		.cfi_offset 4, -12
 1500              		.cfi_offset 7, -8
 1501              		.cfi_offset 14, -4
 1502 0002 85B0     		sub	sp, sp, #20
 1503              		.cfi_def_cfa_offset 32
 1504 0004 00AF     		add	r7, sp, #0
 1505              		.cfi_def_cfa_register 7
 1506 0006 7860     		str	r0, [r7, #4]
1129:Generated_Source\PSoC4/PWM_Fail.c ****     uint8 enableInterrupts;
1130:Generated_Source\PSoC4/PWM_Fail.c **** 
1131:Generated_Source\PSoC4/PWM_Fail.c ****     enableInterrupts = CyEnterCriticalSection();
 1507              		.loc 1 1131 0
 1508 0008 0F23     		movs	r3, #15
 1509 000a FC18     		adds	r4, r7, r3
 1510 000c FFF7FEFF 		bl	CyEnterCriticalSection
 1511 0010 0300     		movs	r3, r0
 1512 0012 2370     		strb	r3, [r4]
1132:Generated_Source\PSoC4/PWM_Fail.c **** 
1133:Generated_Source\PSoC4/PWM_Fail.c ****     PWM_Fail_TRIG_CONTROL1_REG &= (uint32)~PWM_Fail_RELOAD_MASK;
 1513              		.loc 1 1133 0
 1514 0014 0B4B     		ldr	r3, .L97
 1515 0016 0B4A     		ldr	r2, .L97
 1516 0018 1268     		ldr	r2, [r2]
 1517 001a 3021     		movs	r1, #48
 1518 001c 8A43     		bics	r2, r1
 1519 001e 1A60     		str	r2, [r3]
1134:Generated_Source\PSoC4/PWM_Fail.c ****     PWM_Fail_TRIG_CONTROL1_REG |= ((uint32)(triggerMode << PWM_Fail_RELOAD_SHIFT));
 1520              		.loc 1 1134 0
 1521 0020 084B     		ldr	r3, .L97
 1522 0022 084A     		ldr	r2, .L97
 1523 0024 1168     		ldr	r1, [r2]
 1524 0026 7A68     		ldr	r2, [r7, #4]
 1525 0028 1201     		lsls	r2, r2, #4
 1526 002a 0A43     		orrs	r2, r1
 1527 002c 1A60     		str	r2, [r3]
1135:Generated_Source\PSoC4/PWM_Fail.c **** 
1136:Generated_Source\PSoC4/PWM_Fail.c ****     CyExitCriticalSection(enableInterrupts);
 1528              		.loc 1 1136 0
 1529 002e 0F23     		movs	r3, #15
 1530 0030 FB18     		adds	r3, r7, r3
 1531 0032 1B78     		ldrb	r3, [r3]
 1532 0034 1800     		movs	r0, r3
 1533 0036 FFF7FEFF 		bl	CyExitCriticalSection
1137:Generated_Source\PSoC4/PWM_Fail.c **** }
 1534              		.loc 1 1137 0
 1535 003a C046     		nop
 1536 003c BD46     		mov	sp, r7
 1537 003e 05B0     		add	sp, sp, #20
 1538              		@ sp needed
 1539 0040 90BD     		pop	{r4, r7, pc}
 1540              	.L98:
 1541 0042 C046     		.align	2
 1542              	.L97:
ARM GAS  C:\Users\gjl\AppData\Local\Temp\cc8yHSzD.s 			page 48


 1543 0044 64010540 		.word	1074069860
 1544              		.cfi_endproc
 1545              	.LFE29:
 1546              		.size	PWM_Fail_SetReloadMode, .-PWM_Fail_SetReloadMode
 1547              		.section	.text.PWM_Fail_SetStartMode,"ax",%progbits
 1548              		.align	2
 1549              		.global	PWM_Fail_SetStartMode
 1550              		.code	16
 1551              		.thumb_func
 1552              		.type	PWM_Fail_SetStartMode, %function
 1553              	PWM_Fail_SetStartMode:
 1554              	.LFB30:
1138:Generated_Source\PSoC4/PWM_Fail.c **** 
1139:Generated_Source\PSoC4/PWM_Fail.c **** 
1140:Generated_Source\PSoC4/PWM_Fail.c **** /*******************************************************************************
1141:Generated_Source\PSoC4/PWM_Fail.c **** * Function Name: PWM_Fail_SetStartMode
1142:Generated_Source\PSoC4/PWM_Fail.c **** ********************************************************************************
1143:Generated_Source\PSoC4/PWM_Fail.c **** *
1144:Generated_Source\PSoC4/PWM_Fail.c **** * Summary:
1145:Generated_Source\PSoC4/PWM_Fail.c **** *  Sets the start trigger mode. For Quadrature Decoder mode this is the
1146:Generated_Source\PSoC4/PWM_Fail.c **** *  phiB input.
1147:Generated_Source\PSoC4/PWM_Fail.c **** *
1148:Generated_Source\PSoC4/PWM_Fail.c **** * Parameters:
1149:Generated_Source\PSoC4/PWM_Fail.c **** *  triggerMode: Enumerated trigger mode value
1150:Generated_Source\PSoC4/PWM_Fail.c **** *   Values:
1151:Generated_Source\PSoC4/PWM_Fail.c **** *     - PWM_Fail_TRIG_LEVEL     - Level
1152:Generated_Source\PSoC4/PWM_Fail.c **** *     - PWM_Fail_TRIG_RISING    - Rising edge
1153:Generated_Source\PSoC4/PWM_Fail.c **** *     - PWM_Fail_TRIG_FALLING   - Falling edge
1154:Generated_Source\PSoC4/PWM_Fail.c **** *     - PWM_Fail_TRIG_BOTH      - Both rising and falling edge
1155:Generated_Source\PSoC4/PWM_Fail.c **** *
1156:Generated_Source\PSoC4/PWM_Fail.c **** * Return:
1157:Generated_Source\PSoC4/PWM_Fail.c **** *  None
1158:Generated_Source\PSoC4/PWM_Fail.c **** *
1159:Generated_Source\PSoC4/PWM_Fail.c **** *******************************************************************************/
1160:Generated_Source\PSoC4/PWM_Fail.c **** void PWM_Fail_SetStartMode(uint32 triggerMode)
1161:Generated_Source\PSoC4/PWM_Fail.c **** {
 1555              		.loc 1 1161 0
 1556              		.cfi_startproc
 1557              		@ args = 0, pretend = 0, frame = 16
 1558              		@ frame_needed = 1, uses_anonymous_args = 0
 1559 0000 90B5     		push	{r4, r7, lr}
 1560              		.cfi_def_cfa_offset 12
 1561              		.cfi_offset 4, -12
 1562              		.cfi_offset 7, -8
 1563              		.cfi_offset 14, -4
 1564 0002 85B0     		sub	sp, sp, #20
 1565              		.cfi_def_cfa_offset 32
 1566 0004 00AF     		add	r7, sp, #0
 1567              		.cfi_def_cfa_register 7
 1568 0006 7860     		str	r0, [r7, #4]
1162:Generated_Source\PSoC4/PWM_Fail.c ****     uint8 enableInterrupts;
1163:Generated_Source\PSoC4/PWM_Fail.c **** 
1164:Generated_Source\PSoC4/PWM_Fail.c ****     enableInterrupts = CyEnterCriticalSection();
 1569              		.loc 1 1164 0
 1570 0008 0F23     		movs	r3, #15
 1571 000a FC18     		adds	r4, r7, r3
 1572 000c FFF7FEFF 		bl	CyEnterCriticalSection
ARM GAS  C:\Users\gjl\AppData\Local\Temp\cc8yHSzD.s 			page 49


 1573 0010 0300     		movs	r3, r0
 1574 0012 2370     		strb	r3, [r4]
1165:Generated_Source\PSoC4/PWM_Fail.c **** 
1166:Generated_Source\PSoC4/PWM_Fail.c ****     PWM_Fail_TRIG_CONTROL1_REG &= (uint32)~PWM_Fail_START_MASK;
 1575              		.loc 1 1166 0
 1576 0014 0B4B     		ldr	r3, .L100
 1577 0016 0B4A     		ldr	r2, .L100
 1578 0018 1268     		ldr	r2, [r2]
 1579 001a 0B49     		ldr	r1, .L100+4
 1580 001c 0A40     		ands	r2, r1
 1581 001e 1A60     		str	r2, [r3]
1167:Generated_Source\PSoC4/PWM_Fail.c ****     PWM_Fail_TRIG_CONTROL1_REG |= ((uint32)(triggerMode << PWM_Fail_START_SHIFT));
 1582              		.loc 1 1167 0
 1583 0020 084B     		ldr	r3, .L100
 1584 0022 084A     		ldr	r2, .L100
 1585 0024 1168     		ldr	r1, [r2]
 1586 0026 7A68     		ldr	r2, [r7, #4]
 1587 0028 1202     		lsls	r2, r2, #8
 1588 002a 0A43     		orrs	r2, r1
 1589 002c 1A60     		str	r2, [r3]
1168:Generated_Source\PSoC4/PWM_Fail.c **** 
1169:Generated_Source\PSoC4/PWM_Fail.c ****     CyExitCriticalSection(enableInterrupts);
 1590              		.loc 1 1169 0
 1591 002e 0F23     		movs	r3, #15
 1592 0030 FB18     		adds	r3, r7, r3
 1593 0032 1B78     		ldrb	r3, [r3]
 1594 0034 1800     		movs	r0, r3
 1595 0036 FFF7FEFF 		bl	CyExitCriticalSection
1170:Generated_Source\PSoC4/PWM_Fail.c **** }
 1596              		.loc 1 1170 0
 1597 003a C046     		nop
 1598 003c BD46     		mov	sp, r7
 1599 003e 05B0     		add	sp, sp, #20
 1600              		@ sp needed
 1601 0040 90BD     		pop	{r4, r7, pc}
 1602              	.L101:
 1603 0042 C046     		.align	2
 1604              	.L100:
 1605 0044 64010540 		.word	1074069860
 1606 0048 FFFCFFFF 		.word	-769
 1607              		.cfi_endproc
 1608              	.LFE30:
 1609              		.size	PWM_Fail_SetStartMode, .-PWM_Fail_SetStartMode
 1610              		.section	.text.PWM_Fail_SetStopMode,"ax",%progbits
 1611              		.align	2
 1612              		.global	PWM_Fail_SetStopMode
 1613              		.code	16
 1614              		.thumb_func
 1615              		.type	PWM_Fail_SetStopMode, %function
 1616              	PWM_Fail_SetStopMode:
 1617              	.LFB31:
1171:Generated_Source\PSoC4/PWM_Fail.c **** 
1172:Generated_Source\PSoC4/PWM_Fail.c **** 
1173:Generated_Source\PSoC4/PWM_Fail.c **** /*******************************************************************************
1174:Generated_Source\PSoC4/PWM_Fail.c **** * Function Name: PWM_Fail_SetStopMode
1175:Generated_Source\PSoC4/PWM_Fail.c **** ********************************************************************************
1176:Generated_Source\PSoC4/PWM_Fail.c **** *
ARM GAS  C:\Users\gjl\AppData\Local\Temp\cc8yHSzD.s 			page 50


1177:Generated_Source\PSoC4/PWM_Fail.c **** * Summary:
1178:Generated_Source\PSoC4/PWM_Fail.c **** *  Sets the stop trigger mode. For PWM mode this is the kill input.
1179:Generated_Source\PSoC4/PWM_Fail.c **** *
1180:Generated_Source\PSoC4/PWM_Fail.c **** * Parameters:
1181:Generated_Source\PSoC4/PWM_Fail.c **** *  triggerMode: Enumerated trigger mode value
1182:Generated_Source\PSoC4/PWM_Fail.c **** *   Values:
1183:Generated_Source\PSoC4/PWM_Fail.c **** *     - PWM_Fail_TRIG_LEVEL     - Level
1184:Generated_Source\PSoC4/PWM_Fail.c **** *     - PWM_Fail_TRIG_RISING    - Rising edge
1185:Generated_Source\PSoC4/PWM_Fail.c **** *     - PWM_Fail_TRIG_FALLING   - Falling edge
1186:Generated_Source\PSoC4/PWM_Fail.c **** *     - PWM_Fail_TRIG_BOTH      - Both rising and falling edge
1187:Generated_Source\PSoC4/PWM_Fail.c **** *
1188:Generated_Source\PSoC4/PWM_Fail.c **** * Return:
1189:Generated_Source\PSoC4/PWM_Fail.c **** *  None
1190:Generated_Source\PSoC4/PWM_Fail.c **** *
1191:Generated_Source\PSoC4/PWM_Fail.c **** *******************************************************************************/
1192:Generated_Source\PSoC4/PWM_Fail.c **** void PWM_Fail_SetStopMode(uint32 triggerMode)
1193:Generated_Source\PSoC4/PWM_Fail.c **** {
 1618              		.loc 1 1193 0
 1619              		.cfi_startproc
 1620              		@ args = 0, pretend = 0, frame = 16
 1621              		@ frame_needed = 1, uses_anonymous_args = 0
 1622 0000 90B5     		push	{r4, r7, lr}
 1623              		.cfi_def_cfa_offset 12
 1624              		.cfi_offset 4, -12
 1625              		.cfi_offset 7, -8
 1626              		.cfi_offset 14, -4
 1627 0002 85B0     		sub	sp, sp, #20
 1628              		.cfi_def_cfa_offset 32
 1629 0004 00AF     		add	r7, sp, #0
 1630              		.cfi_def_cfa_register 7
 1631 0006 7860     		str	r0, [r7, #4]
1194:Generated_Source\PSoC4/PWM_Fail.c ****     uint8 enableInterrupts;
1195:Generated_Source\PSoC4/PWM_Fail.c **** 
1196:Generated_Source\PSoC4/PWM_Fail.c ****     enableInterrupts = CyEnterCriticalSection();
 1632              		.loc 1 1196 0
 1633 0008 0F23     		movs	r3, #15
 1634 000a FC18     		adds	r4, r7, r3
 1635 000c FFF7FEFF 		bl	CyEnterCriticalSection
 1636 0010 0300     		movs	r3, r0
 1637 0012 2370     		strb	r3, [r4]
1197:Generated_Source\PSoC4/PWM_Fail.c **** 
1198:Generated_Source\PSoC4/PWM_Fail.c ****     PWM_Fail_TRIG_CONTROL1_REG &= (uint32)~PWM_Fail_STOP_MASK;
 1638              		.loc 1 1198 0
 1639 0014 0B4B     		ldr	r3, .L103
 1640 0016 0B4A     		ldr	r2, .L103
 1641 0018 1268     		ldr	r2, [r2]
 1642 001a C021     		movs	r1, #192
 1643 001c 8A43     		bics	r2, r1
 1644 001e 1A60     		str	r2, [r3]
1199:Generated_Source\PSoC4/PWM_Fail.c ****     PWM_Fail_TRIG_CONTROL1_REG |= ((uint32)(triggerMode << PWM_Fail_STOP_SHIFT));
 1645              		.loc 1 1199 0
 1646 0020 084B     		ldr	r3, .L103
 1647 0022 084A     		ldr	r2, .L103
 1648 0024 1168     		ldr	r1, [r2]
 1649 0026 7A68     		ldr	r2, [r7, #4]
 1650 0028 9201     		lsls	r2, r2, #6
 1651 002a 0A43     		orrs	r2, r1
ARM GAS  C:\Users\gjl\AppData\Local\Temp\cc8yHSzD.s 			page 51


 1652 002c 1A60     		str	r2, [r3]
1200:Generated_Source\PSoC4/PWM_Fail.c **** 
1201:Generated_Source\PSoC4/PWM_Fail.c ****     CyExitCriticalSection(enableInterrupts);
 1653              		.loc 1 1201 0
 1654 002e 0F23     		movs	r3, #15
 1655 0030 FB18     		adds	r3, r7, r3
 1656 0032 1B78     		ldrb	r3, [r3]
 1657 0034 1800     		movs	r0, r3
 1658 0036 FFF7FEFF 		bl	CyExitCriticalSection
1202:Generated_Source\PSoC4/PWM_Fail.c **** }
 1659              		.loc 1 1202 0
 1660 003a C046     		nop
 1661 003c BD46     		mov	sp, r7
 1662 003e 05B0     		add	sp, sp, #20
 1663              		@ sp needed
 1664 0040 90BD     		pop	{r4, r7, pc}
 1665              	.L104:
 1666 0042 C046     		.align	2
 1667              	.L103:
 1668 0044 64010540 		.word	1074069860
 1669              		.cfi_endproc
 1670              	.LFE31:
 1671              		.size	PWM_Fail_SetStopMode, .-PWM_Fail_SetStopMode
 1672              		.section	.text.PWM_Fail_SetCountMode,"ax",%progbits
 1673              		.align	2
 1674              		.global	PWM_Fail_SetCountMode
 1675              		.code	16
 1676              		.thumb_func
 1677              		.type	PWM_Fail_SetCountMode, %function
 1678              	PWM_Fail_SetCountMode:
 1679              	.LFB32:
1203:Generated_Source\PSoC4/PWM_Fail.c **** 
1204:Generated_Source\PSoC4/PWM_Fail.c **** 
1205:Generated_Source\PSoC4/PWM_Fail.c **** /*******************************************************************************
1206:Generated_Source\PSoC4/PWM_Fail.c **** * Function Name: PWM_Fail_SetCountMode
1207:Generated_Source\PSoC4/PWM_Fail.c **** ********************************************************************************
1208:Generated_Source\PSoC4/PWM_Fail.c **** *
1209:Generated_Source\PSoC4/PWM_Fail.c **** * Summary:
1210:Generated_Source\PSoC4/PWM_Fail.c **** *  Sets the count trigger mode. For Quadrature Decoder mode this is the phiA
1211:Generated_Source\PSoC4/PWM_Fail.c **** *  input.
1212:Generated_Source\PSoC4/PWM_Fail.c **** *
1213:Generated_Source\PSoC4/PWM_Fail.c **** * Parameters:
1214:Generated_Source\PSoC4/PWM_Fail.c **** *  triggerMode: Enumerated trigger mode value
1215:Generated_Source\PSoC4/PWM_Fail.c **** *   Values:
1216:Generated_Source\PSoC4/PWM_Fail.c **** *     - PWM_Fail_TRIG_LEVEL     - Level
1217:Generated_Source\PSoC4/PWM_Fail.c **** *     - PWM_Fail_TRIG_RISING    - Rising edge
1218:Generated_Source\PSoC4/PWM_Fail.c **** *     - PWM_Fail_TRIG_FALLING   - Falling edge
1219:Generated_Source\PSoC4/PWM_Fail.c **** *     - PWM_Fail_TRIG_BOTH      - Both rising and falling edge
1220:Generated_Source\PSoC4/PWM_Fail.c **** *
1221:Generated_Source\PSoC4/PWM_Fail.c **** * Return:
1222:Generated_Source\PSoC4/PWM_Fail.c **** *  None
1223:Generated_Source\PSoC4/PWM_Fail.c **** *
1224:Generated_Source\PSoC4/PWM_Fail.c **** *******************************************************************************/
1225:Generated_Source\PSoC4/PWM_Fail.c **** void PWM_Fail_SetCountMode(uint32 triggerMode)
1226:Generated_Source\PSoC4/PWM_Fail.c **** {
 1680              		.loc 1 1226 0
 1681              		.cfi_startproc
ARM GAS  C:\Users\gjl\AppData\Local\Temp\cc8yHSzD.s 			page 52


 1682              		@ args = 0, pretend = 0, frame = 16
 1683              		@ frame_needed = 1, uses_anonymous_args = 0
 1684 0000 90B5     		push	{r4, r7, lr}
 1685              		.cfi_def_cfa_offset 12
 1686              		.cfi_offset 4, -12
 1687              		.cfi_offset 7, -8
 1688              		.cfi_offset 14, -4
 1689 0002 85B0     		sub	sp, sp, #20
 1690              		.cfi_def_cfa_offset 32
 1691 0004 00AF     		add	r7, sp, #0
 1692              		.cfi_def_cfa_register 7
 1693 0006 7860     		str	r0, [r7, #4]
1227:Generated_Source\PSoC4/PWM_Fail.c ****     uint8 enableInterrupts;
1228:Generated_Source\PSoC4/PWM_Fail.c **** 
1229:Generated_Source\PSoC4/PWM_Fail.c ****     enableInterrupts = CyEnterCriticalSection();
 1694              		.loc 1 1229 0
 1695 0008 0F23     		movs	r3, #15
 1696 000a FC18     		adds	r4, r7, r3
 1697 000c FFF7FEFF 		bl	CyEnterCriticalSection
 1698 0010 0300     		movs	r3, r0
 1699 0012 2370     		strb	r3, [r4]
1230:Generated_Source\PSoC4/PWM_Fail.c **** 
1231:Generated_Source\PSoC4/PWM_Fail.c ****     PWM_Fail_TRIG_CONTROL1_REG &= (uint32)~PWM_Fail_COUNT_MASK;
 1700              		.loc 1 1231 0
 1701 0014 0B4B     		ldr	r3, .L106
 1702 0016 0B4A     		ldr	r2, .L106
 1703 0018 1268     		ldr	r2, [r2]
 1704 001a 0C21     		movs	r1, #12
 1705 001c 8A43     		bics	r2, r1
 1706 001e 1A60     		str	r2, [r3]
1232:Generated_Source\PSoC4/PWM_Fail.c ****     PWM_Fail_TRIG_CONTROL1_REG |= ((uint32)(triggerMode << PWM_Fail_COUNT_SHIFT));
 1707              		.loc 1 1232 0
 1708 0020 084B     		ldr	r3, .L106
 1709 0022 084A     		ldr	r2, .L106
 1710 0024 1168     		ldr	r1, [r2]
 1711 0026 7A68     		ldr	r2, [r7, #4]
 1712 0028 9200     		lsls	r2, r2, #2
 1713 002a 0A43     		orrs	r2, r1
 1714 002c 1A60     		str	r2, [r3]
1233:Generated_Source\PSoC4/PWM_Fail.c **** 
1234:Generated_Source\PSoC4/PWM_Fail.c ****     CyExitCriticalSection(enableInterrupts);
 1715              		.loc 1 1234 0
 1716 002e 0F23     		movs	r3, #15
 1717 0030 FB18     		adds	r3, r7, r3
 1718 0032 1B78     		ldrb	r3, [r3]
 1719 0034 1800     		movs	r0, r3
 1720 0036 FFF7FEFF 		bl	CyExitCriticalSection
1235:Generated_Source\PSoC4/PWM_Fail.c **** }
 1721              		.loc 1 1235 0
 1722 003a C046     		nop
 1723 003c BD46     		mov	sp, r7
 1724 003e 05B0     		add	sp, sp, #20
 1725              		@ sp needed
 1726 0040 90BD     		pop	{r4, r7, pc}
 1727              	.L107:
 1728 0042 C046     		.align	2
 1729              	.L106:
ARM GAS  C:\Users\gjl\AppData\Local\Temp\cc8yHSzD.s 			page 53


 1730 0044 64010540 		.word	1074069860
 1731              		.cfi_endproc
 1732              	.LFE32:
 1733              		.size	PWM_Fail_SetCountMode, .-PWM_Fail_SetCountMode
 1734              		.section	.text.PWM_Fail_TriggerCommand,"ax",%progbits
 1735              		.align	2
 1736              		.global	PWM_Fail_TriggerCommand
 1737              		.code	16
 1738              		.thumb_func
 1739              		.type	PWM_Fail_TriggerCommand, %function
 1740              	PWM_Fail_TriggerCommand:
 1741              	.LFB33:
1236:Generated_Source\PSoC4/PWM_Fail.c **** 
1237:Generated_Source\PSoC4/PWM_Fail.c **** 
1238:Generated_Source\PSoC4/PWM_Fail.c **** /*******************************************************************************
1239:Generated_Source\PSoC4/PWM_Fail.c **** * Function Name: PWM_Fail_TriggerCommand
1240:Generated_Source\PSoC4/PWM_Fail.c **** ********************************************************************************
1241:Generated_Source\PSoC4/PWM_Fail.c **** *
1242:Generated_Source\PSoC4/PWM_Fail.c **** * Summary:
1243:Generated_Source\PSoC4/PWM_Fail.c **** *  Triggers the designated command to occur on the designated TCPWM instances.
1244:Generated_Source\PSoC4/PWM_Fail.c **** *  The mask can be used to apply this command simultaneously to more than one
1245:Generated_Source\PSoC4/PWM_Fail.c **** *  instance.  This allows multiple TCPWM instances to be synchronized.
1246:Generated_Source\PSoC4/PWM_Fail.c **** *
1247:Generated_Source\PSoC4/PWM_Fail.c **** * Parameters:
1248:Generated_Source\PSoC4/PWM_Fail.c **** *  mask: A combination of mask bits for each instance of the TCPWM that the
1249:Generated_Source\PSoC4/PWM_Fail.c **** *        command should apply to.  This function from one instance can be used
1250:Generated_Source\PSoC4/PWM_Fail.c **** *        to apply the command to any of the instances in the design.
1251:Generated_Source\PSoC4/PWM_Fail.c **** *        The mask value for a specific instance is available with the MASK
1252:Generated_Source\PSoC4/PWM_Fail.c **** *        define.
1253:Generated_Source\PSoC4/PWM_Fail.c **** *  command: Enumerated command values. Capture command only applicable for
1254:Generated_Source\PSoC4/PWM_Fail.c **** *           Timer/Counter with Capture and PWM modes.
1255:Generated_Source\PSoC4/PWM_Fail.c **** *   Values:
1256:Generated_Source\PSoC4/PWM_Fail.c **** *     - PWM_Fail_CMD_CAPTURE    - Trigger Capture/Switch command
1257:Generated_Source\PSoC4/PWM_Fail.c **** *     - PWM_Fail_CMD_RELOAD     - Trigger Reload/Index command
1258:Generated_Source\PSoC4/PWM_Fail.c **** *     - PWM_Fail_CMD_STOP       - Trigger Stop/Kill command
1259:Generated_Source\PSoC4/PWM_Fail.c **** *     - PWM_Fail_CMD_START      - Trigger Start/phiB command
1260:Generated_Source\PSoC4/PWM_Fail.c **** *
1261:Generated_Source\PSoC4/PWM_Fail.c **** * Return:
1262:Generated_Source\PSoC4/PWM_Fail.c **** *  None
1263:Generated_Source\PSoC4/PWM_Fail.c **** *
1264:Generated_Source\PSoC4/PWM_Fail.c **** *******************************************************************************/
1265:Generated_Source\PSoC4/PWM_Fail.c **** void PWM_Fail_TriggerCommand(uint32 mask, uint32 command)
1266:Generated_Source\PSoC4/PWM_Fail.c **** {
 1742              		.loc 1 1266 0
 1743              		.cfi_startproc
 1744              		@ args = 0, pretend = 0, frame = 16
 1745              		@ frame_needed = 1, uses_anonymous_args = 0
 1746 0000 90B5     		push	{r4, r7, lr}
 1747              		.cfi_def_cfa_offset 12
 1748              		.cfi_offset 4, -12
 1749              		.cfi_offset 7, -8
 1750              		.cfi_offset 14, -4
 1751 0002 85B0     		sub	sp, sp, #20
 1752              		.cfi_def_cfa_offset 32
 1753 0004 00AF     		add	r7, sp, #0
 1754              		.cfi_def_cfa_register 7
 1755 0006 7860     		str	r0, [r7, #4]
ARM GAS  C:\Users\gjl\AppData\Local\Temp\cc8yHSzD.s 			page 54


 1756 0008 3960     		str	r1, [r7]
1267:Generated_Source\PSoC4/PWM_Fail.c ****     uint8 enableInterrupts;
1268:Generated_Source\PSoC4/PWM_Fail.c **** 
1269:Generated_Source\PSoC4/PWM_Fail.c ****     enableInterrupts = CyEnterCriticalSection();
 1757              		.loc 1 1269 0
 1758 000a 0F23     		movs	r3, #15
 1759 000c FC18     		adds	r4, r7, r3
 1760 000e FFF7FEFF 		bl	CyEnterCriticalSection
 1761 0012 0300     		movs	r3, r0
 1762 0014 2370     		strb	r3, [r4]
1270:Generated_Source\PSoC4/PWM_Fail.c **** 
1271:Generated_Source\PSoC4/PWM_Fail.c ****     PWM_Fail_COMMAND_REG = ((uint32)(mask << command));
 1763              		.loc 1 1271 0
 1764 0016 084B     		ldr	r3, .L109
 1765 0018 7968     		ldr	r1, [r7, #4]
 1766 001a 3A68     		ldr	r2, [r7]
 1767 001c 9140     		lsls	r1, r1, r2
 1768 001e 0A00     		movs	r2, r1
 1769 0020 1A60     		str	r2, [r3]
1272:Generated_Source\PSoC4/PWM_Fail.c **** 
1273:Generated_Source\PSoC4/PWM_Fail.c ****     CyExitCriticalSection(enableInterrupts);
 1770              		.loc 1 1273 0
 1771 0022 0F23     		movs	r3, #15
 1772 0024 FB18     		adds	r3, r7, r3
 1773 0026 1B78     		ldrb	r3, [r3]
 1774 0028 1800     		movs	r0, r3
 1775 002a FFF7FEFF 		bl	CyExitCriticalSection
1274:Generated_Source\PSoC4/PWM_Fail.c **** }
 1776              		.loc 1 1274 0
 1777 002e C046     		nop
 1778 0030 BD46     		mov	sp, r7
 1779 0032 05B0     		add	sp, sp, #20
 1780              		@ sp needed
 1781 0034 90BD     		pop	{r4, r7, pc}
 1782              	.L110:
 1783 0036 C046     		.align	2
 1784              	.L109:
 1785 0038 08000540 		.word	1074069512
 1786              		.cfi_endproc
 1787              	.LFE33:
 1788              		.size	PWM_Fail_TriggerCommand, .-PWM_Fail_TriggerCommand
 1789              		.section	.text.PWM_Fail_ReadStatus,"ax",%progbits
 1790              		.align	2
 1791              		.global	PWM_Fail_ReadStatus
 1792              		.code	16
 1793              		.thumb_func
 1794              		.type	PWM_Fail_ReadStatus, %function
 1795              	PWM_Fail_ReadStatus:
 1796              	.LFB34:
1275:Generated_Source\PSoC4/PWM_Fail.c **** 
1276:Generated_Source\PSoC4/PWM_Fail.c **** 
1277:Generated_Source\PSoC4/PWM_Fail.c **** /*******************************************************************************
1278:Generated_Source\PSoC4/PWM_Fail.c **** * Function Name: PWM_Fail_ReadStatus
1279:Generated_Source\PSoC4/PWM_Fail.c **** ********************************************************************************
1280:Generated_Source\PSoC4/PWM_Fail.c **** *
1281:Generated_Source\PSoC4/PWM_Fail.c **** * Summary:
1282:Generated_Source\PSoC4/PWM_Fail.c **** *  Reads the status of the PWM_Fail.
ARM GAS  C:\Users\gjl\AppData\Local\Temp\cc8yHSzD.s 			page 55


1283:Generated_Source\PSoC4/PWM_Fail.c **** *
1284:Generated_Source\PSoC4/PWM_Fail.c **** * Parameters:
1285:Generated_Source\PSoC4/PWM_Fail.c **** *  None
1286:Generated_Source\PSoC4/PWM_Fail.c **** *
1287:Generated_Source\PSoC4/PWM_Fail.c **** * Return:
1288:Generated_Source\PSoC4/PWM_Fail.c **** *  Status
1289:Generated_Source\PSoC4/PWM_Fail.c **** *   Values:
1290:Generated_Source\PSoC4/PWM_Fail.c **** *     - PWM_Fail_STATUS_DOWN    - Set if counting down
1291:Generated_Source\PSoC4/PWM_Fail.c **** *     - PWM_Fail_STATUS_RUNNING - Set if counter is running
1292:Generated_Source\PSoC4/PWM_Fail.c **** *
1293:Generated_Source\PSoC4/PWM_Fail.c **** *******************************************************************************/
1294:Generated_Source\PSoC4/PWM_Fail.c **** uint32 PWM_Fail_ReadStatus(void)
1295:Generated_Source\PSoC4/PWM_Fail.c **** {
 1797              		.loc 1 1295 0
 1798              		.cfi_startproc
 1799              		@ args = 0, pretend = 0, frame = 0
 1800              		@ frame_needed = 1, uses_anonymous_args = 0
 1801 0000 80B5     		push	{r7, lr}
 1802              		.cfi_def_cfa_offset 8
 1803              		.cfi_offset 7, -8
 1804              		.cfi_offset 14, -4
 1805 0002 00AF     		add	r7, sp, #0
 1806              		.cfi_def_cfa_register 7
1296:Generated_Source\PSoC4/PWM_Fail.c ****     return ((PWM_Fail_STATUS_REG >> PWM_Fail_RUNNING_STATUS_SHIFT) |
 1807              		.loc 1 1296 0
 1808 0004 054B     		ldr	r3, .L113
 1809 0006 1B68     		ldr	r3, [r3]
 1810 0008 9A0F     		lsrs	r2, r3, #30
1297:Generated_Source\PSoC4/PWM_Fail.c ****             (PWM_Fail_STATUS_REG & PWM_Fail_STATUS_DOWN));
 1811              		.loc 1 1297 0
 1812 000a 044B     		ldr	r3, .L113
 1813 000c 1B68     		ldr	r3, [r3]
 1814 000e 0121     		movs	r1, #1
 1815 0010 0B40     		ands	r3, r1
1296:Generated_Source\PSoC4/PWM_Fail.c ****     return ((PWM_Fail_STATUS_REG >> PWM_Fail_RUNNING_STATUS_SHIFT) |
 1816              		.loc 1 1296 0
 1817 0012 1343     		orrs	r3, r2
1298:Generated_Source\PSoC4/PWM_Fail.c **** }
 1818              		.loc 1 1298 0
 1819 0014 1800     		movs	r0, r3
 1820 0016 BD46     		mov	sp, r7
 1821              		@ sp needed
 1822 0018 80BD     		pop	{r7, pc}
 1823              	.L114:
 1824 001a C046     		.align	2
 1825              	.L113:
 1826 001c 44010540 		.word	1074069828
 1827              		.cfi_endproc
 1828              	.LFE34:
 1829              		.size	PWM_Fail_ReadStatus, .-PWM_Fail_ReadStatus
 1830              		.section	.text.PWM_Fail_SetInterruptMode,"ax",%progbits
 1831              		.align	2
 1832              		.global	PWM_Fail_SetInterruptMode
 1833              		.code	16
 1834              		.thumb_func
 1835              		.type	PWM_Fail_SetInterruptMode, %function
 1836              	PWM_Fail_SetInterruptMode:
ARM GAS  C:\Users\gjl\AppData\Local\Temp\cc8yHSzD.s 			page 56


 1837              	.LFB35:
1299:Generated_Source\PSoC4/PWM_Fail.c **** 
1300:Generated_Source\PSoC4/PWM_Fail.c **** 
1301:Generated_Source\PSoC4/PWM_Fail.c **** /*******************************************************************************
1302:Generated_Source\PSoC4/PWM_Fail.c **** * Function Name: PWM_Fail_SetInterruptMode
1303:Generated_Source\PSoC4/PWM_Fail.c **** ********************************************************************************
1304:Generated_Source\PSoC4/PWM_Fail.c **** *
1305:Generated_Source\PSoC4/PWM_Fail.c **** * Summary:
1306:Generated_Source\PSoC4/PWM_Fail.c **** *  Sets the interrupt mask to control which interrupt
1307:Generated_Source\PSoC4/PWM_Fail.c **** *  requests generate the interrupt signal.
1308:Generated_Source\PSoC4/PWM_Fail.c **** *
1309:Generated_Source\PSoC4/PWM_Fail.c **** * Parameters:
1310:Generated_Source\PSoC4/PWM_Fail.c **** *   interruptMask: Mask of bits to be enabled
1311:Generated_Source\PSoC4/PWM_Fail.c **** *   Values:
1312:Generated_Source\PSoC4/PWM_Fail.c **** *     - PWM_Fail_INTR_MASK_TC       - Terminal count mask
1313:Generated_Source\PSoC4/PWM_Fail.c **** *     - PWM_Fail_INTR_MASK_CC_MATCH - Compare count / capture mask
1314:Generated_Source\PSoC4/PWM_Fail.c **** *
1315:Generated_Source\PSoC4/PWM_Fail.c **** * Return:
1316:Generated_Source\PSoC4/PWM_Fail.c **** *  None
1317:Generated_Source\PSoC4/PWM_Fail.c **** *
1318:Generated_Source\PSoC4/PWM_Fail.c **** *******************************************************************************/
1319:Generated_Source\PSoC4/PWM_Fail.c **** void PWM_Fail_SetInterruptMode(uint32 interruptMask)
1320:Generated_Source\PSoC4/PWM_Fail.c **** {
 1838              		.loc 1 1320 0
 1839              		.cfi_startproc
 1840              		@ args = 0, pretend = 0, frame = 8
 1841              		@ frame_needed = 1, uses_anonymous_args = 0
 1842 0000 80B5     		push	{r7, lr}
 1843              		.cfi_def_cfa_offset 8
 1844              		.cfi_offset 7, -8
 1845              		.cfi_offset 14, -4
 1846 0002 82B0     		sub	sp, sp, #8
 1847              		.cfi_def_cfa_offset 16
 1848 0004 00AF     		add	r7, sp, #0
 1849              		.cfi_def_cfa_register 7
 1850 0006 7860     		str	r0, [r7, #4]
1321:Generated_Source\PSoC4/PWM_Fail.c ****     PWM_Fail_INTERRUPT_MASK_REG =  interruptMask;
 1851              		.loc 1 1321 0
 1852 0008 034B     		ldr	r3, .L116
 1853 000a 7A68     		ldr	r2, [r7, #4]
 1854 000c 1A60     		str	r2, [r3]
1322:Generated_Source\PSoC4/PWM_Fail.c **** }
 1855              		.loc 1 1322 0
 1856 000e C046     		nop
 1857 0010 BD46     		mov	sp, r7
 1858 0012 02B0     		add	sp, sp, #8
 1859              		@ sp needed
 1860 0014 80BD     		pop	{r7, pc}
 1861              	.L117:
 1862 0016 C046     		.align	2
 1863              	.L116:
 1864 0018 78010540 		.word	1074069880
 1865              		.cfi_endproc
 1866              	.LFE35:
 1867              		.size	PWM_Fail_SetInterruptMode, .-PWM_Fail_SetInterruptMode
 1868              		.section	.text.PWM_Fail_GetInterruptSourceMasked,"ax",%progbits
 1869              		.align	2
ARM GAS  C:\Users\gjl\AppData\Local\Temp\cc8yHSzD.s 			page 57


 1870              		.global	PWM_Fail_GetInterruptSourceMasked
 1871              		.code	16
 1872              		.thumb_func
 1873              		.type	PWM_Fail_GetInterruptSourceMasked, %function
 1874              	PWM_Fail_GetInterruptSourceMasked:
 1875              	.LFB36:
1323:Generated_Source\PSoC4/PWM_Fail.c **** 
1324:Generated_Source\PSoC4/PWM_Fail.c **** 
1325:Generated_Source\PSoC4/PWM_Fail.c **** /*******************************************************************************
1326:Generated_Source\PSoC4/PWM_Fail.c **** * Function Name: PWM_Fail_GetInterruptSourceMasked
1327:Generated_Source\PSoC4/PWM_Fail.c **** ********************************************************************************
1328:Generated_Source\PSoC4/PWM_Fail.c **** *
1329:Generated_Source\PSoC4/PWM_Fail.c **** * Summary:
1330:Generated_Source\PSoC4/PWM_Fail.c **** *  Gets the interrupt requests masked by the interrupt mask.
1331:Generated_Source\PSoC4/PWM_Fail.c **** *
1332:Generated_Source\PSoC4/PWM_Fail.c **** * Parameters:
1333:Generated_Source\PSoC4/PWM_Fail.c **** *   None
1334:Generated_Source\PSoC4/PWM_Fail.c **** *
1335:Generated_Source\PSoC4/PWM_Fail.c **** * Return:
1336:Generated_Source\PSoC4/PWM_Fail.c **** *  Masked interrupt source
1337:Generated_Source\PSoC4/PWM_Fail.c **** *   Values:
1338:Generated_Source\PSoC4/PWM_Fail.c **** *     - PWM_Fail_INTR_MASK_TC       - Terminal count mask
1339:Generated_Source\PSoC4/PWM_Fail.c **** *     - PWM_Fail_INTR_MASK_CC_MATCH - Compare count / capture mask
1340:Generated_Source\PSoC4/PWM_Fail.c **** *
1341:Generated_Source\PSoC4/PWM_Fail.c **** *******************************************************************************/
1342:Generated_Source\PSoC4/PWM_Fail.c **** uint32 PWM_Fail_GetInterruptSourceMasked(void)
1343:Generated_Source\PSoC4/PWM_Fail.c **** {
 1876              		.loc 1 1343 0
 1877              		.cfi_startproc
 1878              		@ args = 0, pretend = 0, frame = 0
 1879              		@ frame_needed = 1, uses_anonymous_args = 0
 1880 0000 80B5     		push	{r7, lr}
 1881              		.cfi_def_cfa_offset 8
 1882              		.cfi_offset 7, -8
 1883              		.cfi_offset 14, -4
 1884 0002 00AF     		add	r7, sp, #0
 1885              		.cfi_def_cfa_register 7
1344:Generated_Source\PSoC4/PWM_Fail.c ****     return (PWM_Fail_INTERRUPT_MASKED_REG);
 1886              		.loc 1 1344 0
 1887 0004 024B     		ldr	r3, .L120
 1888 0006 1B68     		ldr	r3, [r3]
1345:Generated_Source\PSoC4/PWM_Fail.c **** }
 1889              		.loc 1 1345 0
 1890 0008 1800     		movs	r0, r3
 1891 000a BD46     		mov	sp, r7
 1892              		@ sp needed
 1893 000c 80BD     		pop	{r7, pc}
 1894              	.L121:
 1895 000e C046     		.align	2
 1896              	.L120:
 1897 0010 7C010540 		.word	1074069884
 1898              		.cfi_endproc
 1899              	.LFE36:
 1900              		.size	PWM_Fail_GetInterruptSourceMasked, .-PWM_Fail_GetInterruptSourceMasked
 1901              		.section	.text.PWM_Fail_GetInterruptSource,"ax",%progbits
 1902              		.align	2
 1903              		.global	PWM_Fail_GetInterruptSource
ARM GAS  C:\Users\gjl\AppData\Local\Temp\cc8yHSzD.s 			page 58


 1904              		.code	16
 1905              		.thumb_func
 1906              		.type	PWM_Fail_GetInterruptSource, %function
 1907              	PWM_Fail_GetInterruptSource:
 1908              	.LFB37:
1346:Generated_Source\PSoC4/PWM_Fail.c **** 
1347:Generated_Source\PSoC4/PWM_Fail.c **** 
1348:Generated_Source\PSoC4/PWM_Fail.c **** /*******************************************************************************
1349:Generated_Source\PSoC4/PWM_Fail.c **** * Function Name: PWM_Fail_GetInterruptSource
1350:Generated_Source\PSoC4/PWM_Fail.c **** ********************************************************************************
1351:Generated_Source\PSoC4/PWM_Fail.c **** *
1352:Generated_Source\PSoC4/PWM_Fail.c **** * Summary:
1353:Generated_Source\PSoC4/PWM_Fail.c **** *  Gets the interrupt requests (without masking).
1354:Generated_Source\PSoC4/PWM_Fail.c **** *
1355:Generated_Source\PSoC4/PWM_Fail.c **** * Parameters:
1356:Generated_Source\PSoC4/PWM_Fail.c **** *  None
1357:Generated_Source\PSoC4/PWM_Fail.c **** *
1358:Generated_Source\PSoC4/PWM_Fail.c **** * Return:
1359:Generated_Source\PSoC4/PWM_Fail.c **** *  Interrupt request value
1360:Generated_Source\PSoC4/PWM_Fail.c **** *   Values:
1361:Generated_Source\PSoC4/PWM_Fail.c **** *     - PWM_Fail_INTR_MASK_TC       - Terminal count mask
1362:Generated_Source\PSoC4/PWM_Fail.c **** *     - PWM_Fail_INTR_MASK_CC_MATCH - Compare count / capture mask
1363:Generated_Source\PSoC4/PWM_Fail.c **** *
1364:Generated_Source\PSoC4/PWM_Fail.c **** *******************************************************************************/
1365:Generated_Source\PSoC4/PWM_Fail.c **** uint32 PWM_Fail_GetInterruptSource(void)
1366:Generated_Source\PSoC4/PWM_Fail.c **** {
 1909              		.loc 1 1366 0
 1910              		.cfi_startproc
 1911              		@ args = 0, pretend = 0, frame = 0
 1912              		@ frame_needed = 1, uses_anonymous_args = 0
 1913 0000 80B5     		push	{r7, lr}
 1914              		.cfi_def_cfa_offset 8
 1915              		.cfi_offset 7, -8
 1916              		.cfi_offset 14, -4
 1917 0002 00AF     		add	r7, sp, #0
 1918              		.cfi_def_cfa_register 7
1367:Generated_Source\PSoC4/PWM_Fail.c ****     return (PWM_Fail_INTERRUPT_REQ_REG);
 1919              		.loc 1 1367 0
 1920 0004 024B     		ldr	r3, .L124
 1921 0006 1B68     		ldr	r3, [r3]
1368:Generated_Source\PSoC4/PWM_Fail.c **** }
 1922              		.loc 1 1368 0
 1923 0008 1800     		movs	r0, r3
 1924 000a BD46     		mov	sp, r7
 1925              		@ sp needed
 1926 000c 80BD     		pop	{r7, pc}
 1927              	.L125:
 1928 000e C046     		.align	2
 1929              	.L124:
 1930 0010 70010540 		.word	1074069872
 1931              		.cfi_endproc
 1932              	.LFE37:
 1933              		.size	PWM_Fail_GetInterruptSource, .-PWM_Fail_GetInterruptSource
 1934              		.section	.text.PWM_Fail_ClearInterrupt,"ax",%progbits
 1935              		.align	2
 1936              		.global	PWM_Fail_ClearInterrupt
 1937              		.code	16
ARM GAS  C:\Users\gjl\AppData\Local\Temp\cc8yHSzD.s 			page 59


 1938              		.thumb_func
 1939              		.type	PWM_Fail_ClearInterrupt, %function
 1940              	PWM_Fail_ClearInterrupt:
 1941              	.LFB38:
1369:Generated_Source\PSoC4/PWM_Fail.c **** 
1370:Generated_Source\PSoC4/PWM_Fail.c **** 
1371:Generated_Source\PSoC4/PWM_Fail.c **** /*******************************************************************************
1372:Generated_Source\PSoC4/PWM_Fail.c **** * Function Name: PWM_Fail_ClearInterrupt
1373:Generated_Source\PSoC4/PWM_Fail.c **** ********************************************************************************
1374:Generated_Source\PSoC4/PWM_Fail.c **** *
1375:Generated_Source\PSoC4/PWM_Fail.c **** * Summary:
1376:Generated_Source\PSoC4/PWM_Fail.c **** *  Clears the interrupt request.
1377:Generated_Source\PSoC4/PWM_Fail.c **** *
1378:Generated_Source\PSoC4/PWM_Fail.c **** * Parameters:
1379:Generated_Source\PSoC4/PWM_Fail.c **** *   interruptMask: Mask of interrupts to clear
1380:Generated_Source\PSoC4/PWM_Fail.c **** *   Values:
1381:Generated_Source\PSoC4/PWM_Fail.c **** *     - PWM_Fail_INTR_MASK_TC       - Terminal count mask
1382:Generated_Source\PSoC4/PWM_Fail.c **** *     - PWM_Fail_INTR_MASK_CC_MATCH - Compare count / capture mask
1383:Generated_Source\PSoC4/PWM_Fail.c **** *
1384:Generated_Source\PSoC4/PWM_Fail.c **** * Return:
1385:Generated_Source\PSoC4/PWM_Fail.c **** *  None
1386:Generated_Source\PSoC4/PWM_Fail.c **** *
1387:Generated_Source\PSoC4/PWM_Fail.c **** *******************************************************************************/
1388:Generated_Source\PSoC4/PWM_Fail.c **** void PWM_Fail_ClearInterrupt(uint32 interruptMask)
1389:Generated_Source\PSoC4/PWM_Fail.c **** {
 1942              		.loc 1 1389 0
 1943              		.cfi_startproc
 1944              		@ args = 0, pretend = 0, frame = 8
 1945              		@ frame_needed = 1, uses_anonymous_args = 0
 1946 0000 80B5     		push	{r7, lr}
 1947              		.cfi_def_cfa_offset 8
 1948              		.cfi_offset 7, -8
 1949              		.cfi_offset 14, -4
 1950 0002 82B0     		sub	sp, sp, #8
 1951              		.cfi_def_cfa_offset 16
 1952 0004 00AF     		add	r7, sp, #0
 1953              		.cfi_def_cfa_register 7
 1954 0006 7860     		str	r0, [r7, #4]
1390:Generated_Source\PSoC4/PWM_Fail.c ****     PWM_Fail_INTERRUPT_REQ_REG = interruptMask;
 1955              		.loc 1 1390 0
 1956 0008 034B     		ldr	r3, .L127
 1957 000a 7A68     		ldr	r2, [r7, #4]
 1958 000c 1A60     		str	r2, [r3]
1391:Generated_Source\PSoC4/PWM_Fail.c **** }
 1959              		.loc 1 1391 0
 1960 000e C046     		nop
 1961 0010 BD46     		mov	sp, r7
 1962 0012 02B0     		add	sp, sp, #8
 1963              		@ sp needed
 1964 0014 80BD     		pop	{r7, pc}
 1965              	.L128:
 1966 0016 C046     		.align	2
 1967              	.L127:
 1968 0018 70010540 		.word	1074069872
 1969              		.cfi_endproc
 1970              	.LFE38:
 1971              		.size	PWM_Fail_ClearInterrupt, .-PWM_Fail_ClearInterrupt
ARM GAS  C:\Users\gjl\AppData\Local\Temp\cc8yHSzD.s 			page 60


 1972              		.section	.text.PWM_Fail_SetInterrupt,"ax",%progbits
 1973              		.align	2
 1974              		.global	PWM_Fail_SetInterrupt
 1975              		.code	16
 1976              		.thumb_func
 1977              		.type	PWM_Fail_SetInterrupt, %function
 1978              	PWM_Fail_SetInterrupt:
 1979              	.LFB39:
1392:Generated_Source\PSoC4/PWM_Fail.c **** 
1393:Generated_Source\PSoC4/PWM_Fail.c **** 
1394:Generated_Source\PSoC4/PWM_Fail.c **** /*******************************************************************************
1395:Generated_Source\PSoC4/PWM_Fail.c **** * Function Name: PWM_Fail_SetInterrupt
1396:Generated_Source\PSoC4/PWM_Fail.c **** ********************************************************************************
1397:Generated_Source\PSoC4/PWM_Fail.c **** *
1398:Generated_Source\PSoC4/PWM_Fail.c **** * Summary:
1399:Generated_Source\PSoC4/PWM_Fail.c **** *  Sets a software interrupt request.
1400:Generated_Source\PSoC4/PWM_Fail.c **** *
1401:Generated_Source\PSoC4/PWM_Fail.c **** * Parameters:
1402:Generated_Source\PSoC4/PWM_Fail.c **** *   interruptMask: Mask of interrupts to set
1403:Generated_Source\PSoC4/PWM_Fail.c **** *   Values:
1404:Generated_Source\PSoC4/PWM_Fail.c **** *     - PWM_Fail_INTR_MASK_TC       - Terminal count mask
1405:Generated_Source\PSoC4/PWM_Fail.c **** *     - PWM_Fail_INTR_MASK_CC_MATCH - Compare count / capture mask
1406:Generated_Source\PSoC4/PWM_Fail.c **** *
1407:Generated_Source\PSoC4/PWM_Fail.c **** * Return:
1408:Generated_Source\PSoC4/PWM_Fail.c **** *  None
1409:Generated_Source\PSoC4/PWM_Fail.c **** *
1410:Generated_Source\PSoC4/PWM_Fail.c **** *******************************************************************************/
1411:Generated_Source\PSoC4/PWM_Fail.c **** void PWM_Fail_SetInterrupt(uint32 interruptMask)
1412:Generated_Source\PSoC4/PWM_Fail.c **** {
 1980              		.loc 1 1412 0
 1981              		.cfi_startproc
 1982              		@ args = 0, pretend = 0, frame = 8
 1983              		@ frame_needed = 1, uses_anonymous_args = 0
 1984 0000 80B5     		push	{r7, lr}
 1985              		.cfi_def_cfa_offset 8
 1986              		.cfi_offset 7, -8
 1987              		.cfi_offset 14, -4
 1988 0002 82B0     		sub	sp, sp, #8
 1989              		.cfi_def_cfa_offset 16
 1990 0004 00AF     		add	r7, sp, #0
 1991              		.cfi_def_cfa_register 7
 1992 0006 7860     		str	r0, [r7, #4]
1413:Generated_Source\PSoC4/PWM_Fail.c ****     PWM_Fail_INTERRUPT_SET_REG = interruptMask;
 1993              		.loc 1 1413 0
 1994 0008 034B     		ldr	r3, .L130
 1995 000a 7A68     		ldr	r2, [r7, #4]
 1996 000c 1A60     		str	r2, [r3]
1414:Generated_Source\PSoC4/PWM_Fail.c **** }
 1997              		.loc 1 1414 0
 1998 000e C046     		nop
 1999 0010 BD46     		mov	sp, r7
 2000 0012 02B0     		add	sp, sp, #8
 2001              		@ sp needed
 2002 0014 80BD     		pop	{r7, pc}
 2003              	.L131:
 2004 0016 C046     		.align	2
 2005              	.L130:
ARM GAS  C:\Users\gjl\AppData\Local\Temp\cc8yHSzD.s 			page 61


 2006 0018 74010540 		.word	1074069876
 2007              		.cfi_endproc
 2008              	.LFE39:
 2009              		.size	PWM_Fail_SetInterrupt, .-PWM_Fail_SetInterrupt
 2010              		.text
 2011              	.Letext0:
 2012              		.file 2 "Generated_Source\\PSoC4\\cytypes.h"